 addon

 Timestamp is 570bb919 (Mon Apr 11 09:47:53 2016)

 Preferred load address is 0000000180000000

 Start         Length     Name                   Class
 0001:00000000 000001dbH .text                   CODE
 0001:000001e0 00000110H .text$di                CODE
 0001:000002f0 000214e0H .text$mn                CODE
 0001:000217d0 00000012H .text$mn$00             CODE
 0001:000217f0 000004f0H .text$x                 CODE
 0001:00021ce0 00000174H .text$yd                CODE
 0002:00000000 00000310H .idata$5                DATA
 0002:00000310 00000010H .00cfg                  DATA
 0002:00000320 00000008H .CRT$XCA                DATA
 0002:00000328 00000038H .CRT$XCC                DATA
 0002:00000360 00000010H .CRT$XCL                DATA
 0002:00000370 00000008H .CRT$XCU                DATA
 0002:00000378 00000008H .CRT$XCZ                DATA
 0002:00000380 00000008H .CRT$XIA                DATA
 0002:00000388 00000030H .CRT$XIC                DATA
 0002:000003b8 00000008H .CRT$XIZ                DATA
 0002:000003c0 00000008H .CRT$XLA                DATA
 0002:000003c8 00000008H .CRT$XLZ                DATA
 0002:000003d0 00000008H .CRT$XPA                DATA
 0002:000003d8 00000010H .CRT$XPX                DATA
 0002:000003e8 00000008H .CRT$XPXA               DATA
 0002:000003f0 00000008H .CRT$XPZ                DATA
 0002:000003f8 00000008H .CRT$XTA                DATA
 0002:00000400 00000008H .CRT$XTZ                DATA
 0002:00000410 0000ccb4H .rdata                  DATA
 0002:0000d0c8 00000028H .rdata$T                DATA
 0002:0000d0f0 00001064H .rdata$r                DATA
 0002:0000e158 00000010H .rdata$zETW0            DATA
 0002:0000e168 00000077H .rdata$zETW1            DATA
 0002:0000e1df 0000002cH .rdata$zETW2            DATA
 0002:0000e20b 00000001H .rdata$zETW9            DATA
 0002:0000e20c 000004f4H .rdata$zzzdbg           DATA
 0002:0000e700 00000008H .rtc$IAA                DATA
 0002:0000e708 00000008H .rtc$IZZ                DATA
 0002:0000e710 00000008H .rtc$TAA                DATA
 0002:0000e718 00000008H .rtc$TZZ                DATA
 0002:0000e720 00001de4H .xdata                  DATA
 0002:00010508 000002a4H .xdata$x                DATA
 0002:000107ac 00000020H .didat$2                DATA
 0002:000107cc 00000020H .didat$3                DATA
 0002:000107f0 00000080H .didat$4                DATA
 0002:00010870 0000039eH .didat$6                DATA
 0002:00010c10 00000080H .didat$7                DATA
 0002:00010c90 0000004eH .edata                  DATA
 0002:00010ce0 00000064H .idata$2                DATA
 0002:00010d44 00000014H .idata$3                DATA
 0002:00010d58 00000310H .idata$4                DATA
 0002:00011068 0000080eH .idata$6                DATA
 0003:00000000 00000d50H .data                   DATA
 0003:00000d50 00000610H .data$r                 DATA
 0003:00001360 00000080H .didat$5                DATA
 0003:000013e0 000018a4H .bss                    DATA
 0004:00000000 0000204cH .pdata                  DATA
 0005:00000000 00000001H .tls                    DATA
 0005:00000004 00000004H .tls$                   DATA
 0005:00000008 00000001H .tls$ZZZ                DATA
 0006:00000000 000000b0H .gfids$x                DATA
 0006:000000b0 00000240H .gfids$y                DATA
 0007:00000000 00000058H .rsrc$01                DATA
 0007:00000060 00000180H .rsrc$02                DATA

  Address         Publics by Value              Rva+Base               Lib:Object

 0000:00000000       __guard_iat_table          0000000000000000     <absolute>
 0000:00000000       __guard_longjmp_table      0000000000000000     <absolute>
 0000:00000000       __guard_iat_count          0000000000000000     <absolute>
 0000:00000000       __guard_longjmp_count      0000000000000000     <absolute>
 0000:00000000       __guard_fids_count         0000000000000000     <absolute>
 0000:00000000       ___safe_se_handler_table   0000000000000000     <absolute>
 0000:00000000       ___safe_se_handler_count   0000000000000000     <absolute>
 0000:00000000       __guard_fids_table         0000000000000000     <absolute>
 0000:00000100       __guard_flags              0000000000000100     <absolute>
 0000:00000000       __ImageBase                0000000180000000     <linker-defined>
 0001:00000000       ?TraceLoggingRegister@__vcrt_trace_logging_provider@@YAJPEBU_TlgProvider_t@1@PEBU_GUID@@P6AX1KE_K2PEAU_EVENT_FILTER_DESCRIPTOR@@PEAX@Z4@Z 0000000180001000 f i libvcruntime:telemetry.obj
 0001:0000007c       ?_TlgEnableCallback@__vcrt_trace_logging_provider@@YAXPEBU_GUID@@KE_K1PEAU_EVENT_FILTER_DESCRIPTOR@@PEAX@Z 000000018000107c f i libvcruntime:telemetry.obj
 0001:00000140       ?_TlgWrite@__vcrt_trace_logging_provider@@YAJPEBU_TlgProvider_t@1@PEFBXPEBU_GUID@@2IPEAU_EVENT_DATA_DESCRIPTOR@@@Z 0000000180001140 f i libvcruntime:telemetry.obj
 0001:00000340       __local_stdio_printf_options 0000000180001340 f i jsmsc.obj
 0001:00000350       ?what@exception@stdext@@UEBAPEBDXZ 0000000180001350 f i jsmsc.obj
 0001:00000370       __except_validate_context_record 0000000180001370 f i libvcruntime:jbcxrval.obj
 0001:00000370       ?_Lock@?$basic_streambuf@DU?$char_traits@D@std@@@std@@UEAAXXZ 0000000180001370 f i libcpmt:cout.obj
 0001:00000370       ?_Unlock@?$basic_streambuf@DU?$char_traits@D@std@@@std@@UEAAXXZ 0000000180001370 f i libcpmt:cout.obj
 0001:00000370       _guard_check_icall_nop     0000000180001370 f i LIBCMT:guard_support.obj
 0001:00000370       ?imbue@?$basic_streambuf@DU?$char_traits@D@std@@@std@@MEAAXAEBVlocale@2@@Z 0000000180001370 f i libcpmt:cout.obj
 0001:00000370       ?_Doraise@exception@stdext@@MEBAXXZ 0000000180001370 f i jsmsc.obj
 0001:00000380       ??_Gruntime_error@std@@UEAAPEAXI@Z 0000000180001380 f i jsmsc.obj
 0001:00000380       ??_Eruntime_error@std@@UEAAPEAXI@Z 0000000180001380 f i * CIL library *:* CIL module *
 0001:00000380       ??_Eexception@stdext@@UEAAPEAXI@Z 0000000180001380 f i * CIL library *:* CIL module *
 0001:00000380       ??_Gexception@stdext@@UEAAPEAXI@Z 0000000180001380 f i jsmsc.obj
 0001:000003b0       sprintf_s                  00000001800013b0 f i jsmsc.obj
 0001:00000410       ?_Deallocate@std@@YAXPEAX_K1@Z 0000000180001410 f i jsmsc.obj
 0001:00000480       ??0_Locinfo@std@@QEAA@PEBD@Z 0000000180001480 f i jsmsc.obj
 0001:00000540       ??1_Locinfo@std@@QEAA@XZ   0000000180001540 f i jsmsc.obj
 0001:000005e0       ??_E_Facet_base@std@@UEAAPEAXI@Z 00000001800015e0 f i * CIL library *:* CIL module *
 0001:000005e0       ??_G_Facet_base@std@@UEAAPEAXI@Z 00000001800015e0 f i jsmsc.obj
 0001:00000610       ?_Incref@facet@locale@std@@UEAAXXZ 0000000180001610 f i jsmsc.obj
 0001:00000620       ?_Decref@facet@locale@std@@UEAAPEAV_Facet_base@3@XZ 0000000180001620 f i jsmsc.obj
 0001:00000640       ?_Getcat@?$ctype@D@std@@SA_KPEAPEBVfacet@locale@2@PEBV42@@Z 0000000180001640 f i jsmsc.obj
 0001:00000700       ?do_tolower@?$ctype@D@std@@MEBADD@Z 0000000180001700 f i jsmsc.obj
 0001:00000710       ?do_tolower@?$ctype@D@std@@MEBAPEBDPEADPEBD@Z 0000000180001710 f i jsmsc.obj
 0001:00000770       ?do_toupper@?$ctype@D@std@@MEBADD@Z 0000000180001770 f i jsmsc.obj
 0001:00000780       ?do_toupper@?$ctype@D@std@@MEBAPEBDPEADPEBD@Z 0000000180001780 f i jsmsc.obj
 0001:000007e0       ?do_widen@?$ctype@D@std@@MEBADD@Z 00000001800017e0 f i jsmsc.obj
 0001:000007e0       ?do_narrow@?$ctype@D@std@@MEBADDD@Z 00000001800017e0 f i jsmsc.obj
 0001:000007f0       ?do_widen@?$ctype@D@std@@MEBAPEBDPEBD0PEAD@Z 00000001800017f0 f i jsmsc.obj
 0001:00000810       ?do_narrow@?$ctype@D@std@@MEBAPEBDPEBD0DPEAD@Z 0000000180001810 f i jsmsc.obj
 0001:00000830       ??_E?$ctype@D@std@@MEAAPEAXI@Z 0000000180001830 f i * CIL library *:* CIL module *
 0001:00000830       ??_G?$ctype@D@std@@MEAAPEAXI@Z 0000000180001830 f i jsmsc.obj
 0001:000008a0       ??_Gerror_category@std@@UEAAPEAXI@Z 00000001800018a0 f i jsmsc.obj
 0001:000008a0       ??_G_Iostream_error_category@std@@UEAAPEAXI@Z 00000001800018a0 f i jsmsc.obj
 0001:000008a0       ??_Eerror_category@std@@UEAAPEAXI@Z 00000001800018a0 f i * CIL library *:* CIL module *
 0001:000008a0       ??_E_Iostream_error_category@std@@UEAAPEAXI@Z 00000001800018a0 f i * CIL library *:* CIL module *
 0001:000008d0       ?default_error_condition@error_category@std@@UEBA?AVerror_condition@2@H@Z 00000001800018d0 f i jsmsc.obj
 0001:000008e0       ?equivalent@error_category@std@@UEBA_NHAEBVerror_condition@2@@Z 00000001800018e0 f i jsmsc.obj
 0001:00000940       ?equivalent@error_category@std@@UEBA_NAEBVerror_code@2@H@Z 0000000180001940 f i jsmsc.obj
 0001:00000960       ?_Makestr@_System_error@std@@CA?AV?$basic_string@DU?$char_traits@D@std@@V?$allocator@D@2@@2@Verror_code@2@V32@@Z 0000000180001960 f i jsmsc.obj
 0001:00000ac0       ??_Gfailure@ios_base@std@@UEAAPEAXI@Z 0000000180001ac0 f i jsmsc.obj
 0001:00000ac0       ??_G_System_error@std@@UEAAPEAXI@Z 0000000180001ac0 f i jsmsc.obj
 0001:00000ac0       ??_E_System_error@std@@UEAAPEAXI@Z 0000000180001ac0 f i * CIL library *:* CIL module *
 0001:00000ac0       ??_Efailure@ios_base@std@@UEAAPEAXI@Z 0000000180001ac0 f i * CIL library *:* CIL module *
 0001:00000af0       ?name@_Iostream_error_category@std@@UEBAPEBDXZ 0000000180001af0 f i jsmsc.obj
 0001:00000b00       ?message@_Iostream_error_category@std@@UEBA?AV?$basic_string@DU?$char_traits@D@std@@V?$allocator@D@2@@2@H@Z 0000000180001b00 f i jsmsc.obj
 0001:00000b80       ?clear@ios_base@std@@QEAAXH_N@Z 0000000180001b80 f i jsmsc.obj
 0001:000010c0       ??0Mat@cv@@QEAA@AEBV01@@Z  00000001800020c0 f i jsmsc.obj
 0001:000011a0       ??1Mat@cv@@QEAA@XZ         00000001800021a0 f i jsmsc.obj
 0001:00001230       ??4Mat@cv@@QEAAAEAV01@AEBV01@@Z 0000000180002230 f i jsmsc.obj
 0001:00001350       ?CalcReturnVal@@YAXVMat@cv@@PEAVIsolate@v8@@AEAV?$Local@VObject@v8@@@4@@Z 0000000180002350 f   jsmsc.obj
 0001:00001850       ?jsmsc@@YAXAEBV?$FunctionCallbackInfo@VValue@v8@@@v8@@@Z 0000000180002850 f   jsmsc.obj
 0001:00001c10       ?CreateFunction@@YAXAEBV?$FunctionCallbackInfo@VValue@v8@@@v8@@@Z 0000000180002c10 f   jsmsc.obj
 0001:00001cc0       ?Init@@YAXV?$Local@VObject@v8@@@v8@@0@Z 0000000180002cc0 f   jsmsc.obj
 0001:00001cf0       ??1?$basic_string@DU?$char_traits@D@std@@V?$allocator@D@2@@std@@QEAA@XZ 0000000180002cf0 f i jsmsc.obj
 0001:00001d80       ??6?$basic_ostream@DU?$char_traits@D@std@@@std@@QEAAAEAV01@_K@Z 0000000180002d80 f i jsmsc.obj
 0001:00001f50       ??0sentry@?$basic_ostream@DU?$char_traits@D@std@@@std@@QEAA@AEAV12@@Z 0000000180002f50 f i jsmsc.obj
 0001:00001fc0       ?do_put@?$num_put@DV?$ostreambuf_iterator@DU?$char_traits@D@std@@@std@@@std@@MEBA?AV?$ostreambuf_iterator@DU?$char_traits@D@std@@@2@V32@AEAVios_base@2@DPEBX@Z 0000000180002fc0 f i jsmsc.obj
 0001:00002060       ?do_put@?$num_put@DV?$ostreambuf_iterator@DU?$char_traits@D@std@@@std@@@std@@MEBA?AV?$ostreambuf_iterator@DU?$char_traits@D@std@@@2@V32@AEAVios_base@2@DO@Z 0000000180003060 f i jsmsc.obj
 0001:000022e0       ?do_put@?$num_put@DV?$ostreambuf_iterator@DU?$char_traits@D@std@@@std@@@std@@MEBA?AV?$ostreambuf_iterator@DU?$char_traits@D@std@@@2@V32@AEAVios_base@2@DN@Z 00000001800032e0 f i jsmsc.obj
 0001:00002560       ?do_put@?$num_put@DV?$ostreambuf_iterator@DU?$char_traits@D@std@@@std@@@std@@MEBA?AV?$ostreambuf_iterator@DU?$char_traits@D@std@@@2@V32@AEAVios_base@2@D_K@Z 0000000180003560 f i jsmsc.obj
 0001:00002660       ?do_put@?$num_put@DV?$ostreambuf_iterator@DU?$char_traits@D@std@@@std@@@std@@MEBA?AV?$ostreambuf_iterator@DU?$char_traits@D@std@@@2@V32@AEAVios_base@2@D_J@Z 0000000180003660 f i jsmsc.obj
 0001:00002760       ?do_put@?$num_put@DV?$ostreambuf_iterator@DU?$char_traits@D@std@@@std@@@std@@MEBA?AV?$ostreambuf_iterator@DU?$char_traits@D@std@@@2@V32@AEAVios_base@2@DK@Z 0000000180003760 f i jsmsc.obj
 0001:00002860       ?do_put@?$num_put@DV?$ostreambuf_iterator@DU?$char_traits@D@std@@@std@@@std@@MEBA?AV?$ostreambuf_iterator@DU?$char_traits@D@std@@@2@V32@AEAVios_base@2@DJ@Z 0000000180003860 f i jsmsc.obj
 0001:00002960       ?do_put@?$num_put@DV?$ostreambuf_iterator@DU?$char_traits@D@std@@@std@@@std@@MEBA?AV?$ostreambuf_iterator@DU?$char_traits@D@std@@@2@V32@AEAVios_base@2@D_N@Z 0000000180003960 f i jsmsc.obj
 0001:00002e50       ?assign@?$basic_string@DU?$char_traits@D@std@@V?$allocator@D@2@@std@@QEAAAEAV12@_KD@Z 0000000180003e50 f i jsmsc.obj
 0001:00002f60       ?assign@?$basic_string@DU?$char_traits@D@std@@V?$allocator@D@2@@std@@QEAAAEAV12@PEBD_K@Z 0000000180003f60 f i jsmsc.obj
 0001:000030a0       ?assign@?$basic_string@DU?$char_traits@D@std@@V?$allocator@D@2@@std@@QEAAAEAV12@AEBV12@_K1@Z 00000001800040a0 f i jsmsc.obj
 0001:000031d0       ?append@?$basic_string@DU?$char_traits@D@std@@V?$allocator@D@2@@std@@QEAAAEAV12@PEBD_K@Z 00000001800041d0 f i jsmsc.obj
 0001:00003320       ?append@?$basic_string@DU?$char_traits@D@std@@V?$allocator@D@2@@std@@QEAAAEAV12@AEBV12@_K1@Z 0000000180004320 f i jsmsc.obj
 0001:00003450       ??_G?$num_put@DV?$ostreambuf_iterator@DU?$char_traits@D@std@@@std@@@std@@MEAAPEAXI@Z 0000000180004450 f i jsmsc.obj
 0001:00003450       ??_E?$codecvt@DDU_Mbstatet@@@std@@MEAAPEAXI@Z 0000000180004450 f i libcpmt:cout.obj
 0001:00003450       ??_G?$codecvt@DDU_Mbstatet@@@std@@MEAAPEAXI@Z 0000000180004450 f i libcpmt:cout.obj
 0001:00003450       ??_E?$num_put@DV?$ostreambuf_iterator@DU?$char_traits@D@std@@@std@@@std@@MEAAPEAXI@Z 0000000180004450 f i * CIL library *:* CIL module *
 0001:00003480       ?do_truename@?$numpunct@D@std@@MEBA?AV?$basic_string@DU?$char_traits@D@std@@V?$allocator@D@2@@2@XZ 0000000180004480 f i jsmsc.obj
 0001:000034d0       ?do_falsename@?$numpunct@D@std@@MEBA?AV?$basic_string@DU?$char_traits@D@std@@V?$allocator@D@2@@2@XZ 00000001800044d0 f i jsmsc.obj
 0001:00003520       ?do_grouping@?$numpunct@D@std@@MEBA?AV?$basic_string@DU?$char_traits@D@std@@V?$allocator@D@2@@2@XZ 0000000180004520 f i jsmsc.obj
 0001:00003570       ?do_thousands_sep@?$numpunct@D@std@@MEBADXZ 0000000180004570 f i jsmsc.obj
 0001:00003580       ?do_decimal_point@?$numpunct@D@std@@MEBADXZ 0000000180004580 f i jsmsc.obj
 0001:00003590       ?_Iput@?$num_put@DV?$ostreambuf_iterator@DU?$char_traits@D@std@@@std@@@std@@AEBA?AV?$ostreambuf_iterator@DU?$char_traits@D@std@@@2@V32@AEAVios_base@2@DPEAD_K@Z 0000000180004590 f i jsmsc.obj
 0001:00003d80       ?_Fput@?$num_put@DV?$ostreambuf_iterator@DU?$char_traits@D@std@@@std@@@std@@AEBA?AV?$ostreambuf_iterator@DU?$char_traits@D@std@@@2@V32@AEAVios_base@2@DPEBD_K@Z 0000000180004d80 f i jsmsc.obj
 0001:00004600       ?deallocate@?$_Wrap_alloc@V?$allocator@D@std@@@std@@QEAAXPEAD_K@Z 0000000180005600 f i jsmsc.obj
 0001:00004660       ?erase@?$basic_string@DU?$char_traits@D@std@@V?$allocator@D@2@@std@@QEAAAEAV12@_K0@Z 0000000180005660 f i jsmsc.obj
 0001:00004730       ?append@?$basic_string@DU?$char_traits@D@std@@V?$allocator@D@2@@std@@QEAAAEAV12@_KD@Z 0000000180005730 f i jsmsc.obj
 0001:00004840       ?assign@?$basic_string@DU?$char_traits@D@std@@V?$allocator@D@2@@std@@QEAAAEAV12@$$QEAV12@@Z 0000000180005840 f i jsmsc.obj
 0001:00004940       ?flush@?$basic_ostream@DU?$char_traits@D@std@@@std@@QEAAAEAV12@XZ 0000000180005940 f i jsmsc.obj
 0001:00004a30       ??_E?$numpunct@D@std@@MEAAPEAXI@Z 0000000180005a30 f i * CIL library *:* CIL module *
 0001:00004a30       ??_G?$numpunct@D@std@@MEAAPEAXI@Z 0000000180005a30 f i jsmsc.obj
 0001:00004a90       ?_Copy@?$basic_string@DU?$char_traits@D@std@@V?$allocator@D@2@@std@@QEAAX_K0@Z 0000000180005a90 f i jsmsc.obj
 0001:00004c20       ??$use_facet@V?$ctype@D@std@@@std@@YAAEBV?$ctype@D@0@AEBVlocale@0@@Z 0000000180005c20 f i jsmsc.obj
 0001:00004d50       ??$_Immortalize@V_Iostream_error_category@std@@@std@@YAAEAV_Iostream_error_category@0@XZ 0000000180005d50 f i jsmsc.obj
 0001:00004dd0       ??$?6U?$char_traits@D@std@@@std@@YAAEAV?$basic_ostream@DU?$char_traits@D@std@@@0@AEAV10@PEBD@Z 0000000180005dd0 f i jsmsc.obj
 0001:00005060       ??$NODE_SET_METHOD@V?$Local@VObject@v8@@@v8@@@node@@YAXAEBV?$Local@VObject@v8@@@v8@@PEBDP6AXAEBV?$FunctionCallbackInfo@VValue@v8@@@2@@Z@Z 0000000180006060 f i jsmsc.obj
 0001:00005120       ??$use_facet@V?$num_put@DV?$ostreambuf_iterator@DU?$char_traits@D@std@@@std@@@std@@@std@@YAAEBV?$num_put@DV?$ostreambuf_iterator@DU?$char_traits@D@std@@@std@@@0@AEBVlocale@0@@Z 0000000180006120 f i jsmsc.obj
 0001:000052a0       ??$use_facet@V?$numpunct@D@std@@@std@@YAAEBV?$numpunct@D@0@AEBVlocale@0@@Z 00000001800062a0 f i jsmsc.obj
 0001:000053d0       ?_Getcat@?$numpunct@D@std@@SA_KPEAPEBVfacet@locale@2@PEBV42@@Z 00000001800063d0 f i jsmsc.obj
 0001:00005490       ?put@?$basic_ostream@DU?$char_traits@D@std@@@std@@QEAAAEAV12@D@Z 0000000180006490 f i jsmsc.obj
 0001:000055e0       ?widen@?$basic_ios@DU?$char_traits@D@std@@@std@@QEBADD@Z 00000001800065e0 f i jsmsc.obj
 0001:00005680       ?_Init@?$numpunct@D@std@@IEAAXAEBV_Locinfo@2@_N@Z 0000000180006680 f i jsmsc.obj
 0001:000057f1       __imp_load_?GetCurrent@Isolate@v8@@SAPEAV12@XZ 00000001800067f1 f   node:node.exe
 0001:000057fd       __tailMerge_node_exe       00000001800067fd f i node:node.exe
 0001:00005876       __imp_load_??1HandleScope@v8@@QEAA@XZ 0000000180006876 f   node:node.exe
 0001:00005882       __imp_load_??0HandleScope@v8@@QEAA@PEAVIsolate@1@@Z 0000000180006882 f   node:node.exe
 0001:0000588e       __imp_load_?GetFunction@FunctionTemplate@v8@@QEAA?AV?$Local@VFunction@v8@@@2@XZ 000000018000688e f   node:node.exe
 0001:0000589a       __imp_load_?New@FunctionTemplate@v8@@SA?AV?$Local@VFunctionTemplate@v8@@@2@PEAVIsolate@2@P6AXAEBV?$FunctionCallbackInfo@VValue@v8@@@2@@ZV?$Local@VValue@v8@@@2@V?$Local@VSignature@v8@@@2@H@Z 000000018000689a f   node:node.exe
 0001:000058a6       __imp_load_?IsArrayBuffer@Value@v8@@QEBA_NXZ 00000001800068a6 f   node:node.exe
 0001:000058b2       __imp_load_?NewFromUtf8@String@v8@@SA?AV?$Local@VString@v8@@@2@PEAVIsolate@2@PEBDW4NewStringType@12@H@Z 00000001800068b2 f   node:node.exe
 0001:000058be       __imp_load_?New@Number@v8@@SA?AV?$Local@VNumber@v8@@@2@PEAVIsolate@2@N@Z 00000001800068be f   node:node.exe
 0001:000058ca       __imp_load_?New@Object@v8@@SA?AV?$Local@VObject@v8@@@2@PEAVIsolate@2@@Z 00000001800068ca f   node:node.exe
 0001:000058d6       __imp_load_?Set@Object@v8@@QEAA_NV?$Local@VValue@v8@@@2@0@Z 00000001800068d6 f   node:node.exe
 0001:000058e2       __imp_load_?SetName@Function@v8@@QEAAXV?$Local@VString@v8@@@2@@Z 00000001800068e2 f   node:node.exe
 0001:000058ee       __imp_load_node_module_register 00000001800068ee f   node:node.exe
 0001:000058fa       __imp_load_?Data@Buffer@node@@YAPEADV?$Local@VObject@v8@@@v8@@@Z 00000001800068fa f   node:node.exe
 0001:00005906       __imp_load_?Length@Buffer@node@@YA_KV?$Local@VObject@v8@@@v8@@@Z 0000000180006906 f   node:node.exe
 0001:00005912       __imp_load_?ToObject@Value@v8@@QEBA?AV?$Local@VObject@v8@@@2@XZ 0000000180006912 f   node:node.exe
 0001:00005930       __security_check_cookie    0000000180006930 f   LIBCMT:_amdsecgs_.obj
 0001:00005a9c       _Init_thread_footer        0000000180006a9c f   LIBCMT:thread_safe_statics.obj
 0001:00005afc       _Init_thread_header        0000000180006afc f   LIBCMT:thread_safe_statics.obj
 0001:00005b64       _Init_thread_notify        0000000180006b64 f   LIBCMT:thread_safe_statics.obj
 0001:00005bc0       _Init_thread_wait          0000000180006bc0 f   LIBCMT:thread_safe_statics.obj
 0001:00005c58       ??2@YAPEAX_K@Z             0000000180006c58 f   LIBCMT:new_scalar.obj
 0001:00005c94       __scrt_acquire_startup_lock 0000000180006c94 f   LIBCMT:utility.obj
 0001:00005cd0       __scrt_dllmain_after_initialize_c 0000000180006cd0 f   LIBCMT:utility.obj
 0001:00005cf0       __scrt_dllmain_before_initialize_c 0000000180006cf0 f   LIBCMT:utility.obj
 0001:00005d08       __scrt_dllmain_crt_thread_attach 0000000180006d08 f   LIBCMT:utility.obj
 0001:00005d30       __scrt_dllmain_crt_thread_detach 0000000180006d30 f   LIBCMT:utility.obj
 0001:00005d48       __scrt_dllmain_exception_filter 0000000180006d48 f   LIBCMT:utility.obj
 0001:00005dac       __scrt_dllmain_uninitialize_c 0000000180006dac f   LIBCMT:utility.obj
 0001:00005ddc       __scrt_dllmain_uninitialize_critical 0000000180006ddc f   LIBCMT:utility.obj
 0001:00005df0       __scrt_initialize_crt      0000000180006df0 f   LIBCMT:utility.obj
 0001:00005e3c       __scrt_initialize_onexit_tables 0000000180006e3c f   LIBCMT:utility.obj
 0001:00005f08       __scrt_is_nonwritable_in_current_image 0000000180006f08 f   LIBCMT:utility.obj
 0001:00005fa4       __scrt_release_startup_lock 0000000180006fa4 f   LIBCMT:utility.obj
 0001:00005fc8       __scrt_uninitialize_crt    0000000180006fc8 f   LIBCMT:utility.obj
 0001:00005ff4       _onexit                    0000000180006ff4 f   LIBCMT:utility.obj
 0001:00006044       atexit                     0000000180007044 f   LIBCMT:utility.obj
 0001:0000605c       ??3@YAXPEAX@Z              000000018000705c f   LIBCMT:delete_scalar.obj
 0001:00006064       ??_V@YAXPEAX@Z             0000000180007064 f   LIBCMT:delete_array.obj
 0001:00006064       ??3@YAXPEAX_K@Z            0000000180007064 f   LIBCMT:delete_scalar_size.obj
 0001:000063c8       _DllMainCRTStartup         00000001800073c8 f   LIBCMT:dll_dllmain.obj
 0001:00006408       __raise_securityfailure    0000000180007408 f   LIBCMT:gs_report.obj
 0001:0000643c       __report_gsfailure         000000018000743c f   LIBCMT:gs_report.obj
 0001:00006510       __report_rangecheckfailure 0000000180007510 f   LIBCMT:gs_report.obj
 0001:00006524       __report_securityfailure   0000000180007524 f   LIBCMT:gs_report.obj
 0001:000066a4       __crt_debugger_hook        00000001800076a4 f   LIBCMT:utility_desktop.obj
 0001:000066ac       __scrt_fastfail            00000001800076ac f   LIBCMT:utility_desktop.obj
 0001:000067f4       _guard_check_icall         00000001800077f4 f i LIBCMT:checkcfg.obj
 0001:000067fc       ??0bad_alloc@std@@QEAA@AEBV01@@Z 00000001800077fc f i LIBCMT:throw_bad_alloc.obj
 0001:0000683c       ??0bad_alloc@std@@QEAA@XZ  000000018000783c f i LIBCMT:throw_bad_alloc.obj
 0001:0000685c       ??0bad_array_new_length@std@@QEAA@AEBV01@@Z 000000018000785c f i LIBCMT:throw_bad_alloc.obj
 0001:0000689c       ??0bad_array_new_length@std@@QEAA@XZ 000000018000789c f i LIBCMT:throw_bad_alloc.obj
 0001:000068bc       ??0exception@std@@QEAA@AEBV01@@Z 00000001800078bc f i LIBCMT:throw_bad_alloc.obj
 0001:000068f4       ??1bad_array_new_length@std@@UEAA@XZ 00000001800078f4 f i LIBCMT:throw_bad_alloc.obj
 0001:000068f4       ??1length_error@std@@UEAA@XZ 00000001800078f4 f i libcpmt:xthrow.obj
 0001:000068f4       ??1bad_alloc@std@@UEAA@XZ  00000001800078f4 f i LIBCMT:throw_bad_alloc.obj
 0001:000068f4       ??1out_of_range@std@@UEAA@XZ 00000001800078f4 f i libcpmt:xthrow.obj
 0001:000068f4       ??1bad_exception@std@@UEAA@XZ 00000001800078f4 f i libvcruntime:frame.obj
 0001:000068f4       ??1bad_cast@std@@UEAA@XZ   00000001800078f4 f i libcpmt:cout.obj
 0001:00006908       ??_Gbad_alloc@std@@UEAAPEAXI@Z 0000000180007908 f i LIBCMT:throw_bad_alloc.obj
 0001:00006908       ??_Ebad_array_new_length@std@@UEAAPEAXI@Z 0000000180007908 f i LIBCMT:throw_bad_alloc.obj
 0001:00006908       ??_Elength_error@std@@UEAAPEAXI@Z 0000000180007908 f i libcpmt:xthrow.obj
 0001:00006908       ??_Eexception@std@@UEAAPEAXI@Z 0000000180007908 f i LIBCMT:throw_bad_alloc.obj
 0001:00006908       ??_Ebad_cast@std@@UEAAPEAXI@Z 0000000180007908 f i libcpmt:cout.obj
 0001:00006908       ??_Eout_of_range@std@@UEAAPEAXI@Z 0000000180007908 f i libcpmt:xthrow.obj
 0001:00006908       ??_Gbad_cast@std@@UEAAPEAXI@Z 0000000180007908 f i libcpmt:cout.obj
 0001:00006908       ??_Ebad_exception@std@@UEAAPEAXI@Z 0000000180007908 f i libvcruntime:frame.obj
 0001:00006908       ??_Gout_of_range@std@@UEAAPEAXI@Z 0000000180007908 f i libcpmt:xthrow.obj
 0001:00006908       ??_Elogic_error@std@@UEAAPEAXI@Z 0000000180007908 f i libcpmt:xthrow.obj
 0001:00006908       ??_Ebad_alloc@std@@UEAAPEAXI@Z 0000000180007908 f i LIBCMT:throw_bad_alloc.obj
 0001:00006908       ??_Gbad_exception@std@@UEAAPEAXI@Z 0000000180007908 f i libvcruntime:frame.obj
 0001:00006908       ??_Glength_error@std@@UEAAPEAXI@Z 0000000180007908 f i libcpmt:xthrow.obj
 0001:00006908       ??_Gexception@std@@UEAAPEAXI@Z 0000000180007908 f i LIBCMT:throw_bad_alloc.obj
 0001:00006908       ??_Gbad_array_new_length@std@@UEAAPEAXI@Z 0000000180007908 f i LIBCMT:throw_bad_alloc.obj
 0001:00006908       ??_Glogic_error@std@@UEAAPEAXI@Z 0000000180007908 f i libcpmt:xthrow.obj
 0001:0000694c       ?__scrt_throw_std_bad_alloc@@YAXXZ 000000018000794c f   LIBCMT:throw_bad_alloc.obj
 0001:0000694c       ?_Xbad_alloc@std@@YAXXZ    000000018000794c f   libcpmt:xthrow.obj
 0001:0000696c       ?__scrt_throw_std_bad_array_new_length@@YAXXZ 000000018000796c f   LIBCMT:throw_bad_alloc.obj
 0001:0000698c       ?what@exception@std@@UEBAPEBDXZ 000000018000798c f i LIBCMT:throw_bad_alloc.obj
 0001:000069a0       __isa_available_init       00000001800079a0 f   LIBCMT:_cpu_disp_.obj
 0001:00006b64       __scrt_is_ucrt_dll_in_use  0000000180007b64 f   LIBCMT:ucrt_detection.obj
 0001:00006b70       __security_init_cookie     0000000180007b70 f   LIBCMT:gs_support.obj
 0001:00006c1c       ?__scrt_initialize_type_info@@YAXXZ 0000000180007c1c f   LIBCMT:tncleanup.obj
 0001:00006c2c       ?__scrt_uninitialize_type_info@@YAXXZ 0000000180007c2c f   LIBCMT:tncleanup.obj
 0001:00006c38       __local_stdio_scanf_options 0000000180007c38 f i LIBCMT:default_local_stdio_options.obj
 0001:00006c40       __scrt_initialize_default_local_stdio_options 0000000180007c40 f   LIBCMT:default_local_stdio_options.obj
 0001:00006c5c       __scrt_get_dyn_tls_init_callback 0000000180007c5c f   LIBCMT:dyn_tls_init.obj
 0001:00006c64       _RTC_Initialize            0000000180007c64 f   LIBCMT:_initsect_.obj
 0001:00006cb0       _RTC_Terminate             0000000180007cb0 f   LIBCMT:_initsect_.obj
 0001:00006cfc       ??_Etype_info@@UEAAPEAXI@Z 0000000180007cfc f i LIBCMT:std_type_info_static.obj
 0001:00006cfc       ??_Gtype_info@@UEAAPEAXI@Z 0000000180007cfc f i LIBCMT:std_type_info_static.obj
 0001:00006d30       ??0_Init_locks@std@@QEAA@XZ 0000000180007d30 f   libcpmt:xlock.obj
 0001:00006d7c       ??0_Lockit@std@@QEAA@H@Z   0000000180007d7c f   libcpmt:xlock.obj
 0001:00006db8       ??1_Init_locks@std@@QEAA@XZ 0000000180007db8 f   libcpmt:xlock.obj
 0001:00006dfc       ??1_Lockit@std@@QEAA@XZ    0000000180007dfc f   libcpmt:xlock.obj
 0001:00006e30       ??$use_facet@V?$codecvt@DDU_Mbstatet@@@std@@@std@@YAAEBV?$codecvt@DDU_Mbstatet@@@0@AEBVlocale@0@@Z 0000000180007e30 f i libcpmt:cout.obj
 0001:00006f68       ??0?$basic_ostream@DU?$char_traits@D@std@@@std@@QEAA@PEAV?$basic_streambuf@DU?$char_traits@D@std@@@1@_N@Z 0000000180007f68 f i libcpmt:cout.obj
 0001:00007030       ??0?$basic_streambuf@DU?$char_traits@D@std@@@std@@IEAA@XZ 0000000180008030 f i libcpmt:cout.obj
 0001:000070e0       ??0_Init_cout@std@@QEAA@XZ 00000001800080e0 f i libcpmt:cout.obj
 0001:0000714c       ??0bad_cast@std@@QEAA@AEBV01@@Z 000000018000814c f i libcpmt:cout.obj
 0001:0000718c       ??0bad_cast@std@@QEAA@XZ   000000018000818c f i libcpmt:cout.obj
 0001:000071ac       ??1?$basic_filebuf@DU?$char_traits@D@std@@@std@@UEAA@XZ 00000001800081ac f i libcpmt:cout.obj
 0001:00007258       ??1?$basic_ios@DU?$char_traits@D@std@@@std@@UEAA@XZ 0000000180008258 f i libcpmt:cout.obj
 0001:0000727c       ??_E?$basic_ostream@DU?$char_traits@D@std@@@std@@$4PPPPPPPM@A@EAAPEAXI@Z 000000018000827c f i libcpmt:cout.obj
 0001:00007288       ??_G?$basic_filebuf@DU?$char_traits@D@std@@@std@@UEAAPEAXI@Z 0000000180008288 f i libcpmt:cout.obj
 0001:00007288       ??_E?$basic_filebuf@DU?$char_traits@D@std@@@std@@UEAAPEAXI@Z 0000000180008288 f i libcpmt:cout.obj
 0001:000072bc       ??_G?$basic_ios@DU?$char_traits@D@std@@@std@@UEAAPEAXI@Z 00000001800082bc f i libcpmt:cout.obj
 0001:000072bc       ??_E?$basic_ios@DU?$char_traits@D@std@@@std@@UEAAPEAXI@Z 00000001800082bc f i libcpmt:cout.obj
 0001:00007308       ??_G?$basic_ostream@DU?$char_traits@D@std@@@std@@UEAAPEAXI@Z 0000000180008308 f i libcpmt:cout.obj
 0001:00007308       ??_E?$basic_ostream@DU?$char_traits@D@std@@@std@@UEAAPEAXI@Z 0000000180008308 f i libcpmt:cout.obj
 0001:0000737c       ??_G?$basic_streambuf@DU?$char_traits@D@std@@@std@@UEAAPEAXI@Z 000000018000837c f i libcpmt:cout.obj
 0001:0000737c       ??_E?$basic_streambuf@DU?$char_traits@D@std@@@std@@UEAAPEAXI@Z 000000018000837c f i libcpmt:cout.obj
 0001:000073cc       ??_Eios_base@std@@UEAAPEAXI@Z 00000001800083cc f i libcpmt:cout.obj
 0001:000073cc       ??_Gios_base@std@@UEAAPEAXI@Z 00000001800083cc f i libcpmt:cout.obj
 0001:00007418       ??_Glocale@std@@QEAAPEAXI@Z 0000000180008418 f i libcpmt:cout.obj
 0001:000074a8       ?_Endwrite@?$basic_filebuf@DU?$char_traits@D@std@@@std@@IEAA_NXZ 00000001800084a8 f i libcpmt:cout.obj
 0001:0000765c       ?_Getcat@?$codecvt@DDU_Mbstatet@@@std@@SA_KPEAPEBVfacet@locale@2@PEBV42@@Z 000000018000865c f i libcpmt:cout.obj
 0001:00007720       ?_Init@?$basic_filebuf@DU?$char_traits@D@std@@@std@@IEAAXPEAU_iobuf@@W4_Initfl@12@@Z 0000000180008720 f i libcpmt:cout.obj
 0001:0000780c       ?_Init@ios_base@std@@IEAAXXZ 000000018000880c f i libcpmt:cout.obj
 0001:0000788c       ?_Initcvt@?$basic_filebuf@DU?$char_traits@D@std@@@std@@IEAAXPEBV?$codecvt@DDU_Mbstatet@@@2@@Z 000000018000888c f i libcpmt:cout.obj
 0001:0000792c       ?_Lock@?$basic_filebuf@DU?$char_traits@D@std@@@std@@UEAAXXZ 000000018000892c f i libcpmt:cout.obj
 0001:00007948       ?_Unlock@?$basic_filebuf@DU?$char_traits@D@std@@@std@@UEAAXXZ 0000000180008948 f i libcpmt:cout.obj
 0001:00007964       ?do_in@?$codecvt@DDU_Mbstatet@@@std@@MEBAHAEAU_Mbstatet@@PEBD1AEAPEBDPEAD3AEAPEAD@Z 0000000180008964 f i libcpmt:cout.obj
 0001:00007964       ?do_out@?$codecvt@DDU_Mbstatet@@@std@@MEBAHAEAU_Mbstatet@@PEBD1AEAPEBDPEAD3AEAPEAD@Z 0000000180008964 f i libcpmt:cout.obj
 0001:00007980       ?do_length@?$codecvt@DDU_Mbstatet@@@std@@MEBAHAEAU_Mbstatet@@PEBD1_K@Z 0000000180008980 f i libcpmt:cout.obj
 0001:00007994       ?do_max_length@codecvt_base@std@@MEBAHXZ 0000000180008994 f i libcpmt:cout.obj
 0001:00007994       ?do_encoding@codecvt_base@std@@MEBAHXZ 0000000180008994 f i libcpmt:cout.obj
 0001:00007994       DllMain                    0000000180008994 f i LIBCMT:dll_dllmain_stub.obj
 0001:0000799c       ?do_unshift@?$codecvt@DDU_Mbstatet@@@std@@MEBAHAEAU_Mbstatet@@PEAD1AEAPEAD@Z 000000018000899c f i libcpmt:cout.obj
 0001:000079a8       ?imbue@?$basic_filebuf@DU?$char_traits@D@std@@@std@@MEAAXAEBVlocale@2@@Z 00000001800089a8 f i libcpmt:cout.obj
 0001:000079cc       ?overflow@?$basic_filebuf@DU?$char_traits@D@std@@@std@@MEAAHH@Z 00000001800089cc f i libcpmt:cout.obj
 0001:00007c24       ?pbackfail@?$basic_filebuf@DU?$char_traits@D@std@@@std@@MEAAHH@Z 0000000180008c24 f i libcpmt:cout.obj
 0001:00007cf4       ?seekoff@?$basic_filebuf@DU?$char_traits@D@std@@@std@@MEAA?AV?$fpos@U_Mbstatet@@@2@_JHH@Z 0000000180008cf4 f i libcpmt:cout.obj
 0001:00007de0       ?seekpos@?$basic_filebuf@DU?$char_traits@D@std@@@std@@MEAA?AV?$fpos@U_Mbstatet@@@2@V32@H@Z 0000000180008de0 f i libcpmt:cout.obj
 0001:00007ee0       ?seekoff@?$basic_streambuf@DU?$char_traits@D@std@@@std@@MEAA?AV?$fpos@U_Mbstatet@@@2@_JHH@Z 0000000180008ee0 f i libcpmt:cout.obj
 0001:00007ee0       ?seekpos@?$basic_streambuf@DU?$char_traits@D@std@@@std@@MEAA?AV?$fpos@U_Mbstatet@@@2@V32@H@Z 0000000180008ee0 f i libcpmt:cout.obj
 0001:00007efc       ?setbuf@?$basic_filebuf@DU?$char_traits@D@std@@@std@@MEAAPEAV?$basic_streambuf@DU?$char_traits@D@std@@@2@PEAD_J@Z 0000000180008efc f i libcpmt:cout.obj
 0001:00007f50       ?setbuf@?$basic_streambuf@DU?$char_traits@D@std@@@std@@MEAAPEAV12@PEAD_J@Z 0000000180008f50 f i libcpmt:cout.obj
 0001:00007f54       ?sync@?$basic_filebuf@DU?$char_traits@D@std@@@std@@MEAAHXZ 0000000180008f54 f i libcpmt:cout.obj
 0001:00007fb4       ?sync@?$basic_streambuf@DU?$char_traits@D@std@@@std@@MEAAHXZ 0000000180008fb4 f i libcpmt:cout.obj
 0001:00007fb4       ?showmanyc@?$basic_streambuf@DU?$char_traits@D@std@@@std@@MEAA_JXZ 0000000180008fb4 f i libcpmt:cout.obj
 0001:00007fb8       ?uflow@?$basic_filebuf@DU?$char_traits@D@std@@@std@@MEAAHXZ 0000000180008fb8 f i libcpmt:cout.obj
 0001:00008250       ?uflow@?$basic_streambuf@DU?$char_traits@D@std@@@std@@MEAAHXZ 0000000180009250 f i libcpmt:cout.obj
 0001:0000829c       ?underflow@?$basic_filebuf@DU?$char_traits@D@std@@@std@@MEAAHXZ 000000018000929c f i libcpmt:cout.obj
 0001:00008314       ?underflow@?$basic_streambuf@DU?$char_traits@D@std@@@std@@MEAAHXZ 0000000180009314 f i libcpmt:cout.obj
 0001:00008314       ?overflow@?$basic_streambuf@DU?$char_traits@D@std@@@std@@MEAAHH@Z 0000000180009314 f i libcpmt:cout.obj
 0001:00008314       ?pbackfail@?$basic_streambuf@DU?$char_traits@D@std@@@std@@MEAAHH@Z 0000000180009314 f i libcpmt:cout.obj
 0001:00008318       ?xsgetn@?$basic_streambuf@DU?$char_traits@D@std@@@std@@MEAA_JPEAD_J@Z 0000000180009318 f i libcpmt:cout.obj
 0001:000083d8       ?xsputn@?$basic_streambuf@DU?$char_traits@D@std@@@std@@MEAA_JPEBD_J@Z 00000001800093d8 f i libcpmt:cout.obj
 0001:0000849c       ??4?$_Yarn@D@std@@QEAAAEAV01@PEBD@Z 000000018000949c f i libcpmt:locale0.obj
 0001:00008514       ??_G_Fac_node@std@@QEAAPEAXI@Z 0000000180009514 f i libcpmt:locale0.obj
 0001:000085a0       ??_E_Locimp@locale@std@@MEAAPEAXI@Z 00000001800095a0 f i libcpmt:locale0.obj
 0001:000085a0       ??_G_Locimp@locale@std@@MEAAPEAXI@Z 00000001800095a0 f i libcpmt:locale0.obj
 0001:0000860c       ?_Facet_Register@std@@YAXPEAV_Facet_base@1@@Z 000000018000960c f   libcpmt:locale0.obj
 0001:00008644       ?_Getgloballocale@locale@std@@CAPEAV_Locimp@12@XZ 0000000180009644 f   libcpmt:locale0.obj
 0001:0000864c       ?_Init@locale@std@@CAPEAV_Locimp@12@_N@Z 000000018000964c f   libcpmt:locale0.obj
 0001:00008708       ?_Locimp_dtor@_Locimp@locale@std@@CAXPEAV123@@Z 0000000180009708 f   libcpmt:locale0.obj
 0001:000087b0       ?_Locinfo_ctor@_Locinfo@std@@SAXPEAV12@PEBD@Z 00000001800097b0 f   libcpmt:locale0.obj
 0001:0000881c       ?_Locinfo_dtor@_Locinfo@std@@SAXPEAV12@@Z 000000018000981c f   libcpmt:locale0.obj
 0001:00008840       ?_New_Locimp@_Locimp@locale@std@@CAPEAV123@_N@Z 0000000180009840 f   libcpmt:locale0.obj
 0001:000088b0       ?_Setgloballocale@locale@std@@CAXPEAX@Z 00000001800098b0 f   libcpmt:locale0.obj
 0001:000088e4       _Deletegloballocale        00000001800098e4 f   libcpmt:locale0.obj
 0001:0000896c       ??0length_error@std@@QEAA@AEBV01@@Z 000000018000996c f i libcpmt:xthrow.obj
 0001:000089ac       ??0length_error@std@@QEAA@PEBD@Z 00000001800099ac f i libcpmt:xthrow.obj
 0001:000089f8       ??0logic_error@std@@QEAA@AEBV01@@Z 00000001800099f8 f i libcpmt:xthrow.obj
 0001:00008a38       ??0out_of_range@std@@QEAA@AEBV01@@Z 0000000180009a38 f i libcpmt:xthrow.obj
 0001:00008a78       ??0out_of_range@std@@QEAA@PEBD@Z 0000000180009a78 f i libcpmt:xthrow.obj
 0001:00008ac4       ?_Xlength_error@std@@YAXPEBD@Z 0000000180009ac4 f   libcpmt:xthrow.obj
 0001:00008ae8       ?_Xout_of_range@std@@YAXPEBD@Z 0000000180009ae8 f   libcpmt:xthrow.obj
 0001:00008b0c       ?_Syserror_map@std@@YAPEBDH@Z 0000000180009b0c f   libcpmt:syserror.obj
 0001:00008b34       _Getctype                  0000000180009b34 f   libcpmt:_tolower.obj
 0001:00008bf4       _Tolower                   0000000180009bf4 f   libcpmt:_tolower.obj
 0001:00008d1c       _Getcvt                    0000000180009d1c f   libcpmt:xwctomb.obj
 0001:00008dac       _Toupper                   0000000180009dac f   libcpmt:_toupper.obj
 0001:00008ee4       _Mtxdst                    0000000180009ee4 f   libcpmt:xmtx.obj
 0001:00008eec       _Mtxinit                   0000000180009eec f   libcpmt:xmtx.obj
 0001:00008efc       _Mtxlock                   0000000180009efc f   libcpmt:xmtx.obj
 0001:00008f04       _Mtxunlock                 0000000180009f04 f   libcpmt:xmtx.obj
 0001:00008f0c       ?_Addstd@ios_base@std@@SAXPEAV12@@Z 0000000180009f0c f   libcpmt:ios.obj
 0001:00008f7c       ?_Ios_base_dtor@ios_base@std@@CAXPEAV12@@Z 0000000180009f7c f   libcpmt:ios.obj
 0001:00008fc0       ?_Tidy@ios_base@std@@AEAAXXZ 0000000180009fc0 f i libcpmt:ios.obj
 0001:00009050       ?_Atexit@@YAXP6AXXZ@Z      000000018000a050 f   libcpmt:iosptrs.obj
 0001:00009090       __crtLCMapStringA          000000018000a090 f   libcpmt:StlLCMapStringA.obj
 0001:00009854       __crtInitializeCriticalSectionEx 000000018000a854 f   libcpmt:winapisupp.obj
 0001:000098b4       GetTableIndexFromLocaleName 000000018000a8b4 f   libcpmt:winapinls.obj
 0001:00009940       __crtDownlevelLocaleNameToLCID 000000018000a940 f   libcpmt:winapinls.obj
 0001:00009974       __crtLCMapStringEx         000000018000a974 f   libcpmt:winapinls.obj
 0001:00009a30       __wcsnicmp_ascii           000000018000aa30 f   libcpmt:winapinls.obj
 0001:00009aa0       memcpy                     000000018000aaa0 f   libvcruntime:memcpy.obj
 0001:00009aa0       memmove                    000000018000aaa0 f   libvcruntime:memcpy.obj
 0001:00009ed8       _purecall                  000000018000aed8 f   libvcruntime:purevirt.obj
 0001:0000a0dc       __vcrt_EventRegister       000000018000b0dc f   libvcruntime:winapi_downlevel.obj
 0001:0000a160       __vcrt_EventSetInformation 000000018000b160 f   libvcruntime:winapi_downlevel.obj
 0001:0000a1e4       __vcrt_EventUnregister     000000018000b1e4 f   libvcruntime:winapi_downlevel.obj
 0001:0000a238       __vcrt_EventWriteTransfer  000000018000b238 f   libvcruntime:winapi_downlevel.obj
 0001:0000a2d0       __vcrt_FlsAlloc            000000018000b2d0 f   libvcruntime:winapi_downlevel.obj
 0001:0000a324       __vcrt_FlsFree             000000018000b324 f   libvcruntime:winapi_downlevel.obj
 0001:0000a378       __vcrt_FlsGetValue         000000018000b378 f   libvcruntime:winapi_downlevel.obj
 0001:0000a3cc       __vcrt_FlsSetValue         000000018000b3cc f   libvcruntime:winapi_downlevel.obj
 0001:0000a434       __vcrt_InitializeCriticalSectionEx 000000018000b434 f   libvcruntime:winapi_downlevel.obj
 0001:0000a4ac       __vcrt_initialize_winapi_thunks 000000018000b4ac f   libvcruntime:winapi_downlevel.obj
 0001:0000a4e4       __vcrt_uninitialize_winapi_thunks 000000018000b4e4 f   libvcruntime:winapi_downlevel.obj
 0001:0000a524       __vcrt_initialize          000000018000b524 f   libvcruntime:initialization.obj
 0001:0000a55c       __vcrt_thread_attach       000000018000b55c f   libvcruntime:initialization.obj
 0001:0000a570       __vcrt_thread_detach       000000018000b570 f   libvcruntime:initialization.obj
 0001:0000a584       __vcrt_uninitialize        000000018000b584 f   libvcruntime:initialization.obj
 0001:0000a5b0       __vcrt_uninitialize_critical 000000018000b5b0 f   libvcruntime:initialization.obj
 0001:0000a5c0       __C_specific_handler       000000018000b5c0 f   libvcruntime:_chandler_.obj
 0001:0000a7b4       __telemetry_main_invoke_trigger 000000018000b7b4 f   libvcruntime:telemetry.obj
 0001:0000a8cc       __telemetry_main_return_trigger 000000018000b8cc f   libvcruntime:telemetry.obj
 0001:0000a9e4       __vcrt_initialize_telemetry_provider 000000018000b9e4 f   libvcruntime:telemetry.obj
 0001:0000a9f8       __vcrt_uninitialize_telemetry_provider 000000018000b9f8 f   libvcruntime:telemetry.obj
 0001:0000aa30       memset                     000000018000ba30 f   libvcruntime:memset.obj
 0001:0000abd0       __std_exception_copy       000000018000bbd0 f   libvcruntime:std_exception.obj
 0001:0000ac60       __std_exception_destroy    000000018000bc60 f   libvcruntime:std_exception.obj
 0001:0000ac88       _CxxThrowException         000000018000bc88 f   libvcruntime:throw.obj
 0001:0000ad60       __std_type_info_compare    000000018000bd60 f   libvcruntime:std_type_info.obj
 0001:0000ad88       __std_type_info_destroy_list 000000018000bd88 f   libvcruntime:std_type_info.obj
 0001:0000adb4       __DestructExceptionObject  000000018000bdb4 f   libvcruntime:frame.obj
 0001:0000ae3c       ??0bad_exception@std@@QEAA@AEBV01@@Z 000000018000be3c f i libvcruntime:frame.obj
 0001:0000ae7c       ??0bad_exception@std@@QEAA@XZ 000000018000be7c f i libvcruntime:frame.obj
 0001:0000b7c4       ?_CallMemberFunction0@@YAXPEAXP6AX0@Z@Z 000000018000c7c4 f i libvcruntime:frame.obj
 0001:0000b7c8       ?_CallMemberFunction1@@YAXPEAXP6AX0@Z0@Z 000000018000c7c8 f i libvcruntime:frame.obj
 0001:0000b7d4       ?_CallMemberFunction2@@YAXPEAXP6AX0@Z0H@Z 000000018000c7d4 f i libvcruntime:frame.obj
 0001:0000b7e4       __AdjustPointer            000000018000c7e4 f   libvcruntime:frame.obj
 0001:0000b808       __BuildCatchObject         000000018000c808 f   libvcruntime:frame.obj
 0001:0000b8d0       __BuildCatchObjectHelper   000000018000c8d0 f   libvcruntime:frame.obj
 0001:0000bab4       __CxxCallCatchBlock        000000018000cab4 f   libvcruntime:frame.obj
 0001:0000bca0       __FrameUnwindFilter        000000018000cca0 f   libvcruntime:frame.obj
 0001:0000bcec       __FrameUnwindToState       000000018000ccec f   libvcruntime:frame.obj
 0001:0000be80       __InternalCxxFrameHandler  000000018000ce80 f   libvcruntime:frame.obj
 0001:0000c0d8       __TypeMatch                000000018000d0d8 f   libvcruntime:frame.obj
 0001:0000c218       __std_terminate            000000018000d218 f   libvcruntime:frame.obj
 0001:0000c224       ?_GetEstablisherFrame@@YAPEA_KPEA_KPEAU_xDISPATCHER_CONTEXT@@PEBU_s_FuncInfo@@0@Z 000000018000d224 f   libvcruntime:trnsctrl.obj
 0001:0000c2f0       ?_GetRangeOfTrysToCheck@@YAPEBU_s_TryBlockMapEntry@@PEA_KPEBU_s_FuncInfo@@HHPEAI2PEAU_xDISPATCHER_CONTEXT@@@Z 000000018000d2f0 f   libvcruntime:trnsctrl.obj
 0001:0000c41c       ?__FrameUnwindToEmptyState@@YAXPEA_KPEAU_xDISPATCHER_CONTEXT@@PEBU_s_FuncInfo@@@Z 000000018000d41c f   libvcruntime:trnsctrl.obj
 0001:0000c4b0       ?__SehTransFilter@@YAHPEAU_EXCEPTION_POINTERS@@PEAUEHExceptionRecord@@PEA_KPEAU_CONTEXT@@PEAU_xDISPATCHER_CONTEXT@@PEBU_s_FuncInfo@@PEAH@Z 000000018000d4b0 f   libvcruntime:trnsctrl.obj
 0001:0000c548       _CallSETranslator          000000018000d548 f   libvcruntime:trnsctrl.obj
 0001:0000c5a0       _CreateFrameInfo           000000018000d5a0 f   libvcruntime:trnsctrl.obj
 0001:0000c5dc       _FindAndUnlinkFrame        000000018000d5dc f   libvcruntime:trnsctrl.obj
 0001:0000c634       _GetImageBase              000000018000d634 f   libvcruntime:trnsctrl.obj
 0001:0000c648       _GetThrowImageBase         000000018000d648 f   libvcruntime:trnsctrl.obj
 0001:0000c65c       _IsExceptionObjectToBeDestroyed 000000018000d65c f   libvcruntime:trnsctrl.obj
 0001:0000c68c       _SetImageBase              000000018000d68c f   libvcruntime:trnsctrl.obj
 0001:0000c6a4       _SetThrowImageBase         000000018000d6a4 f   libvcruntime:trnsctrl.obj
 0001:0000c6bc       _UnwindNestedFrames        000000018000d6bc f   libvcruntime:trnsctrl.obj
 0001:0000c7e0       __CxxFrameHandler3         000000018000d7e0 f   libvcruntime:trnsctrl.obj
 0001:0000c870       memcmp                     000000018000d870 f   libvcruntime:memcmp.obj
 0001:0000c938       __vcrt_initialize_pure_virtual_call_handler 000000018000d938 f   libvcruntime:purevirt_data.obj
 0001:0000c95c       __vcrt_freefls             000000018000d95c f   libvcruntime:per_thread_data.obj
 0001:0000c97c       __vcrt_freeptd             000000018000d97c f   libvcruntime:per_thread_data.obj
 0001:0000c9cc       __vcrt_getptd              000000018000d9cc f   libvcruntime:per_thread_data.obj
 0001:0000c9e8       __vcrt_getptd_noexit       000000018000d9e8 f   libvcruntime:per_thread_data.obj
 0001:0000ca90       __vcrt_initialize_ptd      000000018000da90 f   libvcruntime:per_thread_data.obj
 0001:0000cad0       __vcrt_uninitialize_ptd    000000018000dad0 f   libvcruntime:per_thread_data.obj
 0001:0000caf4       __vcrt_initialize_locks    000000018000daf4 f   libvcruntime:locks.obj
 0001:0000cb3c       __vcrt_uninitialize_locks  000000018000db3c f   libvcruntime:locks.obj
 0001:0000cb90       _local_unwind              000000018000db90 f   libvcruntime:_jmpuwind_.obj
 0001:0000cbc0       _NLG_Notify                000000018000dbc0 f   libvcruntime:_jmpuwind_.obj
 0001:0000cbe0       __NLG_Dispatch2            000000018000dbe0 f   libvcruntime:_jmpuwind_.obj
 0001:0000cbf0       __NLG_Return2              000000018000dbf0 f   libvcruntime:_jmpuwind_.obj
 0001:0000cbf4       ?__GetCurrentState@@YAHPEA_KPEAU_xDISPATCHER_CONTEXT@@PEBU_s_FuncInfo@@@Z 000000018000dbf4 f   libvcruntime:ehstate.obj
 0001:0000cc1c       ?__GetUnwindTryBlock@@YAHPEA_KPEAU_xDISPATCHER_CONTEXT@@PEBU_s_FuncInfo@@@Z 000000018000dc1c f   libvcruntime:ehstate.obj
 0001:0000cc48       ?__SetState@@YAXPEA_KPEAU_xDISPATCHER_CONTEXT@@PEBU_s_FuncInfo@@H@Z 000000018000dc48 f   libvcruntime:ehstate.obj
 0001:0000cc54       ?__SetUnwindTryBlock@@YAXPEA_KPEAU_xDISPATCHER_CONTEXT@@PEBU_s_FuncInfo@@H@Z 000000018000dc54 f   libvcruntime:ehstate.obj
 0001:0000cc90       ?__StateFromControlPc@@YAHPEBU_s_FuncInfo@@PEAU_xDISPATCHER_CONTEXT@@@Z 000000018000dc90 f   libvcruntime:ehstate.obj
 0001:0000cc98       ?__StateFromIp@@YAHPEBU_s_FuncInfo@@PEAU_xDISPATCHER_CONTEXT@@_J@Z 000000018000dc98 f   libvcruntime:ehstate.obj
 0001:0000cd20       _CallSettingFrame          000000018000dd20 f   libvcruntime:handlers.obj
 0001:0000cd60       ??0_LocaleUpdate@@QEAA@QEAU__crt_locale_pointers@@@Z 000000018000dd60 f i libucrt:stricmp.obj
 0001:0000cdf0       __ascii_stricmp            000000018000ddf0 f   libucrt:stricmp.obj
 0001:0000ce2c       _stricmp                   000000018000de2c f   libucrt:stricmp.obj
 0001:0000ce74       _stricmp_l                 000000018000de74 f   libucrt:stricmp.obj
 0001:0000cf28       abort                      000000018000df28 f   libucrt:abort.obj
 0001:0000cf80       calloc                     000000018000df80 f   libucrt:calloc.obj
 0001:0000cf88       __acrt_call_reportfault    000000018000df88 f   libucrt:invalid_parameter.obj
 0001:0000d0e4       __acrt_initialize_invalid_parameter_handler 000000018000e0e4 f   libucrt:invalid_parameter.obj
 0001:0000d0ec       _invalid_parameter         000000018000e0ec f   libucrt:invalid_parameter.obj
 0001:0000d194       _invalid_parameter_noinfo  000000018000e194 f   libucrt:invalid_parameter.obj
 0001:0000d1b4       _invalid_parameter_noinfo_noreturn 000000018000e1b4 f   libucrt:invalid_parameter.obj
 0001:0000d1e4       _invoke_watson             000000018000e1e4 f   libucrt:invalid_parameter.obj
 0001:0000d22c       strcspn                    000000018000e22c f   libucrt:strcspn.obj
 0001:0000d474       ??$ensure_buffer_is_big_enough@D@formatting_buffer@__crt_stdio_output@@QEAA_N_K@Z 000000018000e474 f i libucrt:output.obj
 0001:0000d520       ??$is_wide_character_specifier@D@__crt_stdio_output@@YA_N_KDW4length_modifier@0@@Z 000000018000e520 f i libucrt:output.obj
 0001:0000d550       ??$type_case_integer_parse_into_buffer@I@?$output_processor@DV?$string_output_adapter@D@__crt_stdio_output@@V?$format_validation_base@DV?$string_output_adapter@D@__crt_stdio_output@@@2@@__crt_stdio_output@@AEAAXII_N@Z 000000018000e550 f i libucrt:output.obj
 0001:0000d5ec       ??$type_case_integer_parse_into_buffer@_K@?$output_processor@DV?$string_output_adapter@D@__crt_stdio_output@@V?$format_validation_base@DV?$string_output_adapter@D@__crt_stdio_output@@@2@@__crt_stdio_output@@AEAAX_KI_N@Z 000000018000e5ec f i libucrt:output.obj
 0001:0000d688       ??$write_multiple_characters@V?$string_output_adapter@D@__crt_stdio_output@@D@__crt_stdio_output@@YAXAEBV?$string_output_adapter@D@0@DHQEAH@Z 000000018000e688 f i libucrt:output.obj
 0001:0000d6e4       ??0?$output_processor@DV?$string_output_adapter@D@__crt_stdio_output@@V?$format_validation_base@DV?$string_output_adapter@D@__crt_stdio_output@@@2@@__crt_stdio_output@@QEAA@AEBV?$string_output_adapter@D@1@_KQEBDQEAU__crt_locale_pointers@@QEAD@Z 000000018000e6e4 f i libucrt:output.obj
 0001:0000d760       ?force_decimal_point@__crt_stdio_output@@YAXPEADQEAU__crt_locale_pointers@@@Z 000000018000e760 f i libucrt:output.obj
 0001:0000d7d0       ?parse_int_from_format_string@?$output_processor@DV?$string_output_adapter@D@__crt_stdio_output@@V?$format_validation_base@DV?$string_output_adapter@D@__crt_stdio_output@@@2@@__crt_stdio_output@@AEAA_NQEAH@Z 000000018000e7d0 f i libucrt:output.obj
 0001:0000d854       ?process@?$output_processor@DV?$string_output_adapter@D@__crt_stdio_output@@V?$format_validation_base@DV?$string_output_adapter@D@__crt_stdio_output@@@2@@__crt_stdio_output@@QEAAHXZ 000000018000e854 f i libucrt:output.obj
 0001:0000da68       ?state_case_normal@?$output_processor@DV?$string_output_adapter@D@__crt_stdio_output@@V?$format_validation_base@DV?$string_output_adapter@D@__crt_stdio_output@@@2@@__crt_stdio_output@@AEAA_NXZ 000000018000ea68 f i libucrt:output.obj
 0001:0000dadc       ?state_case_normal_tchar@?$output_processor@DV?$string_output_adapter@D@__crt_stdio_output@@V?$format_validation_base@DV?$string_output_adapter@D@__crt_stdio_output@@@2@@__crt_stdio_output@@AEAA_ND@Z 000000018000eadc f i libucrt:output.obj
 0001:0000db74       ?state_case_size@?$output_processor@DV?$string_output_adapter@D@__crt_stdio_output@@V?$format_validation_base@DV?$string_output_adapter@D@__crt_stdio_output@@@2@@__crt_stdio_output@@AEAA_NXZ 000000018000eb74 f i libucrt:output.obj
 0001:0000dcf0       ?state_case_type@?$output_processor@DV?$string_output_adapter@D@__crt_stdio_output@@V?$format_validation_base@DV?$string_output_adapter@D@__crt_stdio_output@@@2@@__crt_stdio_output@@AEAA_NXZ 000000018000ecf0 f i libucrt:output.obj
 0001:0000df6c       ?type_case_Z@?$output_processor@DV?$string_output_adapter@D@__crt_stdio_output@@V?$format_validation_base@DV?$string_output_adapter@D@__crt_stdio_output@@@2@@__crt_stdio_output@@AEAA_NXZ 000000018000ef6c f i libucrt:output.obj
 0001:0000dfec       ?type_case_a@?$output_processor@DV?$string_output_adapter@D@__crt_stdio_output@@V?$format_validation_base@DV?$string_output_adapter@D@__crt_stdio_output@@@2@@__crt_stdio_output@@AEAA_NXZ 000000018000efec f i libucrt:output.obj
 0001:0000e208       ?type_case_c_tchar@?$output_processor@DV?$string_output_adapter@D@__crt_stdio_output@@V?$format_validation_base@DV?$string_output_adapter@D@__crt_stdio_output@@@2@@__crt_stdio_output@@AEAA_ND@Z 000000018000f208 f i libucrt:output.obj
 0001:0000e2bc       ?type_case_integer@?$output_processor@DV?$string_output_adapter@D@__crt_stdio_output@@V?$format_validation_base@DV?$string_output_adapter@D@__crt_stdio_output@@@2@@__crt_stdio_output@@AEAA_NI_N@Z 000000018000f2bc f i libucrt:output.obj
 0001:0000e45c       ?type_case_n@?$output_processor@DV?$string_output_adapter@D@__crt_stdio_output@@V?$format_validation_base@DV?$string_output_adapter@D@__crt_stdio_output@@@2@@__crt_stdio_output@@AEAA_NXZ 000000018000f45c f i libucrt:output.obj
 0001:0000e538       ?type_case_s@?$output_processor@DV?$string_output_adapter@D@__crt_stdio_output@@V?$format_validation_base@DV?$string_output_adapter@D@__crt_stdio_output@@@2@@__crt_stdio_output@@AEAA_NXZ 000000018000f538 f i libucrt:output.obj
 0001:0000e5c8       ?write_stored_string_tchar@?$output_processor@DV?$string_output_adapter@D@__crt_stdio_output@@V?$format_validation_base@DV?$string_output_adapter@D@__crt_stdio_output@@@2@@__crt_stdio_output@@AEAA_ND@Z 000000018000f5c8 f i libucrt:output.obj
 0001:0000e6a0       ?write_string@?$string_output_adapter@D@__crt_stdio_output@@QEBAXQEBDHQEAH1@Z 000000018000f6a0 f i libucrt:output.obj
 0001:0000e75c       __stdio_common_vsprintf_s  000000018000f75c f   libucrt:output.obj
 0001:0000e7c0       localeconv                 000000018000f7c0 f   libucrt:localeconv.obj
 0001:0000e7f4       free                       000000018000f7f4 f   libucrt:free.obj
 0001:0000e7fc       frexp                      000000018000f7fc f   libucrt:frexp.obj
 0001:0000e8f4       round                      000000018000f8f4 f   libucrt:round.obj
 0001:0000e95c       __acrt_initialize_new_handler 000000018000f95c f   libucrt:new_handler.obj
 0001:0000e964       _callnewh                  000000018000f964 f   libucrt:new_handler.obj
 0001:0000e9a4       _query_new_handler         000000018000f9a4 f   libucrt:new_handler.obj
 0001:0000e9d8       malloc                     000000018000f9d8 f   libucrt:malloc.obj
 0001:0000e9e0       _seh_filter_dll            000000018000f9e0 f   libucrt:exception_filter.obj
 0001:0000e9f4       _seh_filter_exe            000000018000f9f4 f   libucrt:exception_filter.obj
 0001:0000edb4       __acrt_initialize_thread_local_exit_callback 000000018000fdb4 f   libucrt:exit.obj
 0001:0000edbc       _cexit                     000000018000fdbc f   libucrt:exit.obj
 0001:0000edcc       _exit                      000000018000fdcc f   libucrt:exit.obj
 0001:0000edd8       _is_c_termination_complete 000000018000fdd8 f   libucrt:exit.obj
 0001:0000efc4       __dcrt_uninitialize_environments_nolock 000000018000ffc4 f   libucrt:environment_initialization.obj
 0001:0000effc       _initialize_narrow_environment 000000018000fffc f   libucrt:environment_initialization.obj
 0001:0000f004       ??$?RV<lambda_b8c45f8f788dd370798f47cfe8ac3a86>@@AEAV<lambda_4e60a939b0d047cfe11ddc22648dfba9>@@V<lambda_332c3edc96d0294ec56c57d38c1cdfd5>@@@?$__crt_seh_guarded_call@H@@QEAAH$$QEAV<lambda_b8c45f8f788dd370798f47cfe8ac3a86>@@AEAV<lambda_4e60a939b0d047cfe11ddc22648dfba9>@@$$QEAV<lambda_332c3edc96d0294ec56c57d38c1cdfd5>@@@Z 0000000180010004 f i libucrt:onexit.obj
 0001:0000f040       ??$?RV<lambda_e24bbb7b643b32fcea6fa61b31d4c984>@@AEAV<lambda_275893d493268fdec8709772e3fcec0e>@@V<lambda_9d71df4d7cf3f480f8d633942495c3b0>@@@?$__crt_seh_guarded_call@H@@QEAAH$$QEAV<lambda_e24bbb7b643b32fcea6fa61b31d4c984>@@AEAV<lambda_275893d493268fdec8709772e3fcec0e>@@$$QEAV<lambda_9d71df4d7cf3f480f8d633942495c3b0>@@@Z 0000000180010040 f i libucrt:onexit.obj
 0001:0000f3bc       _crt_atexit                00000001800103bc f   libucrt:onexit.obj
 0001:0000f3cc       _execute_onexit_table      00000001800103cc f   libucrt:onexit.obj
 0001:0000f408       _initialize_onexit_table   0000000180010408 f   libucrt:onexit.obj
 0001:0000f448       _register_onexit_function  0000000180010448 f   libucrt:onexit.obj
 0001:0000f4c8       ?do_always_noconv@?$codecvt@DDU_Mbstatet@@@std@@MEBA_NXZ 00000001800104c8 f   libcpmt:cout.obj
 0001:0000f4c8       __acrt_uninitialize_command_line 00000001800104c8 f   libucrt:argv_data.obj
 0001:0000f5c8       __acrt_initialize          00000001800105c8 f   libucrt:initialization.obj
 0001:0000f5dc       __acrt_thread_attach       00000001800105dc f   libucrt:initialization.obj
 0001:0000f5f0       __acrt_thread_detach       00000001800105f0 f   libucrt:initialization.obj
 0001:0000f600       __acrt_uninitialize        0000000180010600 f   libucrt:initialization.obj
 0001:0000f614       __acrt_uninitialize_critical 0000000180010614 f   libucrt:initialization.obj
 0001:0000f624       _initterm                  0000000180010624 f   libucrt:initterm.obj
 0001:0000f69c       _initterm_e                000000018001069c f   libucrt:initterm.obj
 0001:0000f6e8       terminate                  00000001800106e8 f   libucrt:terminate.obj
 0001:0000f710       __acrt_initialize_locks    0000000180010710 f   libucrt:locks.obj
 0001:0000f758       __acrt_lock                0000000180010758 f   libucrt:locks.obj
 0001:0000f774       __acrt_uninitialize_locks  0000000180010774 f   libucrt:locks.obj
 0001:0000f7ac       __acrt_unlock              00000001800107ac f   libucrt:locks.obj
 0001:0000f7c8       _lock_locales              00000001800107c8 f   libucrt:locks.obj
 0001:0000f7d8       _unlock_locales            00000001800107d8 f   libucrt:locks.obj
 0001:0000f7e8       __acrt_errno_from_os_error 00000001800107e8 f   libucrt:errno.obj
 0001:0000f830       __acrt_errno_map_os_error  0000000180010830 f   libucrt:errno.obj
 0001:0000f880       __doserrno                 0000000180010880 f   libucrt:errno.obj
 0001:0000f8a0       _errno                     00000001800108a0 f   libucrt:errno.obj
 0001:0000f8c0       __acrt_initialize_stdio    00000001800108c0 f   libucrt:_file.obj
 0001:0000f9e0       __acrt_iob_func            00000001800109e0 f   libucrt:_file.obj
 0001:0000f9f4       __acrt_uninitialize_stdio  00000001800109f4 f   libucrt:_file.obj
 0001:0000fa50       _get_stream_buffer_pointers 0000000180010a50 f   libucrt:_file.obj
 0001:0000fa98       _lock_file                 0000000180010a98 f   libucrt:_file.obj
 0001:0000faa4       _unlock_file               0000000180010aa4 f   libucrt:_file.obj
 0001:0000fab0       _fclose_nolock             0000000180010ab0 f   libucrt:fclose.obj
 0001:0000fb34       fclose                     0000000180010b34 f   libucrt:fclose.obj
 0001:0000fba0       __acrt_stdio_flush_nolock  0000000180010ba0 f   libucrt:fflush.obj
 0001:0000fc18       _fflush_nolock             0000000180010c18 f   libucrt:fflush.obj
 0001:0000fc64       _flushall                  0000000180010c64 f   libucrt:fflush.obj
 0001:0000fd54       fflush                     0000000180010d54 f   libucrt:fflush.obj
 0001:0000fd98       _fgetc_nolock              0000000180010d98 f   libucrt:fgetc.obj
 0001:0000fddc       fgetc                      0000000180010ddc f   libucrt:fgetc.obj
 0001:0000fee0       fgetpos                    0000000180010ee0 f   libucrt:fgetpos.obj
 0001:0000ff2c       fputc                      0000000180010f2c f   libucrt:fputc.obj
 0001:0001004c       fsetpos                    000000018001104c f   libucrt:fsetpos.obj
 0001:000102f8       _fseeki64                  00000001800112f8 f   libucrt:fseek.obj
 0001:00010300       ??$?RV<lambda_5d4c3fee44080f75d5d9762853974fe0>@@AEAV<lambda_532e024f4337e6fc7ad266c2bef9f4ed>@@V<lambda_c87bdc10097eb2402edb8ba9bdf0697b>@@@?$__crt_seh_guarded_call@_K@@QEAA_K$$QEAV<lambda_5d4c3fee44080f75d5d9762853974fe0>@@AEAV<lambda_532e024f4337e6fc7ad266c2bef9f4ed>@@$$QEAV<lambda_c87bdc10097eb2402edb8ba9bdf0697b>@@@Z 0000000180011300 f i libucrt:fwrite.obj
 0001:000103a4       _fwrite_nolock             00000001800113a4 f   libucrt:fwrite.obj
 0001:00010540       fwrite                     0000000180011540 f   libucrt:fwrite.obj
 0001:000105c4       ??$?RV<lambda_7a5ef57ff966f610505f1d28a3d40618>@@AEAV<lambda_b721fa326cdb32351d23dfa67958c160>@@V<lambda_5e0fb27672408a07956fe59e48ccb2aa>@@@?$__crt_seh_guarded_call@H@@QEAAH$$QEAV<lambda_7a5ef57ff966f610505f1d28a3d40618>@@AEAV<lambda_b721fa326cdb32351d23dfa67958c160>@@$$QEAV<lambda_5e0fb27672408a07956fe59e48ccb2aa>@@@Z 00000001800115c4 f i libucrt:setvbuf.obj
 0001:000106f4       setvbuf                    00000001800116f4 f   libucrt:setvbuf.obj
 0001:00010794       _ungetc_nolock             0000000180011794 f   libucrt:ungetc.obj
 0001:000108a4       ungetc                     00000001800118a4 f   libucrt:ungetc.obj
 0001:000109ec       setlocale                  00000001800119ec f   libucrt:setlocale.obj
 0001:00010bb8       _calloc_base               0000000180011bb8 f   libucrt:calloc_base.obj
 0001:00010c30       __pctype_func              0000000180011c30 f   libucrt:ctype.obj
 0001:00010c60       isdigit                    0000000180011c60 f i libucrt:_ctype.obj
 0001:00010cd4       islower                    0000000180011cd4 f i libucrt:_ctype.obj
 0001:00010d48       isupper                    0000000180011d48 f i libucrt:_ctype.obj
 0001:00010dbc       _wcsdup                    0000000180011dbc f   libucrt:wcsdup.obj
 0001:00010e40       ___lc_codepage_func        0000000180011e40 f   libucrt:initctype.obj
 0001:00010e70       ___lc_locale_name_func     0000000180011e70 f   libucrt:initctype.obj
 0001:00010ea4       ___mb_cur_max_func         0000000180011ea4 f   libucrt:initctype.obj
 0001:00010ed4       __acrt_locale_initialize_ctype 0000000180011ed4 f   libucrt:initctype.obj
 0001:00011520       _ismbblead                 0000000180012520 f   libucrt:ismbbyte.obj
 0001:00011534       _malloc_base               0000000180012534 f   libucrt:malloc_base.obj
 0001:00011594       _realloc_base              0000000180012594 f   libucrt:realloc_base.obj
 0001:00011618       __strncnt                  0000000180012618 f   libucrt:strncnt.obj
 0001:00011630       _free_base                 0000000180012630 f   libucrt:free_base.obj
 0001:000116c0       _tolower_l                 00000001800126c0 f   libucrt:tolower_toupper.obj
 0001:00011800       tolower                    0000000180012800 f   libucrt:tolower_toupper.obj
 0001:0001182c       wcscpy_s                   000000018001282c f   libucrt:wcscpy_s.obj
 0001:00011894       strnlen                    0000000180012894 f   libucrt:strnlen.obj
 0001:000119f0       wcsnlen                    00000001800129f0 f   libucrt:strnlen.obj
 0001:00011be0       strcpy_s                   0000000180012be0 f   libucrt:strcpy_s.obj
 0001:00011c40       ??$is_overflow_condition@K@__crt_strtox@@YA_NIK@Z 0000000180012c40 f i libucrt:atox.obj
 0001:00011c6c       ??$parse_integer@KV?$c_string_character_source@D@__crt_strtox@@@__crt_strtox@@YAKQEAU__crt_locale_pointers@@V?$c_string_character_source@D@0@H_N@Z 0000000180012c6c f i libucrt:atox.obj
 0001:00011f80       ??$parse_integer@KV?$c_string_character_source@_W@__crt_strtox@@@__crt_strtox@@YAKQEAU__crt_locale_pointers@@V?$c_string_character_source@_W@0@H_N@Z 0000000180012f80 f i libucrt:atox.obj
 0001:00012654       _wtol                      0000000180013654 f   libucrt:atox.obj
 0001:00012680       ??$?RV<lambda_46352004c1216016012b18bd6f87e700>@@AEAV<lambda_3bd07e1a1191394380780325891bf33f>@@V<lambda_334532d3f185bcaa59b5be82d7d22bff>@@@?$__crt_seh_guarded_call@X@@QEAAX$$QEAV<lambda_46352004c1216016012b18bd6f87e700>@@AEAV<lambda_3bd07e1a1191394380780325891bf33f>@@$$QEAV<lambda_334532d3f185bcaa59b5be82d7d22bff>@@@Z 0000000180013680 f i libucrt:per_thread_data.obj
 0001:000126e0       ??$?RV<lambda_5e887d1dcbef67a5eb4283622ba103bf>@@AEAV<lambda_4466841279450cc726390878d4a41900>@@V<lambda_341c25c0346d94847f1f3c463c57e077>@@@?$__crt_seh_guarded_call@X@@QEAAX$$QEAV<lambda_5e887d1dcbef67a5eb4283622ba103bf>@@AEAV<lambda_4466841279450cc726390878d4a41900>@@$$QEAV<lambda_341c25c0346d94847f1f3c463c57e077>@@@Z 00000001800136e0 f i libucrt:per_thread_data.obj
 0001:00012728       ??$?RV<lambda_72d1df2b273a38828b1ce30cbf4cdab5>@@AEAV<lambda_876a65b173b8412d3a47c70a915b0cf4>@@V<lambda_41932305e351933ebe8f8be3ed8bb5dc>@@@?$__crt_seh_guarded_call@X@@QEAAX$$QEAV<lambda_72d1df2b273a38828b1ce30cbf4cdab5>@@AEAV<lambda_876a65b173b8412d3a47c70a915b0cf4>@@$$QEAV<lambda_41932305e351933ebe8f8be3ed8bb5dc>@@@Z 0000000180013728 f i libucrt:per_thread_data.obj
 0001:00012768       ??$?RV<lambda_fb3a7dec4e47f37f22dae91bb15c9095>@@AEAV<lambda_698284760c8add0bfb0756c19673e34b>@@V<lambda_dfb8eca1e75fef3034a8fb18dd509707>@@@?$__crt_seh_guarded_call@X@@QEAAX$$QEAV<lambda_fb3a7dec4e47f37f22dae91bb15c9095>@@AEAV<lambda_698284760c8add0bfb0756c19673e34b>@@$$QEAV<lambda_dfb8eca1e75fef3034a8fb18dd509707>@@@Z 0000000180013768 f i libucrt:per_thread_data.obj
 0001:000129f8       __acrt_freeptd             00000001800139f8 f   libucrt:per_thread_data.obj
 0001:00012a3c       __acrt_getptd              0000000180013a3c f   libucrt:per_thread_data.obj
 0001:00012ad0       __acrt_getptd_noexit       0000000180013ad0 f   libucrt:per_thread_data.obj
 0001:00012b70       __acrt_initialize_ptd      0000000180013b70 f   libucrt:per_thread_data.obj
 0001:00012bac       __acrt_uninitialize_ptd    0000000180013bac f   libucrt:per_thread_data.obj
 0001:00012bd0       __acrt_update_locale_info  0000000180013bd0 f   libucrt:locale_update.obj
 0001:00012c04       __acrt_update_multibyte_info 0000000180013c04 f   libucrt:locale_update.obj
 0001:00012c38       ??$?RV<lambda_5df02c53a8f32f81fd64e5bbb78039f1>@@AEAV<lambda_2af78c5f5901b1372d98f9ab3177dfa6>@@AEAV<lambda_f51fe5fd7c79a33db34fc9310f277369>@@@?$__crt_seh_guarded_call@X@@QEAAX$$QEAV<lambda_5df02c53a8f32f81fd64e5bbb78039f1>@@AEAV<lambda_2af78c5f5901b1372d98f9ab3177dfa6>@@AEAV<lambda_f51fe5fd7c79a33db34fc9310f277369>@@@Z 0000000180013c38 f i libucrt:wsetlocale.obj
 0001:00012c64       ??$?RV<lambda_d67e8342c384adda8f857579ab50b2ae>@@AEAV<lambda_30712929f77e709619002f448b6a9510>@@V<lambda_4525336fd7e478d965fb7ca7a337cad8>@@@?$__crt_seh_guarded_call@X@@QEAAX$$QEAV<lambda_d67e8342c384adda8f857579ab50b2ae>@@AEAV<lambda_30712929f77e709619002f448b6a9510>@@$$QEAV<lambda_4525336fd7e478d965fb7ca7a337cad8>@@@Z 0000000180013c64 f i libucrt:wsetlocale.obj
 0001:00012e30       __acrt_copy_locale_name    0000000180013e30 f   libucrt:wsetlocale.obj
 0001:00012eb4       __acrt_set_locale_changed  0000000180013eb4 f   libucrt:wsetlocale.obj
 0001:00012ec0       __acrt_uninitialize_locale 0000000180013ec0 f   libucrt:wsetlocale.obj
 0001:00012f08       __lc_lctowcs               0000000180013f08 f   libucrt:wsetlocale.obj
 0001:00012fac       __lc_wcstolc               0000000180013fac f   libucrt:wsetlocale.obj
 0001:00013224       _expandlocale              0000000180014224 f   libucrt:wsetlocale.obj
 0001:00013620       _wcscats                   0000000180014620 f   libucrt:wsetlocale.obj
 0001:00013688       _wsetlocale                0000000180014688 f   libucrt:wsetlocale.obj
 0001:00013ed4       ??$?RV<lambda_c36588078e9f5dfd39652860aa6b3aaf>@@AEAV<lambda_ec61778202f4f5fc7e7711acc23c3bca>@@V<lambda_dc9d2797ccde5d239b4a0efae8ebd7db>@@@?$__crt_seh_guarded_call@P6AXH@Z@@QEAAP6AXH@Z$$QEAV<lambda_c36588078e9f5dfd39652860aa6b3aaf>@@AEAV<lambda_ec61778202f4f5fc7e7711acc23c3bca>@@$$QEAV<lambda_dc9d2797ccde5d239b4a0efae8ebd7db>@@@Z 0000000180014ed4 f i libucrt:signal.obj
 0001:00013f1c       __acrt_get_sigabrt_handler 0000000180014f1c f   libucrt:signal.obj
 0001:00013f4c       __acrt_initialize_signal_handlers 0000000180014f4c f   libucrt:signal.obj
 0001:00013f6c       raise                      0000000180014f6c f   libucrt:signal.obj
 0001:00014208       ??$make_c_string_character_source@DPEAPEAD@__crt_strtox@@YA?AV?$c_string_character_source@D@0@QEBDQEAPEAD@Z 0000000180015208 f i libucrt:strtox.obj
 0001:00014208       ??$make_c_string_character_source@_W$$T@__crt_strtox@@YA?AV?$c_string_character_source@_W@0@QEB_W$$T@Z 0000000180015208 f i libucrt:atox.obj
 0001:0001421c       strtol                     000000018001521c f   libucrt:strtox.obj
 0001:0001424c       _mbtowc_l                  000000018001524c f   libucrt:mbtowc.obj
 0001:00014394       mbtowc                     0000000180015394 f   libucrt:mbtowc.obj
 0001:0001439c       _wctomb_s_l                000000018001539c f   libucrt:wctomb.obj
 0001:00014520       wctomb_s                   0000000180015520 f   libucrt:wctomb.obj
 0001:00014534       ?__acrt_fp_classify@@YA?AW4__acrt_fp_class@@AEBN@Z 0000000180015534 f i libucrt:cvt.obj
 0001:00014f6c       __acrt_fp_format           0000000180015f6c f   libucrt:cvt.obj
 0001:000151b0       _fileno                    00000001800161b0 f   libucrt:fileno.obj
 0001:000151d8       _get_printf_count_output   00000001800161d8 f   libucrt:printf_count_output.obj
 0001:000151f0       __acrt_stdio_begin_temporary_buffering_nolock 00000001800161f0 f   libucrt:_sftbuf.obj
 0001:000152c0       __acrt_stdio_end_temporary_buffering_nolock 00000001800162c0 f   libucrt:_sftbuf.obj
 0001:000154e4       __acrt_initialize_lowio    00000001800164e4 f   libucrt:ioinit.obj
 0001:00015520       __acrt_uninitialize_lowio  0000000180016520 f   libucrt:ioinit.obj
 0001:00015560       _dsign                     0000000180016560 f   libucrt:nan.obj
 0001:00015578       _errcode                   0000000180016578 f   libucrt:fpexcept.obj
 0001:000155bc       _except1                   00000001800165bc f   libucrt:fpexcept.obj
 0001:000156b0       _handle_exc                00000001800166b0 f   libucrt:fpexcept.obj
 0001:00015918       _raise_exc                 0000000180016918 f   libucrt:fpexcept.obj
 0001:00015940       _raise_exc_ex              0000000180016940 f   libucrt:fpexcept.obj
 0001:00015c48       _set_errno_from_matherr    0000000180016c48 f   libucrt:fpexcept.obj
 0001:00015c78       _umatherr                  0000000180016c78 f   libucrt:fpexcept.obj
 0001:00015d4c       _decomp                    0000000180016d4c f   libucrt:util.obj
 0001:00015e80       _sptype                    0000000180016e80 f   libucrt:util.obj
 0001:00015ef4       _clrfp                     0000000180016ef4 f   libucrt:fpctrl.obj
 0001:00015f14       _ctrlfp                    0000000180016f14 f   libucrt:fpctrl.obj
 0001:00015f90       _set_statfp                0000000180016f90 f   libucrt:fpctrl.obj
 0001:00015fb0       _statfp                    0000000180016fb0 f   libucrt:fpctrl.obj
 0001:00015fc4       _d_int                     0000000180016fc4 f   libucrt:_test.obj
 0001:00016120       ??$?RV<lambda_630b2aca97f6d20d5b5ea6529ea6b6af>@@AEAV<lambda_af91936f1d075d609f72d9d8cba980af>@@V<lambda_e82fa975f615b5c7c7b0e4d178fdae67>@@@?$__crt_seh_guarded_call@H@@QEAAH$$QEAV<lambda_630b2aca97f6d20d5b5ea6529ea6b6af>@@AEAV<lambda_af91936f1d075d609f72d9d8cba980af>@@$$QEAV<lambda_e82fa975f615b5c7c7b0e4d178fdae67>@@@Z 0000000180017120 f i libucrt:winapi_thunks.obj
 0001:00016358       __acrt_EnumSystemLocalesEx 0000000180017358 f   libucrt:winapi_thunks.obj
 0001:00016400       __acrt_FlsAlloc            0000000180017400 f   libucrt:winapi_thunks.obj
 0001:00016458       __acrt_FlsFree             0000000180017458 f   libucrt:winapi_thunks.obj
 0001:000164b0       __acrt_FlsGetValue         00000001800174b0 f   libucrt:winapi_thunks.obj
 0001:00016508       __acrt_FlsSetValue         0000000180017508 f   libucrt:winapi_thunks.obj
 0001:00016570       __acrt_GetLocaleInfoEx     0000000180017570 f   libucrt:winapi_thunks.obj
 0001:00016608       __acrt_GetUserDefaultLocaleName 0000000180017608 f   libucrt:winapi_thunks.obj
 0001:0001667c       __acrt_InitializeCriticalSectionEx 000000018001767c f   libucrt:winapi_thunks.obj
 0001:000166f4       __acrt_IsValidLocaleName   00000001800176f4 f   libucrt:winapi_thunks.obj
 0001:0001675c       __acrt_LCIDToLocaleName    000000018001775c f   libucrt:winapi_thunks.obj
 0001:000167e8       __acrt_LCMapStringEx       00000001800177e8 f   libucrt:winapi_thunks.obj
 0001:000168d8       __acrt_LocaleNameToLCID    00000001800178d8 f   libucrt:winapi_thunks.obj
 0001:00016940       __acrt_can_use_vista_locale_apis 0000000180017940 f   libucrt:winapi_thunks.obj
 0001:00016970       __acrt_initialize_winapi_thunks 0000000180017970 f   libucrt:winapi_thunks.obj
 0001:000169a8       __acrt_is_packaged_app     00000001800179a8 f   libucrt:winapi_thunks.obj
 0001:00016a30       __acrt_uninitialize_winapi_thunks 0000000180017a30 f   libucrt:winapi_thunks.obj
 0001:00016a74       ??$?RV<lambda_99476a1ad63dd22509b5d3e65b0ffc95>@@AEAV<lambda_ad1ced32f4ac17aa236e5ef05d6b3b7c>@@V<lambda_f7424dd8d45958661754dc4f2697e9c3>@@@?$__crt_seh_guarded_call@X@@QEAAX$$QEAV<lambda_99476a1ad63dd22509b5d3e65b0ffc95>@@AEAV<lambda_ad1ced32f4ac17aa236e5ef05d6b3b7c>@@$$QEAV<lambda_f7424dd8d45958661754dc4f2697e9c3>@@@Z 0000000180017a74 f i libucrt:mbctype.obj
 0001:00017170       __acrt_initialize_multibyte 0000000180018170 f   libucrt:mbctype.obj
 0001:00017198       __acrt_update_thread_multibyte_data 0000000180018198 f   libucrt:mbctype.obj
 0001:00017258       _setmbcp_nolock            0000000180018258 f   libucrt:mbctype.obj
 0001:00017500       __dcrt_get_narrow_environment_from_os 0000000180018500 f   libucrt:get_environment_from_os.obj
 0001:00017604       _recalloc                  0000000180018604 f   libucrt:recalloc.obj
 0001:0001760c       _recalloc_base             000000018001860c f   libucrt:recalloc.obj
 0001:000176a4       __acrt_initialize_heap     00000001800186a4 f   libucrt:heap_handle.obj
 0001:000176c0       __acrt_uninitialize_heap   00000001800186c0 f   libucrt:heap_handle.obj
 0001:000176cc       __acrt_initialize_command_line 00000001800186cc f   libucrt:argv_data.obj
 0001:000176f4       __acrt_execute_initializers 00000001800186f4 f   libucrt:shared_initialization.obj
 0001:00017788       __acrt_execute_uninitializers 0000000180018788 f   libucrt:shared_initialization.obj
 0001:000177d8       __acrt_has_user_matherr    00000001800187d8 f   libucrt:matherr.obj
 0001:000177f8       __acrt_initialize_user_matherr 00000001800187f8 f   libucrt:matherr.obj
 0001:00017800       __acrt_invoke_user_matherr 0000000180018800 f   libucrt:matherr.obj
 0001:00017848       _fcloseall                 0000000180018848 f   libucrt:closeall.obj
 0001:000178fc       __acrt_stdio_free_buffer_nolock 00000001800188fc f   libucrt:_freebuf.obj
 0001:0001793c       ??$?RV<lambda_bfedae4ebbf01fab1bb6dcc6a9e276e0>@@AEAV<lambda_2fe9b910cf3cbf4a0ab98a02ba45b3ec>@@V<lambda_237c231691f317818eb88cc1d5d642d6>@@@?$__crt_seh_guarded_call@H@@QEAAH$$QEAV<lambda_bfedae4ebbf01fab1bb6dcc6a9e276e0>@@AEAV<lambda_2fe9b910cf3cbf4a0ab98a02ba45b3ec>@@$$QEAV<lambda_237c231691f317818eb88cc1d5d642d6>@@@Z 000000018001893c f i libucrt:close.obj
 0001:000179b0       _close                     00000001800189b0 f   libucrt:close.obj
 0001:00017a54       _close_nolock              0000000180018a54 f   libucrt:close.obj
 0001:00017b10       ?__acrt_stdio_free_stream@@YAXV__crt_stdio_stream@@@Z 0000000180018b10 f   libucrt:stream.obj
 0001:00017b54       ??$?RV<lambda_b521505b218e5242e90febf6bfebc422>@@AEAV<lambda_6978c1fb23f02e42e1d9e99668cc68aa>@@V<lambda_314360699dd331753a4119843814e9a7>@@@?$__crt_seh_guarded_call@H@@QEAAH$$QEAV<lambda_b521505b218e5242e90febf6bfebc422>@@AEAV<lambda_6978c1fb23f02e42e1d9e99668cc68aa>@@$$QEAV<lambda_314360699dd331753a4119843814e9a7>@@@Z 0000000180018b54 f i libucrt:commit.obj
 0001:00017be0       _commit                    0000000180018be0 f   libucrt:commit.obj
 0001:00018214       _write                     0000000180019214 f   libucrt:write.obj
 0001:00018300       _write_nolock              0000000180019300 f   libucrt:write.obj
 0001:0001878c       __acrt_stdio_refill_and_read_narrow_nolock 000000018001978c f   libucrt:_filbuf.obj
 0001:00018c50       _ftelli64                  0000000180019c50 f   libucrt:ftell.obj
 0001:00018c58       _ftelli64_nolock           0000000180019c58 f   libucrt:ftell.obj
 0001:00018d64       __acrt_stdio_flush_and_write_narrow_nolock 0000000180019d64 f   libucrt:_flsbuf.obj
 0001:00018fd8       _lseeki64                  0000000180019fd8 f   libucrt:lseek.obj
 0001:00018fe0       _lseeki64_nolock           0000000180019fe0 f   libucrt:lseek.obj
 0001:00018fe8       __acrt_stdio_allocate_buffer_nolock 0000000180019fe8 f   libucrt:_getbuf.obj
 0001:00019228       _mbstowcs_s_l              000000018001a228 f   libucrt:mbstowcs.obj
 0001:00019358       mbstowcs_s                 000000018001a358 f   libucrt:mbstowcs.obj
 0001:000196ac       _wcstombs_s_l              000000018001a6ac f   libucrt:wcstombs.obj
 0001:00019798       _query_new_mode            000000018001a798 f   libucrt:new_mode.obj
 0001:000197a0       _isctype_l                 000000018001a7a0 f   libucrt:isctype.obj
 0001:00019a50       __acrt_GetLocaleInfoA      000000018001aa50 f   libucrt:getlocaleinfoa.obj
 0001:00019c18       __acrt_GetStringTypeA      000000018001ac18 f   libucrt:getstringtypea.obj
 0001:0001a128       __acrt_LCMapStringA        000000018001b128 f   libucrt:lcmapstringa.obj
 0001:0001a1c0       _wcsicmp                   000000018001b1c0 f   libucrt:wcsicmp.obj
 0001:0001a248       _wcsicmp_l                 000000018001b248 f   libucrt:wcsicmp.obj
 0001:0001a338       __acrt_initialize_timeset  000000018001b338 f   libucrt:timeset.obj
 0001:0001a368       _isleadbyte_l              000000018001b368 f i libucrt:_wctype.obj
 0001:0001a4cc       _handle_error              000000018001b4cc f   libucrt:libm_error.obj
 0001:0001a5f4       _handle_nan                000000018001b5f4 f   libucrt:libm_error.obj
 0001:0001a610       iswctype                   000000018001b610 f   libucrt:iswctype.obj
 0001:0001a680       __acrt_add_locale_ref      000000018001b680 f   libucrt:locale_refcounting.obj
 0001:0001a70c       __acrt_free_locale         000000018001b70c f   libucrt:locale_refcounting.obj
 0001:0001a884       __acrt_locale_add_lc_time_reference 000000018001b884 f   libucrt:locale_refcounting.obj
 0001:0001a8ac       __acrt_locale_free_lc_time_if_unreferenced 000000018001b8ac f   libucrt:locale_refcounting.obj
 0001:0001a8e4       __acrt_locale_release_lc_time_reference 000000018001b8e4 f   libucrt:locale_refcounting.obj
 0001:0001a90c       __acrt_release_locale_ref  000000018001b90c f   libucrt:locale_refcounting.obj
 0001:0001a9b4       __acrt_update_thread_locale_data 000000018001b9b4 f   libucrt:locale_refcounting.obj
 0001:0001aa24       _updatetlocinfoEx_nolock   000000018001ba24 f   libucrt:locale_refcounting.obj
 0001:0001aa8c       __acrt_locale_free_monetary 000000018001ba8c f   libucrt:initmon.obj
 0001:0001ab98       __acrt_locale_initialize_monetary 000000018001bb98 f   libucrt:initmon.obj
 0001:0001b0d0       __acrt_locale_free_numeric 000000018001c0d0 f   libucrt:initnum.obj
 0001:0001b13c       __acrt_locale_initialize_numeric 000000018001c13c f   libucrt:initnum.obj
 0001:0001b7c0       __acrt_locale_free_time    000000018001c7c0 f   libucrt:inittime.obj
 0001:0001b8c8       __acrt_locale_initialize_time 000000018001c8c8 f   libucrt:inittime.obj
 0001:0001b95c       wcscat_s                   000000018001c95c f   libucrt:wcscat_s.obj
 0001:0001b9dc       wcsncpy_s                  000000018001c9dc f   libucrt:wcsncpy_s.obj
 0001:0001bac0       wcscspn                    000000018001cac0 f   libucrt:wcscspn.obj
 0001:0001bb00       wcsncmp                    000000018001cb00 f   libucrt:wcsncmp.obj
 0001:0001bb2c       wcspbrk                    000000018001cb2c f   libucrt:wcspbrk.obj
 0001:0001c3d0       __acrt_get_qualified_locale 000000018001d3d0 f   libucrt:get_qualified_locale.obj
 0001:0001cdbc       __acrt_get_qualified_locale_downlevel 000000018001ddbc f   libucrt:getqloc_downlevel.obj
 0001:0001d04c       __acrt_fp_strflt_to_string 000000018001e04c f   libucrt:_fptostr.obj
 0001:0001d110       ?divide@__crt_strtox@@YA_KAEAUbig_integer@1@AEBU21@@Z 000000018001e110 f i libucrt:cfout.obj
 0001:0001d5e0       __acrt_fltout              000000018001e5e0 f   libucrt:cfout.obj
 0001:0001e9d4       _isatty                    000000018001f9d4 f   libucrt:isatty.obj
 0001:0001ea34       __acrt_lowio_create_handle_array 000000018001fa34 f   libucrt:osfinfo.obj
 0001:0001eacc       __acrt_lowio_destroy_handle_array 000000018001facc f   libucrt:osfinfo.obj
 0001:0001eb1c       __acrt_lowio_ensure_fh_exists 000000018001fb1c f   libucrt:osfinfo.obj
 0001:0001ebd4       __acrt_lowio_lock_fh       000000018001fbd4 f   libucrt:osfinfo.obj
 0001:0001ebf8       __acrt_lowio_unlock_fh     000000018001fbf8 f   libucrt:osfinfo.obj
 0001:0001ec1c       _free_osfhnd               000000018001fc1c f   libucrt:osfinfo.obj
 0001:0001ecd8       _get_osfhandle             000000018001fcd8 f   libucrt:osfinfo.obj
 0001:0001ed60       _get_fpsr                  000000018001fd60 f   libucrt:fpsr.obj
 0001:0001ed70       _set_fpsr                  000000018001fd70 f   libucrt:fpsr.obj
 0001:0001ed7a       _fclrf                     000000018001fd7a f   libucrt:fpsr.obj
 0001:0001ed8e       _frnd                      000000018001fd8e f   libucrt:fpsr.obj
 0001:0001edb0       _getfpcontrolword          000000018001fdb0 f   libucrt:_fenvutils.obj
 0001:0001edc8       _getfpstatusword           000000018001fdc8 f   libucrt:_fenvutils.obj
 0001:0001eddc       _setfpcontrolword          000000018001fddc f   libucrt:_fenvutils.obj
 0001:0001ede8       _setfpstatusword           000000018001fde8 f   libucrt:_fenvutils.obj
 0001:0001ef00       __acrt_DownlevelLCIDToLocaleName 000000018001ff00 f   libucrt:lcidtoname_downlevel.obj
 0001:0001efe4       __acrt_DownlevelLocaleNameToLCID 000000018001ffe4 f   libucrt:lcidtoname_downlevel.obj
 0001:0001f030       _msize                     0000000180020030 f   libucrt:msize.obj
 0001:0001f06c       _putwch_nolock             000000018002006c f   libucrt:putwch.obj
 0001:0001f5f8       _read                      00000001800205f8 f   libucrt:read.obj
 0001:0001f710       _read_nolock               0000000180020710 f   libucrt:read.obj
 0001:0001fb78       strncpy_s                  0000000180020b78 f   libucrt:strncpy_s.obj
 0001:0001fc4c       _towlower_l                0000000180020c4c f   libucrt:towlower.obj
 0001:0001fe38       _itow_s                    0000000180020e38 f   libucrt:xtoa.obj
 0001:0001fe58       _wcsnicmp                  0000000180020e58 f   libucrt:wcsnicmp.obj
 0001:0001fef4       _wcsnicmp_l                0000000180020ef4 f   libucrt:wcsnicmp.obj
 0001:0002000c       wcscmp                     000000018002100c f   libucrt:wcscmp.obj
 0001:00020044       fegetenv                   0000000180021044 f   libucrt:fegetenv.obj
 0001:00020064       fesetenv                   0000000180021064 f   libucrt:fesetenv.obj
 0001:000200b0       feholdexcept               00000001800210b0 f   libucrt:feholdexcept.obj
 0001:00020100       ceil                       0000000180021100 f   libucrt:ceil.obj
 0001:000201d0       log10                      00000001800211d0 f   libucrt:log10.obj
 0001:0002077c       _query_app_type            000000018002177c f   libucrt:report_runtime_error.obj
 0001:00020784       _clearfp                   0000000180021784 f   libucrt:ieee.obj
 0001:000207d8       _controlfp                 00000001800217d8 f   libucrt:ieee.obj
 0001:000207e4       _statusfp                  00000001800217e4 f   libucrt:ieee.obj
 0001:00020ac4       __dcrt_lowio_initialize_console_output 0000000180021ac4 f   libucrt:initcon.obj
 0001:00020b00       __dcrt_terminate_console_output 0000000180021b00 f   libucrt:initcon.obj
 0001:00020b20       __acrt_LCMapStringW        0000000180021b20 f   libucrt:lcmapstringw.obj
 0001:00020bb0       __acrt_initialize_fma3     0000000180021bb0 f   libucrt:fma3_available.obj
 0001:00020c20       _log10_special             0000000180021c20 f   libucrt:log_special.obj
 0001:00020cd6       IsProcessorFeaturePresent  0000000180021cd6 f   kernel32:KERNEL32.dll
 0001:00020cdc       RtlUnwindEx                0000000180021cdc f   kernel32:KERNEL32.dll
 0001:00020ce2       SystemFunction036          0000000180021ce2 f   advapi32:ADVAPI32.dll
 0001:00020ce8       ?DloadAcquireSectionWriteAccess@@YAXXZ 0000000180021ce8 f i DelayImp:delayhlp.obj
 0001:00020da4       ?DloadGetSRWLockFunctionPointers@@YAEXZ 0000000180021da4 f i DelayImp:delayhlp.obj
 0001:00020e40       ?DloadMakePermanentImageCommit@@YAXPEAX_K@Z 0000000180021e40 f i DelayImp:delayhlp.obj
 0001:00020ed8       ?DloadObtainSection@@YAPEAXPEAK0@Z 0000000180021ed8 f i DelayImp:delayhlp.obj
 0001:00020f70       ?DloadProtectSection@@YAXKPEAK@Z 0000000180021f70 f i DelayImp:delayhlp.obj
 0001:00021000       ?DloadReleaseSectionWriteAccess@@YAXXZ 0000000180022000 f i DelayImp:delayhlp.obj
 0001:000210a4       __delayLoadHelper2         00000001800220a4 f   DelayImp:delayhlp.obj
 0001:000213ac       __GSHandlerCheck           00000001800223ac f   LIBCMT:_gshandler_.obj
 0001:000213cc       __GSHandlerCheckCommon     00000001800223cc f   LIBCMT:_gshandler_.obj
 0001:00021428       __GSHandlerCheck_EH        0000000180022428 f   LIBCMT:gshandlereh.obj
 0001:000214d0       __chkstk                   00000001800224d0 f   LIBCMT:_chkstk_.obj
 0001:000214d0       _alloca_probe              00000001800224d0 f   LIBCMT:_chkstk_.obj
 0001:00021530       _FindPESection             0000000180022530 f   LIBCMT:pesect.obj
 0001:00021580       _IsNonwritableInCurrentImage 0000000180022580 f   LIBCMT:pesect.obj
 0001:000215d0       _ValidateImageBase         00000001800225d0 f   LIBCMT:pesect.obj
 0001:00021600       strrchr                    0000000180022600 f   libvcruntime:strrchr.obj
 0001:00021744       wcschr                     0000000180022744 f   libvcruntime:wcschr.obj
 0001:000217e0       _guard_dispatch_icall_nop  00000001800227e0 f   LIBCMT:_guard_dispatch_.obj
 0001:00021ce0       ??__F_Static@?1???$_Immortalize@V_Iostream_error_category@std@@@std@@YAAEAV_Iostream_error_category@0@XZ@YAXXZ 0000000180022ce0 f i jsmsc.obj
 0002:00000000       __imp_SystemFunction036    0000000180023000     advapi32:ADVAPI32.dll
 0002:00000008       \177ADVAPI32_NULL_THUNK_DATA 0000000180023008     advapi32:ADVAPI32.dll
 0002:00000010       __imp_VirtualProtect       0000000180023010     kernel32:KERNEL32.dll
 0002:00000018       __imp_GetSystemInfo        0000000180023018     kernel32:KERNEL32.dll
 0002:00000020       __imp_VirtualQuery         0000000180023020     kernel32:KERNEL32.dll
 0002:00000028       __imp_GetModuleHandleA     0000000180023028     kernel32:KERNEL32.dll
 0002:00000030       __imp_CreateFileW          0000000180023030     kernel32:KERNEL32.dll
 0002:00000038       __imp_ReadConsoleW         0000000180023038     kernel32:KERNEL32.dll
 0002:00000040       __imp_WriteConsoleW        0000000180023040     kernel32:KERNEL32.dll
 0002:00000048       __imp_HeapSize             0000000180023048     kernel32:KERNEL32.dll
 0002:00000050       __imp_SetStdHandle         0000000180023050     kernel32:KERNEL32.dll
 0002:00000058       __imp_CloseHandle          0000000180023058     kernel32:KERNEL32.dll
 0002:00000060       __imp_EnterCriticalSection 0000000180023060     kernel32:KERNEL32.dll
 0002:00000068       __imp_LeaveCriticalSection 0000000180023068     kernel32:KERNEL32.dll
 0002:00000070       __imp_DeleteCriticalSection 0000000180023070     kernel32:KERNEL32.dll
 0002:00000078       __imp_SetEvent             0000000180023078     kernel32:KERNEL32.dll
 0002:00000080       __imp_ResetEvent           0000000180023080     kernel32:KERNEL32.dll
 0002:00000088       __imp_WaitForSingleObjectEx 0000000180023088     kernel32:KERNEL32.dll
 0002:00000090       __imp_CreateEventW         0000000180023090     kernel32:KERNEL32.dll
 0002:00000098       __imp_GetModuleHandleW     0000000180023098     kernel32:KERNEL32.dll
 0002:000000a0       __imp_GetProcAddress       00000001800230a0     kernel32:KERNEL32.dll
 0002:000000a8       __imp_RtlCaptureContext    00000001800230a8     kernel32:KERNEL32.dll
 0002:000000b0       __imp_RtlLookupFunctionEntry 00000001800230b0     kernel32:KERNEL32.dll
 0002:000000b8       __imp_RtlVirtualUnwind     00000001800230b8     kernel32:KERNEL32.dll
 0002:000000c0       __imp_UnhandledExceptionFilter 00000001800230c0     kernel32:KERNEL32.dll
 0002:000000c8       __imp_SetUnhandledExceptionFilter 00000001800230c8     kernel32:KERNEL32.dll
 0002:000000d0       __imp_GetCurrentProcess    00000001800230d0     kernel32:KERNEL32.dll
 0002:000000d8       __imp_TerminateProcess     00000001800230d8     kernel32:KERNEL32.dll
 0002:000000e0       __imp_IsProcessorFeaturePresent 00000001800230e0     kernel32:KERNEL32.dll
 0002:000000e8       __imp_IsDebuggerPresent    00000001800230e8     kernel32:KERNEL32.dll
 0002:000000f0       __imp_GetStartupInfoW      00000001800230f0     kernel32:KERNEL32.dll
 0002:000000f8       __imp_QueryPerformanceCounter 00000001800230f8     kernel32:KERNEL32.dll
 0002:00000100       __imp_GetCurrentProcessId  0000000180023100     kernel32:KERNEL32.dll
 0002:00000108       __imp_GetCurrentThreadId   0000000180023108     kernel32:KERNEL32.dll
 0002:00000110       __imp_GetSystemTimeAsFileTime 0000000180023110     kernel32:KERNEL32.dll
 0002:00000118       __imp_InitializeSListHead  0000000180023118     kernel32:KERNEL32.dll
 0002:00000120       __imp_WideCharToMultiByte  0000000180023120     kernel32:KERNEL32.dll
 0002:00000128       __imp_EncodePointer        0000000180023128     kernel32:KERNEL32.dll
 0002:00000130       __imp_DecodePointer        0000000180023130     kernel32:KERNEL32.dll
 0002:00000138       __imp_MultiByteToWideChar  0000000180023138     kernel32:KERNEL32.dll
 0002:00000140       __imp_SetLastError         0000000180023140     kernel32:KERNEL32.dll
 0002:00000148       __imp_InitializeCriticalSectionAndSpinCount 0000000180023148     kernel32:KERNEL32.dll
 0002:00000150       __imp_TlsAlloc             0000000180023150     kernel32:KERNEL32.dll
 0002:00000158       __imp_TlsGetValue          0000000180023158     kernel32:KERNEL32.dll
 0002:00000160       __imp_TlsSetValue          0000000180023160     kernel32:KERNEL32.dll
 0002:00000168       __imp_TlsFree              0000000180023168     kernel32:KERNEL32.dll
 0002:00000170       __imp_LCMapStringW         0000000180023170     kernel32:KERNEL32.dll
 0002:00000178       __imp_GetLocaleInfoW       0000000180023178     kernel32:KERNEL32.dll
 0002:00000180       __imp_GetStringTypeW       0000000180023180     kernel32:KERNEL32.dll
 0002:00000188       __imp_GetCPInfo            0000000180023188     kernel32:KERNEL32.dll
 0002:00000190       __imp_GetLastError         0000000180023190     kernel32:KERNEL32.dll
 0002:00000198       __imp_FreeLibrary          0000000180023198     kernel32:KERNEL32.dll
 0002:000001a0       __imp_LoadLibraryExW       00000001800231a0     kernel32:KERNEL32.dll
 0002:000001a8       __imp_RtlUnwindEx          00000001800231a8     kernel32:KERNEL32.dll
 0002:000001b0       __imp_GetModuleFileNameW   00000001800231b0     kernel32:KERNEL32.dll
 0002:000001b8       __imp_RtlPcToFileHeader    00000001800231b8     kernel32:KERNEL32.dll
 0002:000001c0       __imp_RaiseException       00000001800231c0     kernel32:KERNEL32.dll
 0002:000001c8       __imp_InterlockedFlushSList 00000001800231c8     kernel32:KERNEL32.dll
 0002:000001d0       __imp_ExitProcess          00000001800231d0     kernel32:KERNEL32.dll
 0002:000001d8       __imp_GetModuleHandleExW   00000001800231d8     kernel32:KERNEL32.dll
 0002:000001e0       __imp_HeapAlloc            00000001800231e0     kernel32:KERNEL32.dll
 0002:000001e8       __imp_HeapReAlloc          00000001800231e8     kernel32:KERNEL32.dll
 0002:000001f0       __imp_HeapFree             00000001800231f0     kernel32:KERNEL32.dll
 0002:000001f8       __imp_GetACP               00000001800231f8     kernel32:KERNEL32.dll
 0002:00000200       __imp_GetStdHandle         0000000180023200     kernel32:KERNEL32.dll
 0002:00000208       __imp_GetFileType          0000000180023208     kernel32:KERNEL32.dll
 0002:00000210       __imp_IsValidLocale        0000000180023210     kernel32:KERNEL32.dll
 0002:00000218       __imp_GetUserDefaultLCID   0000000180023218     kernel32:KERNEL32.dll
 0002:00000220       __imp_EnumSystemLocalesW   0000000180023220     kernel32:KERNEL32.dll
 0002:00000228       __imp_IsValidCodePage      0000000180023228     kernel32:KERNEL32.dll
 0002:00000230       __imp_GetOEMCP             0000000180023230     kernel32:KERNEL32.dll
 0002:00000238       __imp_GetEnvironmentStringsW 0000000180023238     kernel32:KERNEL32.dll
 0002:00000240       __imp_FreeEnvironmentStringsW 0000000180023240     kernel32:KERNEL32.dll
 0002:00000248       __imp_GetProcessHeap       0000000180023248     kernel32:KERNEL32.dll
 0002:00000250       __imp_GetCommandLineA      0000000180023250     kernel32:KERNEL32.dll
 0002:00000258       __imp_GetCommandLineW      0000000180023258     kernel32:KERNEL32.dll
 0002:00000260       __imp_FlushFileBuffers     0000000180023260     kernel32:KERNEL32.dll
 0002:00000268       __imp_WriteFile            0000000180023268     kernel32:KERNEL32.dll
 0002:00000270       __imp_GetConsoleCP         0000000180023270     kernel32:KERNEL32.dll
 0002:00000278       __imp_GetConsoleMode       0000000180023278     kernel32:KERNEL32.dll
 0002:00000280       __imp_ReadFile             0000000180023280     kernel32:KERNEL32.dll
 0002:00000288       __imp_SetFilePointerEx     0000000180023288     kernel32:KERNEL32.dll
 0002:00000290       __imp_LoadLibraryExA       0000000180023290     kernel32:KERNEL32.dll
 0002:00000298       \177KERNEL32_NULL_THUNK_DATA 0000000180023298     kernel32:KERNEL32.dll
 0002:000002a0       __imp_?countNonZero@cv@@YAHAEBV_InputArray@1@@Z 00000001800232a0     opencv_core2411:opencv_core2411.dll
 0002:000002a8       __imp_?_interlockedExchangeAdd@cv@@YAHPEAHH@Z 00000001800232a8     opencv_core2411:opencv_core2411.dll
 0002:000002b0       __imp_?copySize@Mat@cv@@QEAAXAEBV12@@Z 00000001800232b0     opencv_core2411:opencv_core2411.dll
 0002:000002b8       __imp_??0_InputArray@cv@@QEAA@AEBVMat@1@@Z 00000001800232b8     opencv_core2411:opencv_core2411.dll
 0002:000002c0       __imp_?fastFree@cv@@YAXPEAX@Z 00000001800232c0     opencv_core2411:opencv_core2411.dll
 0002:000002c8       __imp_??0_OutputArray@cv@@QEAA@AEAVMat@1@@Z 00000001800232c8     opencv_core2411:opencv_core2411.dll
 0002:000002d0       __imp_??0Mat@cv@@QEAA@AEBV01@AEBVRange@1@1@Z 00000001800232d0     opencv_core2411:opencv_core2411.dll
 0002:000002d8       __imp_?create@Mat@cv@@QEAAXHPEBHH@Z 00000001800232d8     opencv_core2411:opencv_core2411.dll
 0002:000002e0       __imp_?deallocate@Mat@cv@@QEAAXXZ 00000001800232e0     opencv_core2411:opencv_core2411.dll
 0002:000002e8       \177opencv_core2411_NULL_THUNK_DATA 00000001800232e8     opencv_core2411:opencv_core2411.dll
 0002:000002f0       __imp_?imdecode@cv@@YA?AVMat@1@AEBV_InputArray@1@H@Z 00000001800232f0     opencv_highgui2411:opencv_highgui2411.dll
 0002:000002f8       \177opencv_highgui2411_NULL_THUNK_DATA 00000001800232f8     opencv_highgui2411:opencv_highgui2411.dll
 0002:00000300       __imp_?threshold@cv@@YANAEBV_InputArray@1@AEBV_OutputArray@1@NNH@Z 0000000180023300     opencv_imgproc2411:opencv_imgproc2411.dll
 0002:00000308       \177opencv_imgproc2411_NULL_THUNK_DATA 0000000180023308     opencv_imgproc2411:opencv_imgproc2411.dll
 0002:00000310       __guard_check_icall_fptr   0000000180023310     LIBCMT:guard_support.obj
 0002:00000318       __guard_dispatch_icall_fptr 0000000180023318     LIBCMT:guard_support.obj
 0002:00000320       __xc_a                     0000000180023320     LIBCMT:initializers.obj
 0002:00000370       _register_addon_           0000000180023370     jsmsc.obj
 0002:00000378       __xc_z                     0000000180023378     LIBCMT:initializers.obj
 0002:00000380       __xi_a                     0000000180023380     LIBCMT:initializers.obj
 0002:00000398       __acrt_stdio_initializer   0000000180023398     libucrt:stdio_initializer.obj
 0002:000003a0       __acrt_multibyte_initializer 00000001800233a0     libucrt:multibyte_initializer.obj
 0002:000003a8       __acrt_timeset_initializer 00000001800233a8     libucrt:timeset_initializer.obj
 0002:000003b0       __acrt_tran_fma3_initializer 00000001800233b0     libucrt:fma3_initializer.obj
 0002:000003b8       __xi_z                     00000001800233b8     LIBCMT:initializers.obj
 0002:000003c0       __xl_a                     00000001800233c0     LIBCMT:tlssup.obj
 0002:000003c8       __xl_z                     00000001800233c8     LIBCMT:tlssup.obj
 0002:000003d0       __xp_a                     00000001800233d0     LIBCMT:initializers.obj
 0002:000003d8       __acrt_locale_terminator   00000001800233d8     libucrt:locale_initializer.obj
 0002:000003e0       __dcrt_console_output_terminator 00000001800233e0     libucrt:console_output_initializer.obj
 0002:000003e8       __acrt_stdio_terminator    00000001800233e8     libucrt:stdio_initializer.obj
 0002:000003f0       __xp_z                     00000001800233f0     LIBCMT:initializers.obj
 0002:000003f8       __xt_a                     00000001800233f8     LIBCMT:initializers.obj
 0002:00000400       __xt_z                     0000000180023400     LIBCMT:initializers.obj
 0002:00000410       __sz_node_exe              0000000180023410     node:node.exe
 0002:00000420       ??_C@_1BK@MGMFAEKH@?$AAk?$AAe?$AAr?$AAn?$AAe?$AAl?$AA3?$AA2?$AA?4?$AAd?$AAl?$AAl?$AA?$AA@ 0000000180023420     LIBCMT:thread_safe_statics.obj
 0002:00000440       ??_C@_0BM@HLJJNPAH@InitializeConditionVariable?$AA@ 0000000180023440     LIBCMT:thread_safe_statics.obj
 0002:00000460       ??_C@_0BJ@JEBJOJFJ@SleepConditionVariableCS?$AA@ 0000000180023460     LIBCMT:thread_safe_statics.obj
 0002:00000480       ??_C@_0BJ@PGPPEPCC@WakeAllConditionVariable?$AA@ 0000000180023480     LIBCMT:thread_safe_statics.obj
 0002:000004a0       _pRawDllMain               00000001800234a0     LIBCMT:dll_dllmain.obj
 0002:000004a0       _pDefaultRawDllMain        00000001800234a0     LIBCMT:dll_dllmain.obj
 0002:000004c0       ??_7exception@std@@6B@     00000001800234c0     LIBCMT:throw_bad_alloc.obj
 0002:000004d0       ??_C@_0BC@EOODALEL@Unknown?5exception?$AA@ 00000001800234d0     LIBCMT:throw_bad_alloc.obj
 0002:000004f0       ??_7bad_alloc@std@@6B@     00000001800234f0     LIBCMT:throw_bad_alloc.obj
 0002:00000500       ??_C@_0P@GHFPNOJB@bad?5allocation?$AA@ 0000000180023500     LIBCMT:throw_bad_alloc.obj
 0002:00000518       ??_7bad_array_new_length@std@@6B@ 0000000180023518     LIBCMT:throw_bad_alloc.obj
 0002:00000528       ??_C@_0BF@KINCDENJ@bad?5array?5new?5length?$AA@ 0000000180023528     LIBCMT:throw_bad_alloc.obj
 0002:00000548       ??_7type_info@@6B@         0000000180023548     LIBCMT:std_type_info_static.obj
 0002:000007b0       ??_7runtime_error@std@@6B@ 00000001800237b0     libcpmt:cout.obj
 0002:000007c8       ??_7bad_cast@std@@6B@      00000001800237c8     libcpmt:cout.obj
 0002:000007d8       ??_C@_08EPJLHIJG@bad?5cast?$AA@ 00000001800237d8     libcpmt:cout.obj
 0002:000007f0       ??_7_Facet_base@std@@6B@   00000001800237f0     libcpmt:cout.obj
 0002:00000810       ??_7?$ctype@D@std@@6B@     0000000180023810     libcpmt:cout.obj
 0002:00000870       ??_7error_category@std@@6B@ 0000000180023870     libcpmt:cout.obj
 0002:000008a8       ??_7_System_error@std@@6B@ 00000001800238a8     libcpmt:cout.obj
 0002:000008c0       ??_7_Iostream_error_category@std@@6B@ 00000001800238c0     libcpmt:cout.obj
 0002:000008f8       ??_7failure@ios_base@std@@6B@ 00000001800238f8     libcpmt:cout.obj
 0002:00000910       ??_7ios_base@std@@6B@      0000000180023910     libcpmt:cout.obj
 0002:00000920       ??_7?$basic_streambuf@DU?$char_traits@D@std@@@std@@6B@ 0000000180023920     libcpmt:cout.obj
 0002:000009a0       ??_7?$basic_filebuf@DU?$char_traits@D@std@@@std@@6B@ 00000001800239a0     libcpmt:cout.obj
 0002:00000a20       ??_7?$basic_ios@DU?$char_traits@D@std@@@std@@6B@ 0000000180023a20     libcpmt:cout.obj
 0002:00000a30       ??_7?$basic_ostream@DU?$char_traits@D@std@@@std@@6B@ 0000000180023a30     libcpmt:cout.obj
 0002:00000a38       ??_8?$basic_ostream@DU?$char_traits@D@std@@@std@@7B@ 0000000180023a38     libcpmt:cout.obj
 0002:00000a48       ??_7?$codecvt@DDU_Mbstatet@@@std@@6B@ 0000000180023a48     libcpmt:cout.obj
 0002:00000b68       ??_7_Locimp@locale@std@@6B@ 0000000180023b68     libcpmt:locale0.obj
 0002:00000b80       ??_C@_01NBENCBCI@?$CK?$AA@ 0000000180023b80     libcpmt:locale0.obj
 0002:00000b84       ??_C@_01GFHCPBMG@C?$AA@    0000000180023b84     libcpmt:locale0.obj
 0002:00000b90       ??_7logic_error@std@@6B@   0000000180023b90     libcpmt:xthrow.obj
 0002:00000ba8       ??_7length_error@std@@6B@  0000000180023ba8     libcpmt:xthrow.obj
 0002:00000bc0       ??_7out_of_range@std@@6B@  0000000180023bc0     libcpmt:xthrow.obj
 0002:00001300       ??_C@_0BN@LKKBCCDB@address?5family?5not?5supported?$AA@ 0000000180024300     libcpmt:syserror.obj
 0002:00001320       ??_C@_0P@LDMLAFHI@address?5in?5use?$AA@ 0000000180024320     libcpmt:syserror.obj
 0002:00001330       ??_C@_0BG@DHPCNBJB@address?5not?5available?$AA@ 0000000180024330     libcpmt:syserror.obj
 0002:00001348       ??_C@_0BC@DFIBIBIL@already?5connected?$AA@ 0000000180024348     libcpmt:syserror.obj
 0002:00001360       ??_C@_0BH@CAKOHOMI@argument?5list?5too?5long?$AA@ 0000000180024360     libcpmt:syserror.obj
 0002:00001378       ??_C@_0BH@CGIMPKIM@argument?5out?5of?5domain?$AA@ 0000000180024378     libcpmt:syserror.obj
 0002:00001390       ??_C@_0M@KGHGGJGL@bad?5address?$AA@ 0000000180024390     libcpmt:syserror.obj
 0002:000013a0       ??_C@_0BE@MPJPGCEO@bad?5file?5descriptor?$AA@ 00000001800243a0     libcpmt:syserror.obj
 0002:000013b8       ??_C@_0M@PMMIEFCP@bad?5message?$AA@ 00000001800243b8     libcpmt:syserror.obj
 0002:000013c8       ??_C@_0M@KPHOFDBE@broken?5pipe?$AA@ 00000001800243c8     libcpmt:syserror.obj
 0002:000013d8       ??_C@_0BD@MGNDDEGM@connection?5aborted?$AA@ 00000001800243d8     libcpmt:syserror.obj
 0002:000013f0       ??_C@_0BP@KAIHPOGN@connection?5already?5in?5progress?$AA@ 00000001800243f0     libcpmt:syserror.obj
 0002:00001410       ??_C@_0BD@PJLIIJEL@connection?5refused?$AA@ 0000000180024410     libcpmt:syserror.obj
 0002:00001428       ??_C@_0BB@IECNJNOI@connection?5reset?$AA@ 0000000180024428     libcpmt:syserror.obj
 0002:00001440       ??_C@_0BC@PPHBOELF@cross?5device?5link?$AA@ 0000000180024440     libcpmt:syserror.obj
 0002:00001458       ??_C@_0BN@KDMIFEIP@destination?5address?5required?$AA@ 0000000180024458     libcpmt:syserror.obj
 0002:00001478       ??_C@_0BI@NGCEHDD@device?5or?5resource?5busy?$AA@ 0000000180024478     libcpmt:syserror.obj
 0002:00001490       ??_C@_0BE@JIDOCPHM@directory?5not?5empty?$AA@ 0000000180024490     libcpmt:syserror.obj
 0002:000014a8       ??_C@_0BI@BNCLIGPB@executable?5format?5error?$AA@ 00000001800244a8     libcpmt:syserror.obj
 0002:000014c0       ??_C@_0M@MIDIAGJP@file?5exists?$AA@ 00000001800244c0     libcpmt:syserror.obj
 0002:000014d0       ??_C@_0P@DNAJLBJK@file?5too?5large?$AA@ 00000001800244d0     libcpmt:syserror.obj
 0002:000014e0       ??_C@_0BC@EJHOMAAK@filename?5too?5long?$AA@ 00000001800244e0     libcpmt:syserror.obj
 0002:000014f8       ??_C@_0BH@KEFGLDAF@function?5not?5supported?$AA@ 00000001800244f8     libcpmt:syserror.obj
 0002:00001510       ??_C@_0BB@DHFDFGDM@host?5unreachable?$AA@ 0000000180024510     libcpmt:syserror.obj
 0002:00001528       ??_C@_0BD@JPHBMONG@identifier?5removed?$AA@ 0000000180024528     libcpmt:syserror.obj
 0002:00001540       ??_C@_0BG@CDNPAGJK@illegal?5byte?5sequence?$AA@ 0000000180024540     libcpmt:syserror.obj
 0002:00001558       ??_C@_0CD@BNPLBMNA@inappropriate?5io?5control?5operati@ 0000000180024558     libcpmt:syserror.obj
 0002:00001580       ??_C@_0M@EGEKIIMP@interrupted?$AA@ 0000000180024580     libcpmt:syserror.obj
 0002:00001590       ??_C@_0BB@FCMFBGOM@invalid?5argument?$AA@ 0000000180024590     libcpmt:syserror.obj
 0002:000015a8       ??_C@_0N@OHAFKDEK@invalid?5seek?$AA@ 00000001800245a8     libcpmt:syserror.obj
 0002:000015b8       ??_C@_08GLNPIFBN@io?5error?$AA@ 00000001800245b8     libcpmt:syserror.obj
 0002:000015c8       ??_C@_0P@FLLDBIDK@is?5a?5directory?$AA@ 00000001800245c8     libcpmt:syserror.obj
 0002:000015d8       ??_C@_0N@IFLPBIOP@message?5size?$AA@ 00000001800245d8     libcpmt:syserror.obj
 0002:000015e8       ??_C@_0N@KIIEAAIO@network?5down?$AA@ 00000001800245e8     libcpmt:syserror.obj
 0002:000015f8       ??_C@_0O@FNPDBHEE@network?5reset?$AA@ 00000001800245f8     libcpmt:syserror.obj
 0002:00001608       ??_C@_0BE@IFNCKGE@network?5unreachable?$AA@ 0000000180024608     libcpmt:syserror.obj
 0002:00001620       ??_C@_0BA@PFFCAOFK@no?5buffer?5space?$AA@ 0000000180024620     libcpmt:syserror.obj
 0002:00001630       ??_C@_0BB@IEPBLJHK@no?5child?5process?$AA@ 0000000180024630     libcpmt:syserror.obj
 0002:00001648       ??_C@_07PLECNNKG@no?5link?$AA@ 0000000180024648     libcpmt:syserror.obj
 0002:00001650       ??_C@_0BC@NJECKMKE@no?5lock?5available?$AA@ 0000000180024650     libcpmt:syserror.obj
 0002:00001668       ??_C@_0BF@PBGGPKKE@no?5message?5available?$AA@ 0000000180024668     libcpmt:syserror.obj
 0002:00001680       ??_C@_0L@EDOLMPAK@no?5message?$AA@ 0000000180024680     libcpmt:syserror.obj
 0002:00001690       ??_C@_0BD@EAMBFIDF@no?5protocol?5option?$AA@ 0000000180024690     libcpmt:syserror.obj
 0002:000016a8       ??_C@_0BD@IJDJKDEA@no?5space?5on?5device?$AA@ 00000001800246a8     libcpmt:syserror.obj
 0002:000016c0       ??_C@_0BE@MKFDAFMP@no?5stream?5resources?$AA@ 00000001800246c0     libcpmt:syserror.obj
 0002:000016d8       ??_C@_0BK@IMCPHCBI@no?5such?5device?5or?5address?$AA@ 00000001800246d8     libcpmt:syserror.obj
 0002:000016f8       ??_C@_0P@FDINDDOK@no?5such?5device?$AA@ 00000001800246f8     libcpmt:syserror.obj
 0002:00001708       ??_C@_0BK@NDOCBPGE@no?5such?5file?5or?5directory?$AA@ 0000000180024708     libcpmt:syserror.obj
 0002:00001728       ??_C@_0BA@ENLPPKBN@no?5such?5process?$AA@ 0000000180024728     libcpmt:syserror.obj
 0002:00001738       ??_C@_0BA@DOCPFFJG@not?5a?5directory?$AA@ 0000000180024738     libcpmt:syserror.obj
 0002:00001748       ??_C@_0N@POEIPGGF@not?5a?5socket?$AA@ 0000000180024748     libcpmt:syserror.obj
 0002:00001758       ??_C@_0N@LGAPMMPI@not?5a?5stream?$AA@ 0000000180024758     libcpmt:syserror.obj
 0002:00001768       ??_C@_0O@GLMIBBEG@not?5connected?$AA@ 0000000180024768     libcpmt:syserror.obj
 0002:00001778       ??_C@_0BC@ENOOLCNF@not?5enough?5memory?$AA@ 0000000180024778     libcpmt:syserror.obj
 0002:00001790       ??_C@_0O@NHEDABJP@not?5supported?$AA@ 0000000180024790     libcpmt:syserror.obj
 0002:000017a0       ??_C@_0BD@MOLBPMEA@operation?5canceled?$AA@ 00000001800247a0     libcpmt:syserror.obj
 0002:000017b8       ??_C@_0BG@KDKHOPCO@operation?5in?5progress?$AA@ 00000001800247b8     libcpmt:syserror.obj
 0002:000017d0       ??_C@_0BI@OHIEJAAB@operation?5not?5permitted?$AA@ 00000001800247d0     libcpmt:syserror.obj
 0002:000017e8       ??_C@_0BI@LNEGIFLN@operation?5not?5supported?$AA@ 00000001800247e8     libcpmt:syserror.obj
 0002:00001800       ??_C@_0BG@OEMDKMEE@operation?5would?5block?$AA@ 0000000180024800     libcpmt:syserror.obj
 0002:00001818       ??_C@_0L@BLPOFLNJ@owner?5dead?$AA@ 0000000180024818     libcpmt:syserror.obj
 0002:00001828       ??_C@_0BC@CIJDGCDI@permission?5denied?$AA@ 0000000180024828     libcpmt:syserror.obj
 0002:00001840       ??_C@_0P@FNPOCJBE@protocol?5error?$AA@ 0000000180024840     libcpmt:syserror.obj
 0002:00001850       ??_C@_0BH@JPPPLHJB@protocol?5not?5supported?$AA@ 0000000180024850     libcpmt:syserror.obj
 0002:00001868       ??_C@_0BG@EICBIHDP@read?5only?5file?5system?$AA@ 0000000180024868     libcpmt:syserror.obj
 0002:00001880       ??_C@_0BO@BJBOMOEJ@resource?5deadlock?5would?5occur?$AA@ 0000000180024880     libcpmt:syserror.obj
 0002:000018a0       ??_C@_0BP@LKNGHENJ@resource?5unavailable?5try?5again?$AA@ 00000001800248a0     libcpmt:syserror.obj
 0002:000018c0       ??_C@_0BE@GOIPJJHG@result?5out?5of?5range?$AA@ 00000001800248c0     libcpmt:syserror.obj
 0002:000018d8       ??_C@_0BG@MPLKFPAE@state?5not?5recoverable?$AA@ 00000001800248d8     libcpmt:syserror.obj
 0002:000018f0       ??_C@_0P@DIIFGFCG@stream?5timeout?$AA@ 00000001800248f0     libcpmt:syserror.obj
 0002:00001900       ??_C@_0P@IPFDMIFL@text?5file?5busy?$AA@ 0000000180024900     libcpmt:syserror.obj
 0002:00001910       ??_C@_09KJPPMAOI@timed?5out?$AA@ 0000000180024910     libcpmt:syserror.obj
 0002:00001920       ??_C@_0BO@HACHBEKI@too?5many?5files?5open?5in?5system?$AA@ 0000000180024920     libcpmt:syserror.obj
 0002:00001940       ??_C@_0BE@GHAFMPAH@too?5many?5files?5open?$AA@ 0000000180024940     libcpmt:syserror.obj
 0002:00001958       ??_C@_0P@HCOMKFCC@too?5many?5links?$AA@ 0000000180024958     libcpmt:syserror.obj
 0002:00001968       ??_C@_0BO@EFGOJEF@too?5many?5symbolic?5link?5levels?$AA@ 0000000180024968     libcpmt:syserror.obj
 0002:00001988       ??_C@_0BA@KGKGOOJA@value?5too?5large?$AA@ 0000000180024988     libcpmt:syserror.obj
 0002:00001998       ??_C@_0BE@MIEJDDNH@wrong?5protocol?5type?$AA@ 0000000180024998     libcpmt:syserror.obj
 0002:000019b0       ??_C@_0O@BFJCFAAK@unknown?5error?$AA@ 00000001800249b0     libcpmt:syserror.obj
 0002:000019c0       ?_BADOFF@std@@3_JB         00000001800249c0     libcpmt:ios.obj
 0002:000019f8       ??_7?$num_put@DV?$ostreambuf_iterator@DU?$char_traits@D@std@@@std@@@std@@6B@ 00000001800249f8     libcpmt:locale.obj
 0002:00001a58       ??_7?$numpunct@D@std@@6B@  0000000180024a58     libcpmt:locale.obj
 0002:00001a98       ??_C@_08KNHFBNJ@FlsAlloc?$AA@ 0000000180024a98     libcpmt:winapisupp.obj
 0002:00001aa8       ??_C@_07PEJMOBNF@FlsFree?$AA@ 0000000180024aa8     libcpmt:winapisupp.obj
 0002:00001ab0       ??_C@_0M@GDNOONDI@FlsGetValue?$AA@ 0000000180024ab0     libcpmt:winapisupp.obj
 0002:00001ac0       ??_C@_0M@JCPCPOEF@FlsSetValue?$AA@ 0000000180024ac0     libcpmt:winapisupp.obj
 0002:00001ad0       ??_C@_0BM@HCFOFFN@InitializeCriticalSectionEx?$AA@ 0000000180024ad0     libcpmt:winapisupp.obj
 0002:00001af0       ??_C@_0BE@GPLMMCMH@InitOnceExecuteOnce?$AA@ 0000000180024af0     libcpmt:winapisupp.obj
 0002:00001b08       ??_C@_0P@DLHPPCNH@CreateEventExW?$AA@ 0000000180024b08     libcpmt:winapisupp.obj
 0002:00001b18       ??_C@_0BB@MEFPJLHN@CreateSemaphoreW?$AA@ 0000000180024b18     libcpmt:winapisupp.obj
 0002:00001b30       ??_C@_0BD@KIEEOEEH@CreateSemaphoreExW?$AA@ 0000000180024b30     libcpmt:winapisupp.obj
 0002:00001b48       ??_C@_0BG@OGFAJCKC@CreateThreadpoolTimer?$AA@ 0000000180024b48     libcpmt:winapisupp.obj
 0002:00001b60       ??_C@_0BD@LPLEMMDI@SetThreadpoolTimer?$AA@ 0000000180024b60     libcpmt:winapisupp.obj
 0002:00001b78       ??_C@_0CA@FMNJENH@WaitForThreadpoolTimerCallbacks?$AA@ 0000000180024b78     libcpmt:winapisupp.obj
 0002:00001b98       ??_C@_0BF@DCFCCNOC@CloseThreadpoolTimer?$AA@ 0000000180024b98     libcpmt:winapisupp.obj
 0002:00001bb0       ??_C@_0BF@FLABGKKM@CreateThreadpoolWait?$AA@ 0000000180024bb0     libcpmt:winapisupp.obj
 0002:00001bc8       ??_C@_0BC@MGCOHNA@SetThreadpoolWait?$AA@ 0000000180024bc8     libcpmt:winapisupp.obj
 0002:00001be0       ??_C@_0BE@OCIOMIMP@CloseThreadpoolWait?$AA@ 0000000180024be0     libcpmt:winapisupp.obj
 0002:00001bf8       ??_C@_0BJ@LKGHFHBO@FlushProcessWriteBuffers?$AA@ 0000000180024bf8     libcpmt:winapisupp.obj
 0002:00001c18       ??_C@_0BP@KALKKPMO@FreeLibraryWhenCallbackReturns?$AA@ 0000000180024c18     libcpmt:winapisupp.obj
 0002:00001c38       ??_C@_0BK@DFNBACLA@GetCurrentProcessorNumber?$AA@ 0000000180024c38     libcpmt:winapisupp.obj
 0002:00001c58       ??_C@_0BE@FKKLLFLM@CreateSymbolicLinkW?$AA@ 0000000180024c58     libcpmt:winapisupp.obj
 0002:00001c70       ??_C@_0BE@JOGNEJCI@GetCurrentPackageId?$AA@ 0000000180024c70     libcpmt:winapisupp.obj
 0002:00001c88       ??_C@_0P@CDHHOHKP@GetTickCount64?$AA@ 0000000180024c88     libcpmt:winapisupp.obj
 0002:00001c98       ??_C@_0BN@NEEHBBPO@GetFileInformationByHandleEx?$AA@ 0000000180024c98     libcpmt:winapisupp.obj
 0002:00001cb8       ??_C@_0BL@KBBHGKCM@SetFileInformationByHandle?$AA@ 0000000180024cb8     libcpmt:winapisupp.obj
 0002:00001cd8       ??_C@_0BP@FPNJPEJC@GetSystemTimePreciseAsFileTime?$AA@ 0000000180024cd8     libcpmt:winapisupp.obj
 0002:00001cf8       ??_C@_0BG@BFNILBLN@WakeConditionVariable?$AA@ 0000000180024cf8     libcpmt:winapisupp.obj
 0002:00001d10       ??_C@_0BC@MMLHEBPB@InitializeSRWLock?$AA@ 0000000180024d10     libcpmt:winapisupp.obj
 0002:00001d28       ??_C@_0BI@OMNLIJDB@AcquireSRWLockExclusive?$AA@ 0000000180024d28     libcpmt:winapisupp.obj
 0002:00001d40       ??_C@_0BL@OGHFEMNA@TryAcquireSRWLockExclusive?$AA@ 0000000180024d40     libcpmt:winapisupp.obj
 0002:00001d60       ??_C@_0BI@HMIEPCNJ@ReleaseSRWLockExclusive?$AA@ 0000000180024d60     libcpmt:winapisupp.obj
 0002:00001d78       ??_C@_0BK@LGACAGIC@SleepConditionVariableSRW?$AA@ 0000000180024d78     libcpmt:winapisupp.obj
 0002:00001d98       ??_C@_0BF@GGPHFPJA@CreateThreadpoolWork?$AA@ 0000000180024d98     libcpmt:winapisupp.obj
 0002:00001db0       ??_C@_0BF@NHDAIMMO@SubmitThreadpoolWork?$AA@ 0000000180024db0     libcpmt:winapisupp.obj
 0002:00001dc8       ??_C@_0BE@NPHIPNPD@CloseThreadpoolWork?$AA@ 0000000180024dc8     libcpmt:winapisupp.obj
 0002:00001de0       ??_C@_0BA@IHGNDAEB@CompareStringEx?$AA@ 0000000180024de0     libcpmt:winapisupp.obj
 0002:00001df0       ??_C@_0BA@ONOKGCMP@GetLocaleInfoEx?$AA@ 0000000180024df0     libcpmt:winapisupp.obj
 0002:00001e00       ??_C@_0O@KKBNKAPF@LCMapStringEx?$AA@ 0000000180024e00     libcpmt:winapisupp.obj
 0002:00001e10       ??_C@_11LOCGONAA@?$AA?$AA@ 0000000180024e10     libcpmt:wlocale.obj
 0002:00001e14       ??_C@_01JOAMLHOP@?9?$AA@   0000000180024e14     libcpmt:wlocale.obj
 0002:00001e20       __xmm@80000000000000008000000000000000 0000000180024e20     libcpmt:wlocale.obj
 0002:00001ed0       ??_C@_1M@GMDGLDOB@?$AAe?$AAn?$AA?9?$AAp?$AAh?$AA?$AA@ 0000000180024ed0     libcpmt:winapinls.obj
 0002:00001ee0       ??_C@_1M@ONGIBJNA@?$AAe?$AAn?$AA?9?$AAt?$AAt?$AA?$AA@ 0000000180024ee0     libcpmt:winapinls.obj
 0002:00001ef0       ??_C@_1M@LLODPCMM@?$AAe?$AAn?$AA?9?$AAu?$AAs?$AA?$AA@ 0000000180024ef0     libcpmt:winapinls.obj
 0002:00001f00       ??_C@_1M@LAKFNPAN@?$AAe?$AAn?$AA?9?$AAz?$AAa?$AA?$AA@ 0000000180024f00     libcpmt:winapinls.obj
 0002:00001f10       ??_C@_1M@MFNHNHEO@?$AAe?$AAn?$AA?9?$AAz?$AAw?$AA?$AA@ 0000000180024f10     libcpmt:winapinls.obj
 0002:00001f20       ??_C@_1M@EJEINPHM@?$AAe?$AAs?$AA?9?$AAa?$AAr?$AA?$AA@ 0000000180024f20     libcpmt:winapinls.obj
 0002:00001f30       ??_C@_1M@GNKPCCJA@?$AAe?$AAs?$AA?9?$AAb?$AAo?$AA?$AA@ 0000000180024f30     libcpmt:winapinls.obj
 0002:00001f40       ??_C@_1M@LEEGFONL@?$AAe?$AAs?$AA?9?$AAc?$AAl?$AA?$AA@ 0000000180024f40     libcpmt:winapinls.obj
 0002:00001f50       ??_C@_1M@KGPDPBDF@?$AAe?$AAs?$AA?9?$AAc?$AAo?$AA?$AA@ 0000000180024f50     libcpmt:winapinls.obj
 0002:00001f60       ??_C@_1M@EIAHOHH@?$AAe?$AAs?$AA?9?$AAc?$AAr?$AA?$AA@ 0000000180024f60     libcpmt:winapinls.obj
 0002:00001f70       ??_C@_1M@LLPGMBIN@?$AAe?$AAs?$AA?9?$AAd?$AAo?$AA?$AA@ 0000000180024f70     libcpmt:winapinls.obj
 0002:00001f80       ??_C@_1M@DKHMKNJA@?$AAe?$AAs?$AA?9?$AAe?$AAc?$AA?$AA@ 0000000180024f80     libcpmt:winapinls.obj
 0002:00001f90       ??_C@_1M@GKGFPKAP@?$AAe?$AAs?$AA?9?$AAe?$AAs?$AA?$AA@ 0000000180024f90     libcpmt:winapinls.obj
 0002:00001fa0       ??_C@_1M@LKHKGDLN@?$AAe?$AAs?$AA?9?$AAg?$AAt?$AA?$AA@ 0000000180024fa0     libcpmt:winapinls.obj
 0002:00001fb0       ??_C@_1M@HEIIGGJD@?$AAe?$AAs?$AA?9?$AAh?$AAn?$AA?$AA@ 0000000180024fb0     libcpmt:winapinls.obj
 0002:00001fc0       ??_C@_1M@FBDHPPGD@?$AAe?$AAs?$AA?9?$AAm?$AAx?$AA?$AA@ 0000000180024fc0     libcpmt:winapinls.obj
 0002:00001fd0       ??_C@_1M@DPAGLNDH@?$AAe?$AAs?$AA?9?$AAn?$AAi?$AA?$AA@ 0000000180024fd0     libcpmt:winapinls.obj
 0002:00001fe0       ??_C@_1M@MDGOPGDD@?$AAe?$AAs?$AA?9?$AAp?$AAa?$AA?$AA@ 0000000180024fe0     libcpmt:winapinls.obj
 0002:00001ff0       ??_C@_1M@EMAMGBGE@?$AAe?$AAs?$AA?9?$AAp?$AAe?$AA?$AA@ 0000000180024ff0     libcpmt:winapinls.obj
 0002:00002000       ??_C@_1M@IBMCAOEC@?$AAe?$AAs?$AA?9?$AAp?$AAr?$AA?$AA@ 0000000180025000     libcpmt:winapinls.obj
 0002:00002010       ??_C@_1M@FGMDIJED@?$AAe?$AAs?$AA?9?$AAp?$AAy?$AA?$AA@ 0000000180025010     libcpmt:winapinls.obj
 0002:00002020       ??_C@_1M@IIDEOLLL@?$AAe?$AAs?$AA?9?$AAs?$AAv?$AA?$AA@ 0000000180025020     libcpmt:winapinls.obj
 0002:00002030       ??_C@_1M@GAOBIPA@?$AAe?$AAs?$AA?9?$AAu?$AAy?$AA?$AA@ 0000000180025030     libcpmt:winapinls.obj
 0002:00002040       ??_C@_1M@JKFFICHJ@?$AAe?$AAs?$AA?9?$AAv?$AAe?$AA?$AA@ 0000000180025040     libcpmt:winapinls.obj
 0002:00002050       ??_C@_1M@PNMLOJDF@?$AAe?$AAt?$AA?9?$AAe?$AAe?$AA?$AA@ 0000000180025050     libcpmt:winapinls.obj
 0002:00002060       ??_C@_1M@GHHLIKEI@?$AAe?$AAu?$AA?9?$AAe?$AAs?$AA?$AA@ 0000000180025060     libcpmt:winapinls.obj
 0002:00002070       ??_C@_1M@PBNONODE@?$AAf?$AAa?$AA?9?$AAi?$AAr?$AA?$AA@ 0000000180025070     libcpmt:winapinls.obj
 0002:00002080       ??_C@_1M@JEEHPMIL@?$AAf?$AAi?$AA?9?$AAf?$AAi?$AA?$AA@ 0000000180025080     libcpmt:winapinls.obj
 0002:00002090       ??_C@_1M@LMDCNDBA@?$AAf?$AAo?$AA?9?$AAf?$AAo?$AA?$AA@ 0000000180025090     libcpmt:winapinls.obj
 0002:000020a0       ??_C@_1M@JKEOHLDK@?$AAf?$AAr?$AA?9?$AAb?$AAe?$AA?$AA@ 00000001800250a0     libcpmt:winapinls.obj
 0002:000020b0       ??_C@_1M@NOHADPMI@?$AAf?$AAr?$AA?9?$AAc?$AAa?$AA?$AA@ 00000001800250b0     libcpmt:winapinls.obj
 0002:000020c0       ??_C@_1M@KDHIHAEC@?$AAf?$AAr?$AA?9?$AAc?$AAh?$AA?$AA@ 00000001800250c0     libcpmt:winapinls.obj
 0002:000020d0       ??_C@_1M@MMBBFGAK@?$AAf?$AAr?$AA?9?$AAf?$AAr?$AA?$AA@ 00000001800250d0     libcpmt:winapinls.obj
 0002:000020e0       ??_C@_1M@PAFNENNF@?$AAf?$AAr?$AA?9?$AAl?$AAu?$AA?$AA@ 00000001800250e0     libcpmt:winapinls.obj
 0002:000020f0       ??_C@_1M@EOHDJGDD@?$AAf?$AAr?$AA?9?$AAm?$AAc?$AA?$AA@ 00000001800250f0     libcpmt:winapinls.obj
 0002:00002100       ??_C@_1M@FAPLLOPF@?$AAg?$AAl?$AA?9?$AAe?$AAs?$AA?$AA@ 0000000180025100     libcpmt:winapinls.obj
 0002:00002110       ??_C@_1M@FOPBFLOO@?$AAg?$AAu?$AA?9?$AAi?$AAn?$AA?$AA@ 0000000180025110     libcpmt:winapinls.obj
 0002:00002120       ??_C@_1M@KBMCINPM@?$AAh?$AAe?$AA?9?$AAi?$AAl?$AA?$AA@ 0000000180025120     libcpmt:winapinls.obj
 0002:00002130       ??_C@_1M@BBPHKFPJ@?$AAh?$AAi?$AA?9?$AAi?$AAn?$AA?$AA@ 0000000180025130     libcpmt:winapinls.obj
 0002:00002140       ??_C@_1M@PMBNDPHD@?$AAh?$AAr?$AA?9?$AAb?$AAa?$AA?$AA@ 0000000180025140     libcpmt:winapinls.obj
 0002:00002150       ??_C@_1M@BPCKOEGE@?$AAh?$AAr?$AA?9?$AAh?$AAr?$AA?$AA@ 0000000180025150     libcpmt:winapinls.obj
 0002:00002160       ??_C@_1M@GACBMHKE@?$AAh?$AAu?$AA?9?$AAh?$AAu?$AA?$AA@ 0000000180025160     libcpmt:winapinls.obj
 0002:00002170       ??_C@_1M@MILPAJJC@?$AAh?$AAy?$AA?9?$AAa?$AAm?$AA?$AA@ 0000000180025170     libcpmt:winapinls.obj
 0002:00002180       ??_C@_1M@BABBICEC@?$AAi?$AAd?$AA?9?$AAi?$AAd?$AA?$AA@ 0000000180025180     libcpmt:winapinls.obj
 0002:00002190       ??_C@_1M@BIKNHHPF@?$AAi?$AAs?$AA?9?$AAi?$AAs?$AA?$AA@ 0000000180025190     libcpmt:winapinls.obj
 0002:000021a0       ??_C@_1M@NMPCJPHE@?$AAi?$AAt?$AA?9?$AAc?$AAh?$AA?$AA@ 00000001800251a0     libcpmt:winapinls.obj
 0002:000021b0       ??_C@_1M@GHKGFEDF@?$AAi?$AAt?$AA?9?$AAi?$AAt?$AA?$AA@ 00000001800251b0     libcpmt:winapinls.obj
 0002:000021c0       ??_C@_1M@NIEJCJJA@?$AAj?$AAa?$AA?9?$AAj?$AAp?$AA?$AA@ 00000001800251c0     libcpmt:winapinls.obj
 0002:000021d0       ??_C@_1M@JILFNBIM@?$AAk?$AAa?$AA?9?$AAg?$AAe?$AA?$AA@ 00000001800251d0     libcpmt:winapinls.obj
 0002:000021e0       ??_C@_1M@PACPMGPH@?$AAk?$AAk?$AA?9?$AAk?$AAz?$AA?$AA@ 00000001800251e0     libcpmt:winapinls.obj
 0002:000021f0       ??_C@_1M@IELFGMHA@?$AAk?$AAn?$AA?9?$AAi?$AAn?$AA?$AA@ 00000001800251f0     libcpmt:winapinls.obj
 0002:00002200       ??_C@_1M@DMHAEOGC@?$AAk?$AAo?$AA?9?$AAk?$AAr?$AA?$AA@ 0000000180025200     libcpmt:winapinls.obj
 0002:00002210       ??_C@_1O@IBBJHCH@?$AAk?$AAo?$AAk?$AA?9?$AAi?$AAn?$AA?$AA@ 0000000180025210     libcpmt:winapinls.obj
 0002:00002220       ??_C@_1M@HBAHBIGA@?$AAk?$AAy?$AA?9?$AAk?$AAg?$AA?$AA@ 0000000180025220     libcpmt:winapinls.obj
 0002:00002230       ??_C@_1M@KPMILCJG@?$AAl?$AAt?$AA?9?$AAl?$AAt?$AA?$AA@ 0000000180025230     libcpmt:winapinls.obj
 0002:00002240       ??_C@_1M@BDEKKCA@?$AAl?$AAv?$AA?9?$AAl?$AAv?$AA?$AA@ 0000000180025240     libcpmt:winapinls.obj
 0002:00002250       ??_C@_1M@ELCKCCJJ@?$AAm?$AAi?$AA?9?$AAn?$AAz?$AA?$AA@ 0000000180025250     libcpmt:winapinls.obj
 0002:00002260       ??_C@_1M@CBOOLAPA@?$AAm?$AAk?$AA?9?$AAm?$AAk?$AA?$AA@ 0000000180025260     libcpmt:winapinls.obj
 0002:00002270       ??_C@_1M@GPHNBJKN@?$AAm?$AAl?$AA?9?$AAi?$AAn?$AA?$AA@ 0000000180025270     libcpmt:winapinls.obj
 0002:00002280       ??_C@_1M@PABJILIG@?$AAm?$AAn?$AA?9?$AAm?$AAn?$AA?$AA@ 0000000180025280     libcpmt:winapinls.obj
 0002:00002290       ??_C@_1M@FGBKKIPG@?$AAm?$AAr?$AA?9?$AAi?$AAn?$AA?$AA@ 0000000180025290     libcpmt:winapinls.obj
 0002:000022a0       ??_C@_1M@NDBPDDAL@?$AAm?$AAs?$AA?9?$AAb?$AAn?$AA?$AA@ 00000001800252a0     libcpmt:winapinls.obj
 0002:000022b0       ??_C@_1M@OPIHOOPI@?$AAm?$AAs?$AA?9?$AAm?$AAy?$AA?$AA@ 00000001800252b0     libcpmt:winapinls.obj
 0002:000022c0       ??_C@_1M@PPDBCNFM@?$AAm?$AAt?$AA?9?$AAm?$AAt?$AA?$AA@ 00000001800252c0     libcpmt:winapinls.obj
 0002:000022d0       ??_C@_1M@KDJDKMDD@?$AAn?$AAb?$AA?9?$AAn?$AAo?$AA?$AA@ 00000001800252d0     libcpmt:winapinls.obj
 0002:000022e0       ??_C@_1M@KFCFLMJP@?$AAn?$AAl?$AA?9?$AAb?$AAe?$AA?$AA@ 00000001800252e0     libcpmt:winapinls.obj
 0002:000022f0       ??_C@_1M@KPOPDDGO@?$AAn?$AAl?$AA?9?$AAn?$AAl?$AA?$AA@ 00000001800252f0     libcpmt:winapinls.obj
 0002:00002300       ??_C@_1M@LJKPEMLN@?$AAn?$AAn?$AA?9?$AAn?$AAo?$AA?$AA@ 0000000180025300     libcpmt:winapinls.obj
 0002:00002310       ??_C@_1M@BDGHHBFL@?$AAn?$AAs?$AA?9?$AAz?$AAa?$AA?$AA@ 0000000180025310     libcpmt:winapinls.obj
 0002:00002320       ??_C@_1M@IDEHOAP@?$AAp?$AAa?$AA?9?$AAi?$AAn?$AA?$AA@ 0000000180025320     libcpmt:winapinls.obj
 0002:00002330       ??_C@_1M@HDBKGOGH@?$AAp?$AAl?$AA?9?$AAp?$AAl?$AA?$AA@ 0000000180025330     libcpmt:winapinls.obj
 0002:00002340       ??_C@_1M@LJLLCMEH@?$AAp?$AAt?$AA?9?$AAb?$AAr?$AA?$AA@ 0000000180025340     libcpmt:winapinls.obj
 0002:00002350       ??_C@_1M@NCMONAAL@?$AAp?$AAt?$AA?9?$AAp?$AAt?$AA?$AA@ 0000000180025350     libcpmt:winapinls.obj
 0002:00002360       ??_C@_1O@EAKMAJDN@?$AAq?$AAu?$AAz?$AA?9?$AAb?$AAo?$AA?$AA@ 0000000180025360     libcpmt:winapinls.obj
 0002:00002370       ??_C@_1O@BHHPIGDN@?$AAq?$AAu?$AAz?$AA?9?$AAe?$AAc?$AA?$AA@ 0000000180025370     libcpmt:winapinls.obj
 0002:00002380       ??_C@_1O@GBAPEKMJ@?$AAq?$AAu?$AAz?$AA?9?$AAp?$AAe?$AA?$AA@ 0000000180025380     libcpmt:winapinls.obj
 0002:00002390       ??_C@_1M@CLGLEFBO@?$AAr?$AAo?$AA?9?$AAr?$AAo?$AA?$AA@ 0000000180025390     libcpmt:winapinls.obj
 0002:000023a0       ??_C@_1M@CEEDODME@?$AAr?$AAu?$AA?9?$AAr?$AAu?$AA?$AA@ 00000001800253a0     libcpmt:winapinls.obj
 0002:000023b0       ??_C@_1M@HPKKKMPP@?$AAs?$AAa?$AA?9?$AAi?$AAn?$AA?$AA@ 00000001800253b0     libcpmt:winapinls.obj
 0002:000023c0       ??_C@_1M@BKMAIGOJ@?$AAs?$AAe?$AA?9?$AAf?$AAi?$AA?$AA@ 00000001800253c0     libcpmt:winapinls.obj
 0002:000023d0       ??_C@_1M@NDPIFLFI@?$AAs?$AAe?$AA?9?$AAn?$AAo?$AA?$AA@ 00000001800253d0     libcpmt:winapinls.obj
 0002:000023e0       ??_C@_1M@DANKKHJ@?$AAs?$AAe?$AA?9?$AAs?$AAe?$AA?$AA@ 00000001800253e0     libcpmt:winapinls.obj
 0002:000023f0       ??_C@_1M@PNBLONPJ@?$AAs?$AAk?$AA?9?$AAs?$AAk?$AA?$AA@ 00000001800253f0     libcpmt:winapinls.obj
 0002:00002400       ??_C@_1M@LFMODOAL@?$AAs?$AAl?$AA?9?$AAs?$AAi?$AA?$AA@ 0000000180025400     libcpmt:winapinls.obj
 0002:00002410       ??_C@_1O@DFKOMPG@?$AAs?$AAm?$AAa?$AA?9?$AAn?$AAo?$AA?$AA@ 0000000180025410     libcpmt:winapinls.obj
 0002:00002420       ??_C@_1O@NDKPBNNH@?$AAs?$AAm?$AAa?$AA?9?$AAs?$AAe?$AA?$AA@ 0000000180025420     libcpmt:winapinls.obj
 0002:00002430       ??_C@_1O@PLLKBHAB@?$AAs?$AAm?$AAj?$AA?9?$AAn?$AAo?$AA?$AA@ 0000000180025430     libcpmt:winapinls.obj
 0002:00002440       ??_C@_1O@CLEPOGCA@?$AAs?$AAm?$AAj?$AA?9?$AAs?$AAe?$AA?$AA@ 0000000180025440     libcpmt:winapinls.obj
 0002:00002450       ??_C@_1O@DLGJGKMK@?$AAs?$AAm?$AAn?$AA?9?$AAf?$AAi?$AA?$AA@ 0000000180025450     libcpmt:winapinls.obj
 0002:00002460       ??_C@_1O@OJDJGAJC@?$AAs?$AAm?$AAs?$AA?9?$AAf?$AAi?$AA?$AA@ 0000000180025460     libcpmt:winapinls.obj
 0002:00002470       ??_C@_1M@BOFOGHPB@?$AAs?$AAq?$AA?9?$AAa?$AAl?$AA?$AA@ 0000000180025470     libcpmt:winapinls.obj
 0002:00002480       ??_C@_1BG@LJBBIPGB@?$AAs?$AAr?$AA?9?$AAb?$AAa?$AA?9?$AAc?$AAy?$AAr?$AAl?$AA?$AA@ 0000000180025480     libcpmt:winapinls.obj
 0002:00002498       ??_C@_1BG@JLBENFOE@?$AAs?$AAr?$AA?9?$AAb?$AAa?$AA?9?$AAl?$AAa?$AAt?$AAn?$AA?$AA@ 0000000180025498     libcpmt:winapinls.obj
 0002:000024b0       ??_C@_1BG@KODPNHE@?$AAs?$AAr?$AA?9?$AAs?$AAp?$AA?9?$AAc?$AAy?$AAr?$AAl?$AA?$AA@ 00000001800254b0     libcpmt:winapinls.obj
 0002:000024c8       ??_C@_1BG@CIOGKHPB@?$AAs?$AAr?$AA?9?$AAs?$AAp?$AA?9?$AAl?$AAa?$AAt?$AAn?$AA?$AA@ 00000001800254c8     libcpmt:winapinls.obj
 0002:000024e0       ??_C@_1M@NGFJLMAC@?$AAs?$AAv?$AA?9?$AAf?$AAi?$AA?$AA@ 00000001800254e0     libcpmt:winapinls.obj
 0002:000024f0       ??_C@_1M@MPJEJAJC@?$AAs?$AAv?$AA?9?$AAs?$AAe?$AA?$AA@ 00000001800254f0     libcpmt:winapinls.obj
 0002:00002500       ??_C@_1M@MPNDHLFK@?$AAs?$AAw?$AA?9?$AAk?$AAe?$AA?$AA@ 0000000180025500     libcpmt:winapinls.obj
 0002:00002510       ??_C@_1O@KOHBJJI@?$AAs?$AAy?$AAr?$AA?9?$AAs?$AAy?$AA?$AA@ 0000000180025510     libcpmt:winapinls.obj
 0002:00002520       ??_C@_1M@LDCEFHA@?$AAt?$AAa?$AA?9?$AAi?$AAn?$AA?$AA@ 0000000180025520     libcpmt:winapinls.obj
 0002:00002530       ??_C@_1M@CNJOFAK@?$AAt?$AAe?$AA?9?$AAi?$AAn?$AA?$AA@ 0000000180025530     libcpmt:winapinls.obj
 0002:00002540       ??_C@_1M@GNAECACD@?$AAt?$AAh?$AA?9?$AAt?$AAh?$AA?$AA@ 0000000180025540     libcpmt:winapinls.obj
 0002:00002550       ??_C@_1M@CHBIHOJO@?$AAt?$AAn?$AA?9?$AAz?$AAa?$AA?$AA@ 0000000180025550     libcpmt:winapinls.obj
 0002:00002560       ??_C@_1M@GCCMIGPJ@?$AAt?$AAr?$AA?9?$AAt?$AAr?$AA?$AA@ 0000000180025560     libcpmt:winapinls.obj
 0002:00002570       ??_C@_1M@CELMCNBK@?$AAt?$AAt?$AA?9?$AAr?$AAu?$AA?$AA@ 0000000180025570     libcpmt:winapinls.obj
 0002:00002580       ??_C@_1M@KLMCELGA@?$AAu?$AAk?$AA?9?$AAu?$AAa?$AA?$AA@ 0000000180025580     libcpmt:winapinls.obj
 0002:00002590       ??_C@_1M@EPAJJAJF@?$AAu?$AAr?$AA?9?$AAp?$AAk?$AA?$AA@ 0000000180025590     libcpmt:winapinls.obj
 0002:000025a0       ??_C@_1BG@GEGPMCDJ@?$AAu?$AAz?$AA?9?$AAu?$AAz?$AA?9?$AAc?$AAy?$AAr?$AAl?$AA?$AA@ 00000001800255a0     libcpmt:winapinls.obj
 0002:000025b8       ??_C@_1BG@EGGKJILM@?$AAu?$AAz?$AA?9?$AAu?$AAz?$AA?9?$AAl?$AAa?$AAt?$AAn?$AA?$AA@ 00000001800255b8     libcpmt:winapinls.obj
 0002:000025d0       ??_C@_1M@GFOCLFF@?$AAv?$AAi?$AA?9?$AAv?$AAn?$AA?$AA@ 00000001800255d0     libcpmt:winapinls.obj
 0002:000025e0       ??_C@_1M@CPAMEDFI@?$AAx?$AAh?$AA?9?$AAz?$AAa?$AA?$AA@ 00000001800255e0     libcpmt:winapinls.obj
 0002:000025f0       ??_C@_1O@EBKIFIGN@?$AAz?$AAh?$AA?9?$AAc?$AAh?$AAs?$AA?$AA@ 00000001800255f0     libcpmt:winapinls.obj
 0002:00002600       ??_C@_1O@NMHPGANE@?$AAz?$AAh?$AA?9?$AAc?$AAh?$AAt?$AA?$AA@ 0000000180025600     libcpmt:winapinls.obj
 0002:00002610       ??_C@_1M@LPINJOMC@?$AAz?$AAh?$AA?9?$AAc?$AAn?$AA?$AA@ 0000000180025610     libcpmt:winapinls.obj
 0002:00002620       ??_C@_1M@OCJEJODD@?$AAz?$AAh?$AA?9?$AAh?$AAk?$AA?$AA@ 0000000180025620     libcpmt:winapinls.obj
 0002:00002630       ??_C@_1M@DNDLJINH@?$AAz?$AAh?$AA?9?$AAm?$AAo?$AA?$AA@ 0000000180025630     libcpmt:winapinls.obj
 0002:00002640       ??_C@_1M@MBFDNDND@?$AAz?$AAh?$AA?9?$AAs?$AAg?$AA?$AA@ 0000000180025640     libcpmt:winapinls.obj
 0002:00002650       ??_C@_1M@IMEPLEPE@?$AAz?$AAh?$AA?9?$AAt?$AAw?$AA?$AA@ 0000000180025650     libcpmt:winapinls.obj
 0002:00002660       ??_C@_1M@BBGHNHJP@?$AAz?$AAu?$AA?9?$AAz?$AAa?$AA?$AA@ 0000000180025660     libcpmt:winapinls.obj
 0002:000042f0       ??_C@_15EMKDOKLE@?$AAa?$AAr?$AA?$AA@ 00000001800272f0     libcpmt:winapinls.obj
 0002:000042f8       ??_C@_15KNPADPLH@?$AAb?$AAg?$AA?$AA@ 00000001800272f8     libcpmt:winapinls.obj
 0002:00004300       ??_C@_15EDMHLDMO@?$AAc?$AAa?$AA?$AA@ 0000000180027300     libcpmt:winapinls.obj
 0002:00004308       ??_C@_1O@BPEAJADD@?$AAz?$AAh?$AA?9?$AAC?$AAH?$AAS?$AA?$AA@ 0000000180027308     libcpmt:winapinls.obj
 0002:00004318       ??_C@_15LJNHCMNK@?$AAc?$AAs?$AA?$AA@ 0000000180027318     libcpmt:winapinls.obj
 0002:00004320       ??_C@_15FOMCIDHG@?$AAd?$AAa?$AA?$AA@ 0000000180027320     libcpmt:winapinls.obj
 0002:00004328       ??_C@_15NBKABECB@?$AAd?$AAe?$AA?$AA@ 0000000180027328     libcpmt:winapinls.obj
 0002:00004330       ??_C@_15GHPEIIAO@?$AAe?$AAl?$AA?$AA@ 0000000180027330     libcpmt:winapinls.obj
 0002:00004338       ??_C@_15MNPNEAIF@?$AAe?$AAn?$AA?$AA@ 0000000180027338     libcpmt:winapinls.obj
 0002:00004340       ??_C@_15GPIOMPMH@?$AAe?$AAs?$AA?$AA@ 0000000180027340     libcpmt:winapinls.obj
 0002:00004348       ??_C@_15NGLOAKJC@?$AAf?$AAi?$AA?$AA@ 0000000180027348     libcpmt:winapinls.obj
 0002:00004350       ??_C@_15FBKGNKAM@?$AAf?$AAr?$AA?$AA@ 0000000180027350     libcpmt:winapinls.obj
 0002:00004358       ??_C@_15KGGCNEFK@?$AAh?$AAe?$AA?$AA@ 0000000180027358     libcpmt:winapinls.obj
 0002:00004360       ??_C@_15PGHLIDMF@?$AAh?$AAu?$AA?$AA@ 0000000180027360     libcpmt:winapinls.obj
 0002:00004368       ??_C@_15BIEMAPLM@?$AAi?$AAs?$AA?$AA@ 0000000180027368     libcpmt:winapinls.obj
 0002:00004370       ??_C@_15IFJLDHAF@?$AAi?$AAt?$AA?$AA@ 0000000180027370     libcpmt:winapinls.obj
 0002:00004378       ??_C@_15GEMIOCAG@?$AAj?$AAa?$AA?$AA@ 0000000180027378     libcpmt:winapinls.obj
 0002:00004380       ??_C@_15EPELEGJA@?$AAk?$AAo?$AA?$AA@ 0000000180027380     libcpmt:winapinls.obj
 0002:00004388       ??_C@_15NDDHIMN@?$AAn?$AAl?$AA?$AA@ 0000000180027388     libcpmt:winapinls.obj
 0002:00004390       ??_C@_15BPIGNHCD@?$AAn?$AAo?$AA?$AA@ 0000000180027390     libcpmt:winapinls.obj
 0002:00004398       ??_C@_15DEOPBLCG@?$AAp?$AAl?$AA?$AA@ 0000000180027398     libcpmt:winapinls.obj
 0002:000043a0       ??_C@_15KBECGEFG@?$AAp?$AAt?$AA?$AA@ 00000001800273a0     libcpmt:winapinls.obj
 0002:000043a8       ??_C@_15GLJCBFMD@?$AAr?$AAo?$AA?$AA@ 00000001800273a8     libcpmt:winapinls.obj
 0002:000043b0       ??_C@_15FEDGKCDI@?$AAr?$AAu?$AA?$AA@ 00000001800273b0     libcpmt:winapinls.obj
 0002:000043b8       ??_C@_15GLKMLLHM@?$AAh?$AAr?$AA?$AA@ 00000001800273b8     libcpmt:winapinls.obj
 0002:000043c0       ??_C@_15CPKMFBDB@?$AAs?$AAk?$AA?$AA@ 00000001800273c0     libcpmt:winapinls.obj
 0002:000043c8       ??_C@_15BAAIOGMK@?$AAs?$AAq?$AA?$AA@ 00000001800273c8     libcpmt:winapinls.obj
 0002:000043d0       ??_C@_15INNPNOHD@?$AAs?$AAv?$AA?$AA@ 00000001800273d0     libcpmt:winapinls.obj
 0002:000043d8       ??_C@_15CABMMOGH@?$AAt?$AAh?$AA?$AA@ 00000001800273d8     libcpmt:winapinls.obj
 0002:000043e0       ??_C@_15BPLIHJJM@?$AAt?$AAr?$AA?$AA@ 00000001800273e0     libcpmt:winapinls.obj
 0002:000043e8       ??_C@_15NEOEKKDJ@?$AAu?$AAr?$AA?$AA@ 00000001800273e8     libcpmt:winapinls.obj
 0002:000043f0       ??_C@_15NFICGAJK@?$AAi?$AAd?$AA?$AA@ 00000001800273f0     libcpmt:winapinls.obj
 0002:000043f8       ??_C@_15PJPFLCCM@?$AAu?$AAk?$AA?$AA@ 00000001800273f8     libcpmt:winapinls.obj
 0002:00004400       ??_C@_15HPJPHDM@?$AAb?$AAe?$AA?$AA@ 0000000180027400     libcpmt:winapinls.obj
 0002:00004408       ??_C@_15LCHLGJII@?$AAs?$AAl?$AA?$AA@ 0000000180027408     libcpmt:winapinls.obj
 0002:00004410       ??_C@_15PCFJPHHO@?$AAe?$AAt?$AA?$AA@ 0000000180027410     libcpmt:winapinls.obj
 0002:00004418       ??_C@_15HPFPGODN@?$AAl?$AAv?$AA?$AA@ 0000000180027418     libcpmt:winapinls.obj
 0002:00004420       ??_C@_15NFFGKGLG@?$AAl?$AAt?$AA?$AA@ 0000000180027420     libcpmt:winapinls.obj
 0002:00004428       ??_C@_15BDAKCCHN@?$AAf?$AAa?$AA?$AA@ 0000000180027428     libcpmt:winapinls.obj
 0002:00004430       ??_C@_15NFGIAIAJ@?$AAv?$AAi?$AA?$AA@ 0000000180027430     libcpmt:winapinls.obj
 0002:00004438       ??_C@_15LMKNDMHN@?$AAh?$AAy?$AA?$AA@ 0000000180027438     libcpmt:winapinls.obj
 0002:00004440       ??_C@_15IJBHMCFL@?$AAa?$AAz?$AA?$AA@ 0000000180027440     libcpmt:winapinls.obj
 0002:00004448       ??_C@_15EKOFJABL@?$AAe?$AAu?$AA?$AA@ 0000000180027448     libcpmt:winapinls.obj
 0002:00004450       ??_C@_15BGHADCNK@?$AAm?$AAk?$AA?$AA@ 0000000180027450     libcpmt:winapinls.obj
 0002:00004458       ??_C@_15JDNICKHM@?$AAa?$AAf?$AA?$AA@ 0000000180027458     libcpmt:winapinls.obj
 0002:00004460       ??_C@_15KPJEDBKD@?$AAk?$AAa?$AA?$AA@ 0000000180027460     libcpmt:winapinls.obj
 0002:00004468       ??_C@_15PDNFFFEO@?$AAf?$AAo?$AA?$AA@ 0000000180027468     libcpmt:winapinls.obj
 0002:00004470       ??_C@_15OMLEGLOC@?$AAh?$AAi?$AA?$AA@ 0000000180027470     libcpmt:winapinls.obj
 0002:00004478       ??_C@_15IDNNENKK@?$AAm?$AAs?$AA?$AA@ 0000000180027478     libcpmt:winapinls.obj
 0002:00004480       ??_C@_15MACJNBMH@?$AAk?$AAk?$AA?$AA@ 0000000180027480     libcpmt:winapinls.obj
 0002:00004488       ??_C@_15DKDJEOND@?$AAk?$AAy?$AA?$AA@ 0000000180027488     libcpmt:winapinls.obj
 0002:00004490       ??_C@_15DFGDLJBG@?$AAs?$AAw?$AA?$AA@ 0000000180027490     libcpmt:winapinls.obj
 0002:00004498       ??_C@_15BBFAICNG@?$AAu?$AAz?$AA?$AA@ 0000000180027498     libcpmt:winapinls.obj
 0002:000044a0       ??_C@_15DKNDCGEA@?$AAt?$AAt?$AA?$AA@ 00000001800274a0     libcpmt:winapinls.obj
 0002:000044a8       ??_C@_15MGIFMDPL@?$AAp?$AAa?$AA?$AA@ 00000001800274a8     libcpmt:winapinls.obj
 0002:000044b0       ??_C@_15HCNDBBA@?$AAg?$AAu?$AA?$AA@ 00000001800274b0     libcpmt:winapinls.obj
 0002:000044b8       ??_C@_15FNBEIBON@?$AAt?$AAa?$AA?$AA@ 00000001800274b8     libcpmt:winapinls.obj
 0002:000044c0       ??_C@_15NCHGBGLK@?$AAt?$AAe?$AA?$AA@ 00000001800274c0     libcpmt:winapinls.obj
 0002:000044c8       ??_C@_15PHPHCBPF@?$AAk?$AAn?$AA?$AA@ 00000001800274c8     libcpmt:winapinls.obj
 0002:000044d0       ??_C@_15DLGBCKMP@?$AAm?$AAr?$AA?$AA@ 00000001800274d0     libcpmt:winapinls.obj
 0002:000044d8       ??_C@_15EABBLBFF@?$AAs?$AAa?$AA?$AA@ 00000001800274d8     libcpmt:winapinls.obj
 0002:000044e0       ??_C@_15CBKOMCOI@?$AAm?$AAn?$AA?$AA@ 00000001800274e0     libcpmt:winapinls.obj
 0002:000044e8       ??_C@_15CKDMCJAF@?$AAg?$AAl?$AA?$AA@ 00000001800274e8     libcpmt:winapinls.obj
 0002:000044f0       ??_C@_17CNJFBPG@?$AAk?$AAo?$AAk?$AA?$AA@ 00000001800274f0     libcpmt:winapinls.obj
 0002:000044f8       ??_C@_17FFBJICPL@?$AAs?$AAy?$AAr?$AA?$AA@ 00000001800274f8     libcpmt:winapinls.obj
 0002:00004500       ??_C@_17KPNDCPAF@?$AAd?$AAi?$AAv?$AA?$AA@ 0000000180027500     libcpmt:winapinls.obj
 0002:00004508       ??_C@_1M@OKAHONE@?$AAa?$AAr?$AA?9?$AAS?$AAA?$AA?$AA@ 0000000180027508     libcpmt:winapinls.obj
 0002:00004518       ??_C@_1M@FFFIGIGK@?$AAb?$AAg?$AA?9?$AAB?$AAG?$AA?$AA@ 0000000180027518     libcpmt:winapinls.obj
 0002:00004528       ??_C@_1M@BJNKEDC@?$AAc?$AAa?$AA?9?$AAE?$AAS?$AA?$AA@ 0000000180027528     libcpmt:winapinls.obj
 0002:00004538       ??_C@_1M@CLNBBOPM@?$AAz?$AAh?$AA?9?$AAT?$AAW?$AA?$AA@ 0000000180027538     libcpmt:winapinls.obj
 0002:00004548       ??_C@_1M@IJJHFJHA@?$AAc?$AAs?$AA?9?$AAC?$AAZ?$AA?$AA@ 0000000180027548     libcpmt:winapinls.obj
 0002:00004558       ??_C@_1M@CLPEOBGI@?$AAd?$AAa?$AA?9?$AAD?$AAK?$AA?$AA@ 0000000180027558     libcpmt:winapinls.obj
 0002:00004568       ??_C@_1M@MCMADGCB@?$AAd?$AAe?$AA?9?$AAD?$AAE?$AA?$AA@ 0000000180027568     libcpmt:winapinls.obj
 0002:00004578       ??_C@_1M@OOCKEMAM@?$AAe?$AAl?$AA?9?$AAG?$AAR?$AA?$AA@ 0000000180027578     libcpmt:winapinls.obj
 0002:00004588       ??_C@_1M@BMHNFIME@?$AAe?$AAn?$AA?9?$AAU?$AAS?$AA?$AA@ 0000000180027588     libcpmt:winapinls.obj
 0002:00004598       ??_C@_1M@DDNJFGID@?$AAf?$AAi?$AA?9?$AAF?$AAI?$AA?$AA@ 0000000180027598     libcpmt:winapinls.obj
 0002:000045a8       ??_C@_1M@GLIPPMAC@?$AAf?$AAr?$AA?9?$AAF?$AAR?$AA?$AA@ 00000001800275a8     libcpmt:winapinls.obj
 0002:000045b8       ??_C@_1M@GFMCHPE@?$AAh?$AAe?$AA?9?$AAI?$AAL?$AA?$AA@ 00000001800275b8     libcpmt:winapinls.obj
 0002:000045c8       ??_C@_1M@MHLPGNKM@?$AAh?$AAu?$AA?9?$AAH?$AAU?$AA?$AA@ 00000001800275c8     libcpmt:winapinls.obj
 0002:000045d8       ??_C@_1M@LPDDNNPN@?$AAi?$AAs?$AA?9?$AAI?$AAS?$AA?$AA@ 00000001800275d8     libcpmt:winapinls.obj
 0002:000045e8       ??_C@_1M@MADIPODN@?$AAi?$AAt?$AA?9?$AAI?$AAT?$AA?$AA@ 00000001800275e8     libcpmt:winapinls.obj
 0002:000045f8       ??_C@_1M@HPNHIDJI@?$AAj?$AAa?$AA?9?$AAJ?$AAP?$AA?$AA@ 00000001800275f8     libcpmt:winapinls.obj
 0002:00004608       ??_C@_1M@JLOOOEGK@?$AAk?$AAo?$AA?9?$AAK?$AAR?$AA?$AA@ 0000000180027608     libcpmt:winapinls.obj
 0002:00004618       ??_C@_1M@IHBJJGG@?$AAn?$AAl?$AA?9?$AAN?$AAL?$AA?$AA@ 0000000180027618     libcpmt:winapinls.obj
 0002:00004628       ??_C@_1M@EANAGDL@?$AAn?$AAb?$AA?9?$AAN?$AAO?$AA?$AA@ 0000000180027628     libcpmt:winapinls.obj
 0002:00004638       ??_C@_1M@NEIEMEGP@?$AAp?$AAl?$AA?9?$AAP?$AAL?$AA?$AA@ 0000000180027638     libcpmt:winapinls.obj
 0002:00004648       ??_C@_1M@BOCFIGEP@?$AAp?$AAt?$AA?9?$AAB?$AAR?$AA?$AA@ 0000000180027648     libcpmt:winapinls.obj
 0002:00004658       ??_C@_1M@IMPFOPBG@?$AAr?$AAo?$AA?9?$AAR?$AAO?$AA?$AA@ 0000000180027658     libcpmt:winapinls.obj
 0002:00004668       ??_C@_1M@IDNNEJMM@?$AAr?$AAu?$AA?9?$AAR?$AAU?$AA?$AA@ 0000000180027668     libcpmt:winapinls.obj
 0002:00004678       ??_C@_1M@LILEEOGM@?$AAh?$AAr?$AA?9?$AAH?$AAR?$AA?$AA@ 0000000180027678     libcpmt:winapinls.obj
 0002:00004688       ??_C@_1M@FKIFEHPB@?$AAs?$AAk?$AA?9?$AAS?$AAK?$AA?$AA@ 0000000180027688     libcpmt:winapinls.obj
 0002:00004698       ??_C@_1M@LJMAMNPJ@?$AAs?$AAq?$AA?9?$AAA?$AAL?$AA?$AA@ 0000000180027698     libcpmt:winapinls.obj
 0002:000046a8       ??_C@_1M@GIAKDKJK@?$AAs?$AAv?$AA?9?$AAS?$AAE?$AA?$AA@ 00000001800276a8     libcpmt:winapinls.obj
 0002:000046b8       ??_C@_1M@MKJKIKCL@?$AAt?$AAh?$AA?9?$AAT?$AAH?$AA?$AA@ 00000001800276b8     libcpmt:winapinls.obj
 0002:000046c8       ??_C@_1M@MFLCCMPB@?$AAt?$AAr?$AA?9?$AAT?$AAR?$AA?$AA@ 00000001800276c8     libcpmt:winapinls.obj
 0002:000046d8       ??_C@_1M@OIJHDKJN@?$AAu?$AAr?$AA?9?$AAP?$AAK?$AA?$AA@ 00000001800276d8     libcpmt:winapinls.obj
 0002:000046e8       ??_C@_1M@LHIPCIEK@?$AAi?$AAd?$AA?9?$AAI?$AAD?$AA?$AA@ 00000001800276e8     libcpmt:winapinls.obj
 0002:000046f8       ??_C@_1M@MFMOBGI@?$AAu?$AAk?$AA?9?$AAU?$AAA?$AA?$AA@ 00000001800276f8     libcpmt:winapinls.obj
 0002:00004708       ??_C@_1M@OBGLJIPL@?$AAb?$AAe?$AA?9?$AAB?$AAY?$AA?$AA@ 0000000180027708     libcpmt:winapinls.obj
 0002:00004718       ??_C@_1M@BCFAJEAD@?$AAs?$AAl?$AA?9?$AAS?$AAI?$AA?$AA@ 0000000180027718     libcpmt:winapinls.obj
 0002:00004728       ??_C@_1M@FKFFEDDN@?$AAe?$AAt?$AA?9?$AAE?$AAE?$AA?$AA@ 0000000180027728     libcpmt:winapinls.obj
 0002:00004738       ??_C@_1M@KGKKAACI@?$AAl?$AAv?$AA?9?$AAL?$AAV?$AA?$AA@ 0000000180027738     libcpmt:winapinls.obj
 0002:00004748       ??_C@_1M@IFGBIJO@?$AAl?$AAt?$AA?9?$AAL?$AAT?$AA?$AA@ 0000000180027748     libcpmt:winapinls.obj
 0002:00004758       ??_C@_1M@FGEAHEDM@?$AAf?$AAa?$AA?9?$AAI?$AAR?$AA?$AA@ 0000000180027758     libcpmt:winapinls.obj
 0002:00004768       ??_C@_1M@KBMAIBFN@?$AAv?$AAi?$AA?9?$AAV?$AAN?$AA?$AA@ 0000000180027768     libcpmt:winapinls.obj
 0002:00004778       ??_C@_1M@GPCBKDJK@?$AAh?$AAy?$AA?9?$AAA?$AAM?$AA?$AA@ 0000000180027778     libcpmt:winapinls.obj
 0002:00004788       ??_C@_1BG@BECMDDJB@?$AAa?$AAz?$AA?9?$AAA?$AAZ?$AA?9?$AAL?$AAa?$AAt?$AAn?$AA?$AA@ 0000000180027788     libcpmt:winapinls.obj
 0002:000047a0       ??_C@_1M@MAOFCAEA@?$AAe?$AAu?$AA?9?$AAE?$AAS?$AA?$AA@ 00000001800277a0     libcpmt:winapinls.obj
 0002:000047b0       ??_C@_1M@IGHABKPI@?$AAm?$AAk?$AA?9?$AAM?$AAK?$AA?$AA@ 00000001800277b0     libcpmt:winapinls.obj
 0002:000047c0       ??_C@_1M@IAIGNEJG@?$AAt?$AAn?$AA?9?$AAZ?$AAA?$AA?$AA@ 00000001800277c0     libcpmt:winapinls.obj
 0002:000047d0       ??_C@_1M@IIJCOJFA@?$AAx?$AAh?$AA?9?$AAZ?$AAA?$AA?$AA@ 00000001800277d0     libcpmt:winapinls.obj
 0002:000047e0       ??_C@_1M@LGPJHNJH@?$AAz?$AAu?$AA?9?$AAZ?$AAA?$AA?$AA@ 00000001800277e0     libcpmt:winapinls.obj
 0002:000047f0       ??_C@_1M@HOKAOIO@?$AAa?$AAf?$AA?9?$AAZ?$AAA?$AA?$AA@ 00000001800277f0     libcpmt:winapinls.obj
 0002:00004800       ??_C@_1M@DPCLHLIE@?$AAk?$AAa?$AA?9?$AAG?$AAE?$AA?$AA@ 0000000180027800     libcpmt:winapinls.obj
 0002:00004810       ??_C@_1M@BLKMHJBI@?$AAf?$AAo?$AA?9?$AAF?$AAO?$AA?$AA@ 0000000180027810     libcpmt:winapinls.obj
 0002:00004820       ??_C@_1M@LGGJAPPB@?$AAh?$AAi?$AA?9?$AAI?$AAN?$AA?$AA@ 0000000180027820     libcpmt:winapinls.obj
 0002:00004830       ??_C@_1M@FIKPIHFE@?$AAm?$AAt?$AA?9?$AAM?$AAT?$AA?$AA@ 0000000180027830     libcpmt:winapinls.obj
 0002:00004840       ??_C@_1M@HEGGPBFA@?$AAs?$AAe?$AA?9?$AAN?$AAO?$AA?$AA@ 0000000180027840     libcpmt:winapinls.obj
 0002:00004850       ??_C@_1M@EIBJEEPA@?$AAm?$AAs?$AA?9?$AAM?$AAY?$AA?$AA@ 0000000180027850     libcpmt:winapinls.obj
 0002:00004860       ??_C@_1M@FHLBGMPP@?$AAk?$AAk?$AA?9?$AAK?$AAZ?$AA?$AA@ 0000000180027860     libcpmt:winapinls.obj
 0002:00004870       ??_C@_1M@NGJJLCGI@?$AAk?$AAy?$AA?9?$AAK?$AAG?$AA?$AA@ 0000000180027870     libcpmt:winapinls.obj
 0002:00004880       ??_C@_1M@GIENNBFC@?$AAs?$AAw?$AA?9?$AAK?$AAE?$AA?$AA@ 0000000180027880     libcpmt:winapinls.obj
 0002:00004890       ??_C@_1BG@NDGMJIMJ@?$AAu?$AAz?$AA?9?$AAU?$AAZ?$AA?9?$AAL?$AAa?$AAt?$AAn?$AA?$AA@ 0000000180027890     libcpmt:winapinls.obj
 0002:000048a8       ??_C@_1M@IDCCIHBC@?$AAt?$AAt?$AA?9?$AAR?$AAU?$AA?$AA@ 00000001800278a8     libcpmt:winapinls.obj
 0002:000048b8       ??_C@_1M@LOICPMOJ@?$AAb?$AAn?$AA?9?$AAI?$AAN?$AA?$AA@ 00000001800278b8     libcpmt:winapinls.obj
 0002:000048c8       ??_C@_1M@KPKKNEAH@?$AAp?$AAa?$AA?9?$AAI?$AAN?$AA?$AA@ 00000001800278c8     libcpmt:winapinls.obj
 0002:000048d8       ??_C@_1M@PJGPPBOG@?$AAg?$AAu?$AA?9?$AAI?$AAN?$AA?$AA@ 00000001800278d8     libcpmt:winapinls.obj
 0002:000048e8       ??_C@_1M@KMKMOPHI@?$AAt?$AAa?$AA?9?$AAI?$AAN?$AA?$AA@ 00000001800278e8     libcpmt:winapinls.obj
 0002:000048f8       ??_C@_1M@KFEHEPAC@?$AAt?$AAe?$AA?9?$AAI?$AAN?$AA?$AA@ 00000001800278f8     libcpmt:winapinls.obj
 0002:00004908       ??_C@_1M@CDCLMGHI@?$AAk?$AAn?$AA?9?$AAI?$AAN?$AA?$AA@ 0000000180027908     libcpmt:winapinls.obj
 0002:00004918       ??_C@_1M@MIODLDKF@?$AAm?$AAl?$AA?9?$AAI?$AAN?$AA?$AA@ 0000000180027918     libcpmt:winapinls.obj
 0002:00004928       ??_C@_1M@PBIEACPO@?$AAm?$AAr?$AA?9?$AAI?$AAN?$AA?$AA@ 0000000180027928     libcpmt:winapinls.obj
 0002:00004938       ??_C@_1M@NIDEAGPH@?$AAs?$AAa?$AA?9?$AAI?$AAN?$AA?$AA@ 0000000180027938     libcpmt:winapinls.obj
 0002:00004948       ??_C@_1M@FHIHCBIO@?$AAm?$AAn?$AA?9?$AAM?$AAN?$AA?$AA@ 0000000180027948     libcpmt:winapinls.obj
 0002:00004958       ??_C@_1M@JAIJPENP@?$AAc?$AAy?$AA?9?$AAG?$AAB?$AA?$AA@ 0000000180027958     libcpmt:winapinls.obj
 0002:00004968       ??_C@_1M@PHGFBEPN@?$AAg?$AAl?$AA?9?$AAE?$AAS?$AA?$AA@ 0000000180027968     libcpmt:winapinls.obj
 0002:00004978       ??_C@_1O@KPIPDNCP@?$AAk?$AAo?$AAk?$AA?9?$AAI?$AAN?$AA?$AA@ 0000000180027978     libcpmt:winapinls.obj
 0002:00004988       ??_C@_1O@KNHJLDJA@?$AAs?$AAy?$AAr?$AA?9?$AAS?$AAY?$AA?$AA@ 0000000180027988     libcpmt:winapinls.obj
 0002:00004998       ??_C@_1O@MKEKBLAH@?$AAd?$AAi?$AAv?$AA?9?$AAM?$AAV?$AA?$AA@ 0000000180027998     libcpmt:winapinls.obj
 0002:000049a8       ??_C@_1O@OHDCKDDF@?$AAq?$AAu?$AAz?$AA?9?$AAB?$AAO?$AA?$AA@ 00000001800279a8     libcpmt:winapinls.obj
 0002:000049b8       ??_C@_1M@LEPJNLFD@?$AAn?$AAs?$AA?9?$AAZ?$AAA?$AA?$AA@ 00000001800279b8     libcpmt:winapinls.obj
 0002:000049c8       ??_C@_1M@OMLEIIJB@?$AAm?$AAi?$AA?9?$AAN?$AAZ?$AA?$AA@ 00000001800279c8     libcpmt:winapinls.obj
 0002:000049d8       ??_C@_1M@PMPEAILG@?$AAa?$AAr?$AA?9?$AAI?$AAQ?$AA?$AA@ 00000001800279d8     libcpmt:winapinls.obj
 0002:000049e8       ??_C@_1M@BIBDDEMK@?$AAz?$AAh?$AA?9?$AAC?$AAN?$AA?$AA@ 00000001800279e8     libcpmt:winapinls.obj
 0002:000049f8       ??_C@_1M@CNKPNOEE@?$AAd?$AAe?$AA?9?$AAC?$AAH?$AA?$AA@ 00000001800279f8     libcpmt:winapinls.obj
 0002:00004a08       ??_C@_1M@LKMGMLKO@?$AAe?$AAn?$AA?9?$AAG?$AAB?$AA?$AA@ 0000000180027a08     libcpmt:winapinls.obj
 0002:00004a18       ??_C@_1M@PGKJFFGL@?$AAe?$AAs?$AA?9?$AAM?$AAX?$AA?$AA@ 0000000180027a18     libcpmt:winapinls.obj
 0002:00004a28       ??_C@_1M@DNNANBDC@?$AAf?$AAr?$AA?9?$AAB?$AAE?$AA?$AA@ 0000000180027a28     libcpmt:winapinls.obj
 0002:00004a38       ??_C@_1M@HLGMDFHM@?$AAi?$AAt?$AA?9?$AAC?$AAH?$AA?$AA@ 0000000180027a38     libcpmt:winapinls.obj
 0002:00004a48       ??_C@_1M@CLLBGJH@?$AAn?$AAl?$AA?9?$AAB?$AAE?$AA?$AA@ 0000000180027a48     libcpmt:winapinls.obj
 0002:00004a58       ??_C@_1M@BODBOGLF@?$AAn?$AAn?$AA?9?$AAN?$AAO?$AA?$AA@ 0000000180027a58     libcpmt:winapinls.obj
 0002:00004a68       ??_C@_1M@HFFAHKAD@?$AAp?$AAt?$AA?9?$AAP?$AAT?$AA?$AA@ 0000000180027a68     libcpmt:winapinls.obj
 0002:00004a78       ??_C@_1BG@LNOAKHIE@?$AAs?$AAr?$AA?9?$AAS?$AAP?$AA?9?$AAL?$AAa?$AAt?$AAn?$AA?$AA@ 0000000180027a78     libcpmt:winapinls.obj
 0002:00004a90       ??_C@_1M@HBMHBGAK@?$AAs?$AAv?$AA?9?$AAF?$AAI?$AA?$AA@ 0000000180027a90     libcpmt:winapinls.obj
 0002:00004aa0       ??_C@_1BG@DGCJGJBE@?$AAa?$AAz?$AA?9?$AAA?$AAZ?$AA?9?$AAC?$AAy?$AAr?$AAl?$AA?$AA@ 0000000180027aa0     libcpmt:winapinls.obj
 0002:00004ab8       ??_C@_1M@KEJDAAHB@?$AAs?$AAe?$AA?9?$AAS?$AAE?$AA?$AA@ 0000000180027ab8     libcpmt:winapinls.obj
 0002:00004ac8       ??_C@_1M@HEIBJJAD@?$AAm?$AAs?$AA?9?$AAB?$AAN?$AA?$AA@ 0000000180027ac8     libcpmt:winapinls.obj
 0002:00004ad8       ??_C@_1BG@PBGJMCEM@?$AAu?$AAz?$AA?9?$AAU?$AAZ?$AA?9?$AAC?$AAy?$AAr?$AAl?$AA?$AA@ 0000000180027ad8     libcpmt:winapinls.obj
 0002:00004af0       ??_C@_1O@LAOBCMDF@?$AAq?$AAu?$AAz?$AA?9?$AAE?$AAC?$AA?$AA@ 0000000180027af0     libcpmt:winapinls.obj
 0002:00004b00       ??_C@_1M@POEEMAIO@?$AAa?$AAr?$AA?9?$AAE?$AAG?$AA?$AA@ 0000000180027b00     libcpmt:winapinls.obj
 0002:00004b10       ??_C@_1M@EFAKDEDL@?$AAz?$AAh?$AA?9?$AAH?$AAK?$AA?$AA@ 0000000180027b10     libcpmt:winapinls.obj
 0002:00004b20       ??_C@_1M@HKKIJHGI@?$AAd?$AAe?$AA?9?$AAA?$AAT?$AA?$AA@ 0000000180027b20     libcpmt:winapinls.obj
 0002:00004b30       ??_C@_1M@KBFBEHJF@?$AAe?$AAn?$AA?9?$AAA?$AAU?$AA?$AA@ 0000000180027b30     libcpmt:winapinls.obj
 0002:00004b40       ??_C@_1M@MNPLFAAH@?$AAe?$AAs?$AA?9?$AAE?$AAS?$AA?$AA@ 0000000180027b40     libcpmt:winapinls.obj
 0002:00004b50       ??_C@_1M@HJOOJFMA@?$AAf?$AAr?$AA?9?$AAC?$AAA?$AA?$AA@ 0000000180027b50     libcpmt:winapinls.obj
 0002:00004b60       ??_C@_1BG@JPOFPNAB@?$AAs?$AAr?$AA?9?$AAS?$AAP?$AA?9?$AAC?$AAy?$AAr?$AAl?$AA?$AA@ 0000000180027b60     libcpmt:winapinls.obj
 0002:00004b78       ??_C@_1M@LNFOCMOB@?$AAs?$AAe?$AA?9?$AAF?$AAI?$AA?$AA@ 0000000180027b78     libcpmt:winapinls.obj
 0002:00004b88       ??_C@_1O@MGJBOAMB@?$AAq?$AAu?$AAz?$AA?9?$AAP?$AAE?$AA?$AA@ 0000000180027b88     libcpmt:winapinls.obj
 0002:00004b98       ??_C@_1M@GJINLBOK@?$AAa?$AAr?$AA?9?$AAL?$AAY?$AA?$AA@ 0000000180027b98     libcpmt:winapinls.obj
 0002:00004ba8       ??_C@_1M@GGMNHJNL@?$AAz?$AAh?$AA?9?$AAS?$AAG?$AA?$AA@ 0000000180027ba8     libcpmt:winapinls.obj
 0002:00004bb8       ??_C@_1M@HOIKODND@?$AAd?$AAe?$AA?9?$AAL?$AAU?$AA?$AA@ 0000000180027bb8     libcpmt:winapinls.obj
 0002:00004bc8       ??_C@_1M@DDOCCGFG@?$AAe?$AAn?$AA?9?$AAC?$AAA?$AA?$AA@ 0000000180027bc8     libcpmt:winapinls.obj
 0002:00004bd8       ??_C@_1M@BNOEMJLF@?$AAe?$AAs?$AA?9?$AAG?$AAT?$AA?$AA@ 0000000180027bd8     libcpmt:winapinls.obj
 0002:00004be8       ??_C@_1M@EOGNKEK@?$AAf?$AAr?$AA?9?$AAC?$AAH?$AA?$AA@ 0000000180027be8     libcpmt:winapinls.obj
 0002:00004bf8       ??_C@_1M@FLIDJFHL@?$AAh?$AAr?$AA?9?$AAB?$AAA?$AA?$AA@ 0000000180027bf8     libcpmt:winapinls.obj
 0002:00004c08       ??_C@_1O@FMCELNAJ@?$AAs?$AAm?$AAj?$AA?9?$AAN?$AAO?$AA?$AA@ 0000000180027c08     libcpmt:winapinls.obj
 0002:00004c18       ??_C@_1M@JHGLJMGJ@?$AAa?$AAr?$AA?9?$AAD?$AAZ?$AA?$AA@ 0000000180027c18     libcpmt:winapinls.obj
 0002:00004c28       ??_C@_1M@JKKFDCNP@?$AAz?$AAh?$AA?9?$AAM?$AAO?$AA?$AA@ 0000000180027c28     libcpmt:winapinls.obj
 0002:00004c38       ??_C@_1M@GEEFALPE@?$AAd?$AAe?$AA?9?$AAL?$AAI?$AA?$AA@ 0000000180027c38     libcpmt:winapinls.obj
 0002:00004c48       ??_C@_1M@IGEOFBG@?$AAe?$AAn?$AA?9?$AAN?$AAZ?$AA?$AA@ 0000000180027c48     libcpmt:winapinls.obj
 0002:00004c58       ??_C@_1M@KDBONEHP@?$AAe?$AAs?$AA?9?$AAC?$AAR?$AA?$AA@ 0000000180027c58     libcpmt:winapinls.obj
 0002:00004c68       ??_C@_1M@FHMDOHNN@?$AAf?$AAr?$AA?9?$AAL?$AAU?$AA?$AA@ 0000000180027c68     libcpmt:winapinls.obj
 0002:00004c78       ??_C@_1BG@NFKKMAFG@?$AAb?$AAs?$AA?9?$AAB?$AAA?$AA?9?$AAL?$AAa?$AAt?$AAn?$AA?$AA@ 0000000180027c78     libcpmt:winapinls.obj
 0002:00004c90       ??_C@_1O@IMNBEMCI@?$AAs?$AAm?$AAj?$AA?9?$AAS?$AAE?$AA?$AA@ 0000000180027c90     libcpmt:winapinls.obj
 0002:00004ca0       ??_C@_1M@DHHMBNDP@?$AAa?$AAr?$AA?9?$AAM?$AAA?$AA?$AA@ 0000000180027ca0     libcpmt:winapinls.obj
 0002:00004cb0       ??_C@_1M@BNBLJCGH@?$AAe?$AAn?$AA?9?$AAI?$AAE?$AA?$AA@ 0000000180027cb0     libcpmt:winapinls.obj
 0002:00004cc0       ??_C@_1M@GEPAFMDL@?$AAe?$AAs?$AA?9?$AAP?$AAA?$AA?$AA@ 0000000180027cc0     libcpmt:winapinls.obj
 0002:00004cd0       ??_C@_1M@OJONDMDL@?$AAf?$AAr?$AA?9?$AAM?$AAC?$AA?$AA@ 0000000180027cd0     libcpmt:winapinls.obj
 0002:00004ce0       ??_C@_1BG@OBCNFJB@?$AAs?$AAr?$AA?9?$AAB?$AAA?$AA?9?$AAL?$AAa?$AAt?$AAn?$AA?$AA@ 0000000180027ce0     libcpmt:winapinls.obj
 0002:00004cf8       ??_C@_1O@KEMEEGPO@?$AAs?$AAm?$AAa?$AA?9?$AAN?$AAO?$AA?$AA@ 0000000180027cf8     libcpmt:winapinls.obj
 0002:00004d08       ??_C@_1M@ELMGFODK@?$AAa?$AAr?$AA?9?$AAT?$AAN?$AA?$AA@ 0000000180027d08     libcpmt:winapinls.obj
 0002:00004d18       ??_C@_1M@BHDLHFAF@?$AAe?$AAn?$AA?9?$AAZ?$AAA?$AA?$AA@ 0000000180027d18     libcpmt:winapinls.obj
 0002:00004d28       ??_C@_1M@BMGIGLIF@?$AAe?$AAs?$AA?9?$AAD?$AAO?$AA?$AA@ 0000000180027d28     libcpmt:winapinls.obj
 0002:00004d38       ??_C@_1BG@CMBHIPBE@?$AAs?$AAr?$AA?9?$AAB?$AAA?$AA?9?$AAC?$AAy?$AAr?$AAl?$AA?$AA@ 0000000180027d38     libcpmt:winapinls.obj
 0002:00004d50       ??_C@_1O@HEDBLHNP@?$AAs?$AAm?$AAa?$AA?9?$AAS?$AAE?$AA?$AA@ 0000000180027d50     libcpmt:winapinls.obj
 0002:00004d60       ??_C@_1M@DAGCADIM@?$AAa?$AAr?$AA?9?$AAO?$AAM?$AA?$AA@ 0000000180027d60     libcpmt:winapinls.obj
 0002:00004d70       ??_C@_1M@FODLMICG@?$AAe?$AAn?$AA?9?$AAJ?$AAM?$AA?$AA@ 0000000180027d70     libcpmt:winapinls.obj
 0002:00004d80       ??_C@_1M@DNMLCIHB@?$AAe?$AAs?$AA?9?$AAV?$AAE?$AA?$AA@ 0000000180027d80     libcpmt:winapinls.obj
 0002:00004d90       ??_C@_1O@EOKHMKJK@?$AAs?$AAm?$AAs?$AA?9?$AAF?$AAI?$AA?$AA@ 0000000180027d90     libcpmt:winapinls.obj
 0002:00004da0       ??_C@_1M@CAFJMKOF@?$AAa?$AAr?$AA?9?$AAY?$AAE?$AA?$AA@ 0000000180027da0     libcpmt:winapinls.obj
 0002:00004db0       ??_C@_1M@CBFHIJLI@?$AAe?$AAn?$AA?9?$AAC?$AAB?$AA?$AA@ 0000000180027db0     libcpmt:winapinls.obj
 0002:00004dc0       ??_C@_1M@BGNFLDN@?$AAe?$AAs?$AA?9?$AAC?$AAO?$AA?$AA@ 0000000180027dc0     libcpmt:winapinls.obj
 0002:00004dd0       ??_C@_1O@JMPHMAMC@?$AAs?$AAm?$AAn?$AA?9?$AAF?$AAI?$AA?$AA@ 0000000180027dd0     libcpmt:winapinls.obj
 0002:00004de0       ??_C@_1M@JLANABKE@?$AAa?$AAr?$AA?9?$AAS?$AAY?$AA?$AA@ 0000000180027de0     libcpmt:winapinls.obj
 0002:00004df0       ??_C@_1M@HPKGCFGN@?$AAe?$AAn?$AA?9?$AAB?$AAZ?$AA?$AA@ 0000000180027df0     libcpmt:winapinls.obj
 0002:00004e00       ??_C@_1M@OLJCMLGM@?$AAe?$AAs?$AA?9?$AAP?$AAE?$AA?$AA@ 0000000180027e00     libcpmt:winapinls.obj
 0002:00004e10       ??_C@_1M@MKKGFKLE@?$AAa?$AAr?$AA?9?$AAJ?$AAO?$AA?$AA@ 0000000180027e10     libcpmt:winapinls.obj
 0002:00004e20       ??_C@_1M@EKPGLDNI@?$AAe?$AAn?$AA?9?$AAT?$AAT?$AA?$AA@ 0000000180027e20     libcpmt:winapinls.obj
 0002:00004e30       ??_C@_1M@OONGHFHE@?$AAe?$AAs?$AA?9?$AAA?$AAR?$AA?$AA@ 0000000180027e30     libcpmt:winapinls.obj
 0002:00004e40       ??_C@_1M@OOJFGBHE@?$AAa?$AAr?$AA?9?$AAL?$AAB?$AA?$AA@ 0000000180027e40     libcpmt:winapinls.obj
 0002:00004e50       ??_C@_1M@GCEJHNEG@?$AAe?$AAn?$AA?9?$AAZ?$AAW?$AA?$AA@ 0000000180027e50     libcpmt:winapinls.obj
 0002:00004e60       ??_C@_1M@JNOCAHJI@?$AAe?$AAs?$AA?9?$AAE?$AAC?$AA?$AA@ 0000000180027e60     libcpmt:winapinls.obj
 0002:00004e70       ??_C@_1M@JEFHPGGB@?$AAa?$AAr?$AA?9?$AAK?$AAW?$AA?$AA@ 0000000180027e70     libcpmt:winapinls.obj
 0002:00004e80       ??_C@_1M@MLKIBJOJ@?$AAe?$AAn?$AA?9?$AAP?$AAH?$AA?$AA@ 0000000180027e80     libcpmt:winapinls.obj
 0002:00004e90       ??_C@_1M@BDNIPEND@?$AAe?$AAs?$AA?9?$AAC?$AAL?$AA?$AA@ 0000000180027e90     libcpmt:winapinls.obj
 0002:00004ea0       ??_C@_1M@MPNMEKBD@?$AAa?$AAr?$AA?9?$AAA?$AAE?$AA?$AA@ 0000000180027ea0     libcpmt:winapinls.obj
 0002:00004eb0       ??_C@_1M@KBJALCPI@?$AAe?$AAs?$AA?9?$AAU?$AAY?$AA?$AA@ 0000000180027eb0     libcpmt:winapinls.obj
 0002:00004ec0       ??_C@_1M@LLCCOAGA@?$AAa?$AAr?$AA?9?$AAB?$AAH?$AA?$AA@ 0000000180027ec0     libcpmt:winapinls.obj
 0002:00004ed0       ??_C@_1M@PBFNCDEL@?$AAe?$AAs?$AA?9?$AAP?$AAY?$AA?$AA@ 0000000180027ed0     libcpmt:winapinls.obj
 0002:00004ee0       ??_C@_1M@EDGINPNP@?$AAa?$AAr?$AA?9?$AAQ?$AAA?$AA?$AA@ 0000000180027ee0     libcpmt:winapinls.obj
 0002:00004ef0       ??_C@_1M@MKDBIIJI@?$AAe?$AAs?$AA?9?$AAB?$AAO?$AA?$AA@ 0000000180027ef0     libcpmt:winapinls.obj
 0002:00004f00       ??_C@_1M@CPKKEBLD@?$AAe?$AAs?$AA?9?$AAS?$AAV?$AA?$AA@ 0000000180027f00     libcpmt:winapinls.obj
 0002:00004f10       ??_C@_1M@NDBGMMJL@?$AAe?$AAs?$AA?9?$AAH?$AAN?$AA?$AA@ 0000000180027f10     libcpmt:winapinls.obj
 0002:00004f20       ??_C@_1M@JIJIBHDP@?$AAe?$AAs?$AA?9?$AAN?$AAI?$AA?$AA@ 0000000180027f20     libcpmt:winapinls.obj
 0002:00004f30       ??_C@_1M@CGFMKEEK@?$AAe?$AAs?$AA?9?$AAP?$AAR?$AA?$AA@ 0000000180027f30     libcpmt:winapinls.obj
 0002:00004f40       ??_C@_1O@ICJHKIIK@?$AAz?$AAh?$AA?9?$AAC?$AAH?$AAT?$AA?$AA@ 0000000180027f40     libcpmt:winapinls.obj
 0002:00004f50       ??_C@_15CLNEJCE@?$AAs?$AAr?$AA?$AA@ 0000000180027f50     libcpmt:winapinls.obj
 0002:00004f58       ??_C@_1M@KAHEKEIG@?$AAa?$AAf?$AA?9?$AAz?$AAa?$AA?$AA@ 0000000180027f58     libcpmt:winapinls.obj
 0002:00004f68       ??_C@_1M@GIECOABL@?$AAa?$AAr?$AA?9?$AAa?$AAe?$AA?$AA@ 0000000180027f68     libcpmt:winapinls.obj
 0002:00004f78       ??_C@_1M@BMLMEKGI@?$AAa?$AAr?$AA?9?$AAb?$AAh?$AA?$AA@ 0000000180027f78     libcpmt:winapinls.obj
 0002:00004f88       ??_C@_1M@DAPFDGGB@?$AAa?$AAr?$AA?9?$AAd?$AAz?$AA?$AA@ 0000000180027f88     libcpmt:winapinls.obj
 0002:00004f98       ??_C@_1M@FJNKGKIG@?$AAa?$AAr?$AA?9?$AAe?$AAg?$AA?$AA@ 0000000180027f98     libcpmt:winapinls.obj
 0002:00004fa8       ??_C@_1M@FLGKKCLO@?$AAa?$AAr?$AA?9?$AAi?$AAq?$AA?$AA@ 0000000180027fa8     libcpmt:winapinls.obj
 0002:00004fb8       ??_C@_1M@GNDIPALM@?$AAa?$AAr?$AA?9?$AAj?$AAo?$AA?$AA@ 0000000180027fb8     libcpmt:winapinls.obj
 0002:00004fc8       ??_C@_1M@DDMJFMGJ@?$AAa?$AAr?$AA?9?$AAk?$AAw?$AA?$AA@ 0000000180027fc8     libcpmt:winapinls.obj
 0002:00004fd8       ??_C@_1M@EJALMLHM@?$AAa?$AAr?$AA?9?$AAl?$AAb?$AA?$AA@ 0000000180027fd8     libcpmt:winapinls.obj
 0002:00004fe8       ??_C@_1M@MOBDBLOC@?$AAa?$AAr?$AA?9?$AAl?$AAy?$AA?$AA@ 0000000180027fe8     libcpmt:winapinls.obj
 0002:00004ff8       ??_C@_1M@JAOCLHDH@?$AAa?$AAr?$AA?9?$AAm?$AAa?$AA?$AA@ 0000000180027ff8     libcpmt:winapinls.obj
 0002:00005008       ??_C@_1M@JHPMKJIE@?$AAa?$AAr?$AA?9?$AAo?$AAm?$AA?$AA@ 0000000180028008     libcpmt:winapinls.obj
 0002:00005018       ??_C@_1M@OEPGHFNH@?$AAa?$AAr?$AA?9?$AAq?$AAa?$AA?$AA@ 0000000180028018     libcpmt:winapinls.obj
 0002:00005028       ??_C@_1M@KJDONENM@?$AAa?$AAr?$AA?9?$AAs?$AAa?$AA?$AA@ 0000000180028028     libcpmt:winapinls.obj
 0002:00005038       ??_C@_1M@DMJDKLKM@?$AAa?$AAr?$AA?9?$AAs?$AAy?$AA?$AA@ 0000000180028038     libcpmt:winapinls.obj
 0002:00005048       ??_C@_1M@OMFIPEDC@?$AAa?$AAr?$AA?9?$AAt?$AAn?$AA?$AA@ 0000000180028048     libcpmt:winapinls.obj
 0002:00005058       ??_C@_1M@IHMHGAON@?$AAa?$AAr?$AA?9?$AAy?$AAe?$AA?$AA@ 0000000180028058     libcpmt:winapinls.obj
 0002:00005068       ??_C@_1BG@KDCPGJGB@?$AAa?$AAz?$AA?9?$AAa?$AAz?$AA?9?$AAc?$AAy?$AAr?$AAl?$AA?$AA@ 0000000180028068     libcpmt:winapinls.obj
 0002:00005080       ??_C@_1BG@IBCKDDOE@?$AAa?$AAz?$AA?9?$AAa?$AAz?$AA?9?$AAl?$AAa?$AAt?$AAn?$AA?$AA@ 0000000180028080     libcpmt:winapinls.obj
 0002:00005098       ??_C@_1M@EGPFDCPD@?$AAb?$AAe?$AA?9?$AAb?$AAy?$AA?$AA@ 0000000180028098     libcpmt:winapinls.obj
 0002:000050a8       ??_C@_1M@PCMGMCGC@?$AAb?$AAg?$AA?9?$AAb?$AAg?$AA?$AA@ 00000001800280a8     libcpmt:winapinls.obj
 0002:000050b8       ??_C@_1M@BJBMFGOB@?$AAb?$AAn?$AA?9?$AAi?$AAn?$AA?$AA@ 00000001800280b8     libcpmt:winapinls.obj
 0002:000050c8       ??_C@_1BG@EAKMMACD@?$AAb?$AAs?$AA?9?$AAb?$AAa?$AA?9?$AAl?$AAa?$AAt?$AAn?$AA?$AA@ 00000001800280c8     libcpmt:winapinls.obj
 0002:000050e0       ??_C@_1M@KGADAODK@?$AAc?$AAa?$AA?9?$AAe?$AAs?$AA?$AA@ 00000001800280e0     libcpmt:winapinls.obj
 0002:000050f0       ??_C@_1M@COAJPDHI@?$AAc?$AAs?$AA?9?$AAc?$AAz?$AA?$AA@ 00000001800280f0     libcpmt:winapinls.obj
 0002:00005100       ??_C@_1M@DHBHFONH@?$AAc?$AAy?$AA?9?$AAg?$AAb?$AA?$AA@ 0000000180028100     libcpmt:winapinls.obj
 0002:00005110       ??_C@_1M@IMGKELGA@?$AAd?$AAa?$AA?9?$AAd?$AAk?$AA?$AA@ 0000000180028110     libcpmt:winapinls.obj
 0002:00005120       ??_C@_1M@NNDGDNGA@?$AAd?$AAe?$AA?9?$AAa?$AAt?$AA?$AA@ 0000000180028120     libcpmt:winapinls.obj
 0002:00005130       ??_C@_1M@IKDBHEEM@?$AAd?$AAe?$AA?9?$AAc?$AAh?$AA?$AA@ 0000000180028130     libcpmt:winapinls.obj
 0002:00005140       ??_C@_1M@GFFOJMCJ@?$AAd?$AAe?$AA?9?$AAd?$AAe?$AA?$AA@ 0000000180028140     libcpmt:winapinls.obj
 0002:00005150       ??_C@_1M@MDNLKBPM@?$AAd?$AAe?$AA?9?$AAl?$AAi?$AA?$AA@ 0000000180028150     libcpmt:winapinls.obj
 0002:00005160       ??_C@_1M@NJBEEJNL@?$AAd?$AAe?$AA?9?$AAl?$AAu?$AA?$AA@ 0000000180028160     libcpmt:winapinls.obj
 0002:00005170       ??_C@_1O@GNNELBAP@?$AAd?$AAi?$AAv?$AA?9?$AAm?$AAv?$AA?$AA@ 0000000180028170     libcpmt:winapinls.obj
 0002:00005180       ??_C@_1M@EJLEOGAE@?$AAe?$AAl?$AA?9?$AAg?$AAr?$AA?$AA@ 0000000180028180     libcpmt:winapinls.obj
 0002:00005190       ??_C@_1M@GMPONJN@?$AAe?$AAn?$AA?9?$AAa?$AAu?$AA?$AA@ 0000000180028190     libcpmt:winapinls.obj
 0002:000051a0       ??_C@_1M@NIDIIPGF@?$AAe?$AAn?$AA?9?$AAb?$AAz?$AA?$AA@ 00000001800281a0     libcpmt:winapinls.obj
 0002:000051b0       ??_C@_1M@JEHMIMFO@?$AAe?$AAn?$AA?9?$AAc?$AAa?$AA?$AA@ 00000001800281b0     libcpmt:winapinls.obj
 0002:000051c0       ??_C@_1M@IGMJCDLA@?$AAe?$AAn?$AA?9?$AAc?$AAb?$AA?$AA@ 00000001800281c0     libcpmt:winapinls.obj
 0002:000051d0       ??_C@_1M@BNFIGBKG@?$AAe?$AAn?$AA?9?$AAg?$AAb?$AA?$AA@ 00000001800281d0     libcpmt:winapinls.obj
 0002:000051e0       ??_C@_1M@LKIFDIGP@?$AAe?$AAn?$AA?9?$AAi?$AAe?$AA?$AA@ 00000001800281e0     libcpmt:winapinls.obj
 0002:000051f0       ??_C@_1M@PJKFGCCO@?$AAe?$AAn?$AA?9?$AAj?$AAm?$AA?$AA@ 00000001800281f0     libcpmt:winapinls.obj
 0002:00005200       ??_C@_1M@KPPKEPBO@?$AAe?$AAn?$AA?9?$AAn?$AAz?$AA?$AA@ 0000000180028200     libcpmt:winapinls.obj
 0002:00005240       __real@3ff0000000000000    0000000180028240     libcpmt:xfprec.obj
 0002:00005258       __real@0000000000000000    0000000180028258     libcpmt:xprec.obj
 0002:00005260       __real@bff0000000000000    0000000180028260     libcpmt:xprec.obj
 0002:00005338       ??_C@_1BC@DNHGCMLG@?$AAa?$AAd?$AAv?$AAa?$AAp?$AAi?$AA3?$AA2?$AA?$AA@ 0000000180028338     libvcruntime:winapi_downlevel.obj
 0002:00005350       ??_C@_1DM@KHCHBNEB@?$AAa?$AAp?$AAi?$AA?9?$AAm?$AAs?$AA?9?$AAw?$AAi?$AAn?$AA?9?$AAc?$AAo?$AAr?$AAe?$AA?9?$AAf?$AAi?$AAb?$AAe?$AAr?$AAs?$AA?9?$AAl?$AA1?$AA?9?$AA1?$AA?9?$AA1?$AA?$AA@ 0000000180028350     libvcruntime:winapi_downlevel.obj
 0002:00005390       ??_C@_1DK@LPPGFMPP@?$AAa?$AAp?$AAi?$AA?9?$AAm?$AAs?$AA?9?$AAw?$AAi?$AAn?$AA?9?$AAc?$AAo?$AAr?$AAe?$AA?9?$AAs?$AAy?$AAn?$AAc?$AAh?$AA?9?$AAl?$AA1?$AA?9?$AA2?$AA?9?$AA0?$AA?$AA@ 0000000180028390     libvcruntime:winapi_downlevel.obj
 0002:000053d0       ??_C@_1BC@GDMECMAK@?$AAk?$AAe?$AAr?$AAn?$AAe?$AAl?$AA3?$AA2?$AA?$AA@ 00000001800283d0     libvcruntime:winapi_downlevel.obj
 0002:000053e8       ??_C@_0O@BAMBGLIE@EventRegister?$AA@ 00000001800283e8     libvcruntime:winapi_downlevel.obj
 0002:00005400       ??_C@_0BE@BJEEGHGK@EventSetInformation?$AA@ 0000000180028400     libvcruntime:winapi_downlevel.obj
 0002:00005418       ??_C@_0BA@FAKLIPIC@EventUnregister?$AA@ 0000000180028418     libvcruntime:winapi_downlevel.obj
 0002:00005430       ??_C@_0BD@PKLHJPHD@EventWriteTransfer?$AA@ 0000000180028430     libvcruntime:winapi_downlevel.obj
 0002:00005470       _Microsoft_CRTProvider     0000000180028470     libvcruntime:telemetry.obj
 0002:00005478       ??_C@_0O@JEOPJOMI@Main?5Invoked?4?$AA@ 0000000180028478     libvcruntime:telemetry.obj
 0002:00005488       ??_C@_0P@NEAEIBDO@Main?5Returned?4?$AA@ 0000000180028488     libvcruntime:telemetry.obj
 0002:000054e0       _pDestructExceptionObject  00000001800284e0     libvcruntime:frame.obj
 0002:000054f0       ??_7bad_exception@std@@6B@ 00000001800284f0     libvcruntime:frame.obj
 0002:00005500       ??_C@_0O@DPKOEFFH@bad?5exception?$AA@ 0000000180028500     libvcruntime:frame.obj
 0002:000055a8       ??_C@_01MIFGBAGJ@?$CL?$AA@ 00000001800285a8     libvcruntime:undname.obj
 0002:000055ac       ??_C@_01HNPIGOCE@?$CG?$AA@ 00000001800285ac     libvcruntime:undname.obj
 0002:000055b0       ??_C@_03MNHNFDLC@?9?$DO?$CK?$AA@ 00000001800285b0     libvcruntime:undname.obj
 0002:000055b4       ??_C@_01KMDKNFGN@?1?$AA@   00000001800285b4     libvcruntime:undname.obj
 0002:000055b8       ??_C@_01FGNFDNOH@?$CF?$AA@ 00000001800285b8     libvcruntime:undname.obj
 0002:000055bc       ??_C@_01MNNFJEPP@?$DM?$AA@ 00000001800285bc     libvcruntime:undname.obj
 0002:000055c0       ??_C@_02EHCHHCKH@?$DM?$DN?$AA@ 00000001800285c0     libvcruntime:undname.obj
 0002:000055c4       ??_C@_01PPODPGHN@?$DO?$AA@ 00000001800285c4     libvcruntime:undname.obj
 0002:000055c8       ??_C@_02EEKDKGMJ@?$DO?$DN?$AA@ 00000001800285c8     libvcruntime:undname.obj
 0002:000055cc       ??_C@_01IHBHIGKO@?0?$AA@   00000001800285cc     libvcruntime:undname.obj
 0002:000055d0       ??_C@_02HCKGKOFO@?$CI?$CJ?$AA@ 00000001800285d0     libvcruntime:undname.obj
 0002:000055d4       ??_C@_01PJKLJHI@?$HO?$AA@  00000001800285d4     libvcruntime:undname.obj
 0002:000055d8       ??_C@_01JKBOJNNK@?$FO?$AA@ 00000001800285d8     libvcruntime:undname.obj
 0002:000055dc       ??_C@_01DNKMNLPK@?$HM?$AA@ 00000001800285dc     libvcruntime:undname.obj
 0002:000055e0       ??_C@_02PPKAJPJL@?$CG?$CG?$AA@ 00000001800285e0     libvcruntime:undname.obj
 0002:000055e4       ??_C@_02NONPIBCD@?$HM?$HM?$AA@ 00000001800285e4     libvcruntime:undname.obj
 0002:000055e8       ??_C@_02FPIMKNGF@?$CK?$DN?$AA@ 00000001800285e8     libvcruntime:undname.obj
 0002:000055ec       ??_C@_02FOEOMHFC@?$CL?$DN?$AA@ 00000001800285ec     libvcruntime:undname.obj
 0002:000055f0       ??_C@_02FKMDLLOA@?9?$DN?$AA@ 00000001800285f0     libvcruntime:undname.obj
 0002:000055f4       ??_C@_02FJEHGPIO@?1?$DN?$AA@ 00000001800285f4     libvcruntime:undname.obj
 0002:000055f8       ??_C@_02FENAOKFI@?$CF?$DN?$AA@ 00000001800285f8     libvcruntime:undname.obj
 0002:000055fc       ??_C@_03IKFCCPFF@?$DO?$DO?$DN?$AA@ 00000001800285fc     libvcruntime:undname.obj
 0002:00005600       ??_C@_03CDNPDDLA@?$DM?$DM?$DN?$AA@ 0000000180028600     libvcruntime:undname.obj
 0002:00005604       ??_C@_02FGJGFEAB@?$CG?$DN?$AA@ 0000000180028604     libvcruntime:undname.obj
 0002:00005608       ??_C@_02DHLNPPGH@?$HM?$DN?$AA@ 0000000180028608     libvcruntime:undname.obj
 0002:0000560c       ??_C@_02MHEGNOJ@?$FO?$DN?$AA@ 000000018002860c     libvcruntime:undname.obj
 0002:00005610       ??_C@_09IFPLHPGF@?$GAvftable?8?$AA@ 0000000180028610     libvcruntime:undname.obj
 0002:00005620       ??_C@_09BLBHBJP@?$GAvbtable?8?$AA@ 0000000180028620     libvcruntime:undname.obj
 0002:00005630       ??_C@_07FEEIOKP@?$GAvcall?8?$AA@ 0000000180028630     libvcruntime:undname.obj
 0002:00005638       ??_C@_08LLFFHHDJ@?$GAtypeof?8?$AA@ 0000000180028638     libvcruntime:undname.obj
 0002:00005648       ??_C@_0BF@KDPPACIK@?$GAlocal?5static?5guard?8?$AA@ 0000000180028648     libvcruntime:undname.obj
 0002:00005660       ??_C@_08OBABFOLI@?$GAstring?8?$AA@ 0000000180028660     libvcruntime:undname.obj
 0002:00005670       ??_C@_0BD@JDLKDPAB@?$GAvbase?5destructor?8?$AA@ 0000000180028670     libvcruntime:undname.obj
 0002:00005688       ??_C@_0BN@DEGPLNFK@?$GAvector?5deleting?5destructor?8?$AA@ 0000000180028688     libvcruntime:undname.obj
 0002:000056a8       ??_C@_0BO@OBMKPJIG@?$GAdefault?5constructor?5closure?8?$AA@ 00000001800286a8     libvcruntime:undname.obj
 0002:000056c8       ??_C@_0BN@IMDCHIKM@?$GAscalar?5deleting?5destructor?8?$AA@ 00000001800286c8     libvcruntime:undname.obj
 0002:000056e8       ??_C@_0BO@PFGOCPJJ@?$GAvector?5constructor?5iterator?8?$AA@ 00000001800286e8     libvcruntime:undname.obj
 0002:00005708       ??_C@_0BN@LFPFMEDL@?$GAvector?5destructor?5iterator?8?$AA@ 0000000180028708     libvcruntime:undname.obj
 0002:00005728       ??_C@_0CE@IKBNEHA@?$GAvector?5vbase?5constructor?5iterat@ 0000000180028728     libvcruntime:undname.obj
 0002:00005750       ??_C@_0BL@NILFHHPC@?$GAvirtual?5displacement?5map?8?$AA@ 0000000180028750     libvcruntime:undname.obj
 0002:00005770       ??_C@_0CB@JONCMFFK@?$GAeh?5vector?5constructor?5iterator?8@ 0000000180028770     libvcruntime:undname.obj
 0002:00005798       ??_C@_0CA@GCEOPDGL@?$GAeh?5vector?5destructor?5iterator?8?$AA@ 0000000180028798     libvcruntime:undname.obj
 0002:000057b8       ??_C@_0CH@OOJPLCPH@?$GAeh?5vector?5vbase?5constructor?5ite@ 00000001800287b8     libvcruntime:undname.obj
 0002:000057e0       ??_C@_0BL@LLKPOHJI@?$GAcopy?5constructor?5closure?8?$AA@ 00000001800287e0     libvcruntime:undname.obj
 0002:00005800       ??_C@_0BA@KBCDOMBN@?$GAudt?5returning?8?$AA@ 0000000180028800     libvcruntime:undname.obj
 0002:00005810       ??_C@_03KLGMFNMG@?$GAEH?$AA@ 0000000180028810     libvcruntime:undname.obj
 0002:00005814       ??_C@_05KHLCHHI@?$GARTTI?$AA@ 0000000180028814     libvcruntime:undname.obj
 0002:00005820       ??_C@_0BA@KKLDJDLB@?$GAlocal?5vftable?8?$AA@ 0000000180028820     libvcruntime:undname.obj
 0002:00005830       ??_C@_0CE@IIHCMGGL@?$GAlocal?5vftable?5constructor?5closu@ 0000000180028830     libvcruntime:undname.obj
 0002:00005854       ??_C@_06FHBGPFGH@?5new?$FL?$FN?$AA@ 0000000180028854     libvcruntime:undname.obj
 0002:00005860       ??_C@_09LBNFPBCA@?5delete?$FL?$FN?$AA@ 0000000180028860     libvcruntime:undname.obj
 0002:00005870       ??_C@_0P@HJKNJFNN@?$GAomni?5callsig?8?$AA@ 0000000180028870     libvcruntime:undname.obj
 0002:00005880       ??_C@_0BL@CNOONJFP@?$GAplacement?5delete?5closure?8?$AA@ 0000000180028880     libvcruntime:undname.obj
 0002:000058a0       ??_C@_0BN@CKNJLHMB@?$GAplacement?5delete?$FL?$FN?5closure?8?$AA@ 00000001800288a0     libvcruntime:undname.obj
 0002:000058c0       ??_C@_0CG@CFDHKGGD@?$GAmanaged?5vector?5constructor?5iter@ 00000001800288c0     libvcruntime:undname.obj
 0002:000058e8       ??_C@_0CF@IMGKMJNO@?$GAmanaged?5vector?5destructor?5itera@ 00000001800288e8     libvcruntime:undname.obj
 0002:00005910       ??_C@_0CG@HLDDJMAG@?$GAeh?5vector?5copy?5constructor?5iter@ 0000000180028910     libvcruntime:undname.obj
 0002:00005938       ??_C@_0CM@FCBBDIGB@?$GAeh?5vector?5vbase?5copy?5constructo@ 0000000180028938     libvcruntime:undname.obj
 0002:00005968       ??_C@_0BL@CLIPGLGB@?$GAdynamic?5initializer?5for?5?8?$AA@ 0000000180028968     libvcruntime:undname.obj
 0002:00005988       ??_C@_0CB@PDBIFEP@?$GAdynamic?5atexit?5destructor?5for?5?8@ 0000000180028988     libvcruntime:undname.obj
 0002:000059b0       ??_C@_0CD@CGAJBKEJ@?$GAvector?5copy?5constructor?5iterato@ 00000001800289b0     libvcruntime:undname.obj
 0002:000059d8       ??_C@_0CJ@GJELGAMM@?$GAvector?5vbase?5copy?5constructor?5i@ 00000001800289d8     libvcruntime:undname.obj
 0002:00005a08       ??_C@_0CL@FGIJHLCE@?$GAmanaged?5vector?5copy?5constructor@ 0000000180028a08     libvcruntime:undname.obj
 0002:00005a38       ??_C@_0BM@PMGGMLDN@?$GAlocal?5static?5thread?5guard?8?$AA@ 0000000180028a38     libvcruntime:undname.obj
 0002:00005a58       ??_C@_0N@BDNMDMOL@operator?5?$CC?$CC?5?$AA@ 0000000180028a58     libvcruntime:undname.obj
 0002:00005d98       ??_C@_0BC@DAFEJGAK@?5Type?5Descriptor?8?$AA@ 0000000180028d98     libvcruntime:undname.obj
 0002:00005db0       ??_C@_0BM@LDKODKLH@?5Base?5Class?5Descriptor?5at?5?$CI?$AA@ 0000000180028db0     libvcruntime:undname.obj
 0002:00005dd0       ??_C@_0BD@LGICGFMM@?5Base?5Class?5Array?8?$AA@ 0000000180028dd0     libvcruntime:undname.obj
 0002:00005de8       ??_C@_0BN@MECKDCOJ@?5Class?5Hierarchy?5Descriptor?8?$AA@ 0000000180028de8     libvcruntime:undname.obj
 0002:00005e08       ??_C@_0BK@CFCOFLF@?5Complete?5Object?5Locator?8?$AA@ 0000000180028e08     libvcruntime:undname.obj
 0002:00005e28       ??_C@_08EHJDFFNH@__based?$CI?$AA@ 0000000180028e28     libvcruntime:undname.obj
 0002:00005e38       ??_C@_07KOLFKCDI@__cdecl?$AA@ 0000000180028e38     libvcruntime:undname.obj
 0002:00005e40       ??_C@_08GHMPAG@__pascal?$AA@ 0000000180028e40     libvcruntime:undname.obj
 0002:00005e50       ??_C@_09IFJBGAPI@__stdcall?$AA@ 0000000180028e50     libvcruntime:undname.obj
 0002:00005e60       ??_C@_0L@NPHFGOKO@__thiscall?$AA@ 0000000180028e60     libvcruntime:undname.obj
 0002:00005e70       ??_C@_0L@JMKHOMEK@__fastcall?$AA@ 0000000180028e70     libvcruntime:undname.obj
 0002:00005e80       ??_C@_0N@BCKKPABJ@__vectorcall?$AA@ 0000000180028e80     libvcruntime:undname.obj
 0002:00005e90       ??_C@_09HIJEGCPM@__clrcall?$AA@ 0000000180028e90     libvcruntime:undname.obj
 0002:00005e9c       ??_C@_06GHPCKEAG@__eabi?$AA@ 0000000180028e9c     libvcruntime:undname.obj
 0002:00005ea8       ??_C@_07JOMMBBKO@__ptr64?$AA@ 0000000180028ea8     libvcruntime:undname.obj
 0002:00005eb0       ??_C@_0L@PILCLIHE@__restrict?$AA@ 0000000180028eb0     libvcruntime:undname.obj
 0002:00005ec0       ??_C@_0M@GFIIJFMG@__unaligned?$AA@ 0000000180028ec0     libvcruntime:undname.obj
 0002:00005ed0       ??_C@_09DHDLOLLB@restrict?$CI?$AA@ 0000000180028ed0     libvcruntime:undname.obj
 0002:00005edc       ??_C@_04NIHEBCM@?5new?$AA@ 0000000180028edc     libvcruntime:undname.obj
 0002:00005ee8       ??_C@_07FPCDHGMM@?5delete?$AA@ 0000000180028ee8     libvcruntime:undname.obj
 0002:00005ef0       ??_C@_01NEMOKFLO@?$DN?$AA@ 0000000180028ef0     libvcruntime:undname.obj
 0002:00005ef4       ??_C@_02GPIOPFAK@?$DO?$DO?$AA@ 0000000180028ef4     libvcruntime:undname.obj
 0002:00005ef8       ??_C@_02FODMEDOG@?$DM?$DM?$AA@ 0000000180028ef8     libvcruntime:undname.obj
 0002:00005efc       ??_C@_01DCLJPIOD@?$CB?$AA@ 0000000180028efc     libvcruntime:undname.obj
 0002:00005f00       ??_C@_02EGOFBIJA@?$DN?$DN?$AA@ 0000000180028f00     libvcruntime:undname.obj
 0002:00005f04       ??_C@_02FDNJECIE@?$CB?$DN?$AA@ 0000000180028f04     libvcruntime:undname.obj
 0002:00005f08       ??_C@_02GPECMEKF@?$FL?$FN?$AA@ 0000000180028f08     libvcruntime:undname.obj
 0002:00005f10       ??_C@_08LHJFAFGD@operator?$AA@ 0000000180028f10     libvcruntime:undname.obj
 0002:00005f1c       ??_C@_02HBOOOICD@?9?$DO?$AA@ 0000000180028f1c     libvcruntime:undname.obj
 0002:00005f20       ??_C@_02ECNGHCIF@?$CL?$CL?$AA@ 0000000180028f20     libvcruntime:undname.obj
 0002:00005f24       ??_C@_02BAABKJLB@?9?9?$AA@ 0000000180028f24     libvcruntime:undname.obj
 0002:00005f30       format_validation_lookup_table 0000000180028f30     libucrt:output.obj
 0002:00005f8c       ??_C@_06OJHGLDPL@?$CInull?$CJ?$AA@ 0000000180028f8c     libucrt:output.obj
 0002:00005f98       ??_C@_1O@CEDCILHN@?$AA?$CI?$AAn?$AAu?$AAl?$AAl?$AA?$CJ?$AA?$AA@ 0000000180028f98     libucrt:output.obj
 0002:00005fa8       __real@8000000000000000    0000000180028fa8     libucrt:frexp.obj
 0002:00005fb0       __acrt_exception_action_table 0000000180028fb0     libucrt:exception_filter.obj
 0002:00006070       __acrt_signal_action_table_count 0000000180029070     libucrt:exception_filter.obj
 0002:00006078       __acrt_signal_action_first_fpe_index 0000000180029078     libucrt:exception_filter.obj
 0002:00006080       __acrt_signal_action_fpe_count 0000000180029080     libucrt:exception_filter.obj
 0002:00006088       ??_C@_1BI@BGOHAHKC@?$AAm?$AAs?$AAc?$AAo?$AAr?$AAe?$AAe?$AA?4?$AAd?$AAl?$AAl?$AA?$AA@ 0000000180029088     libucrt:exit.obj
 0002:000060a0       ??_C@_0P@MIGLKIOC@CorExitProcess?$AA@ 00000001800290a0     libucrt:exit.obj
 0002:00006310       __newctype                 0000000180029310     libucrt:ctype.obj
 0002:00006610       __newclmap                 0000000180029610     libucrt:ctype.obj
 0002:00006790       __newcumap                 0000000180029790     libucrt:ctype.obj
 0002:00006910       _wctype                    0000000180029910     libucrt:ctype.obj
 0002:00006b14       ??_C@_04EIAKFFMI@sqrt?$AA@ 0000000180029b14     libucrt:sqrt.obj
 0002:00006b20       __lc_category              0000000180029b20     libucrt:wsetlocale.obj
 0002:00006bb0       ??_C@_1O@GIFLHMA@?$AAL?$AAC?$AA_?$AAA?$AAL?$AAL?$AA?$AA@ 0000000180029bb0     libucrt:wsetlocale.obj
 0002:00006bc0       ??_C@_1BG@PPOMIBNJ@?$AAL?$AAC?$AA_?$AAC?$AAO?$AAL?$AAL?$AAA?$AAT?$AAE?$AA?$AA@ 0000000180029bc0     libucrt:wsetlocale.obj
 0002:00006bd8       ??_C@_1BC@FFJGAPJM@?$AAL?$AAC?$AA_?$AAC?$AAT?$AAY?$AAP?$AAE?$AA?$AA@ 0000000180029bd8     libucrt:wsetlocale.obj
 0002:00006bf0       ??_C@_1BI@PCKFNJFB@?$AAL?$AAC?$AA_?$AAM?$AAO?$AAN?$AAE?$AAT?$AAA?$AAR?$AAY?$AA?$AA@ 0000000180029bf0     libucrt:wsetlocale.obj
 0002:00006c08       ??_C@_1BG@ENIEDKID@?$AAL?$AAC?$AA_?$AAN?$AAU?$AAM?$AAE?$AAR?$AAI?$AAC?$AA?$AA@ 0000000180029c08     libucrt:wsetlocale.obj
 0002:00006c20       ??_C@_1BA@HAAOMIIG@?$AAL?$AAC?$AA_?$AAT?$AAI?$AAM?$AAE?$AA?$AA@ 0000000180029c20     libucrt:wsetlocale.obj
 0002:00006cb0       ??_C@_15NBPDDFIP@?$AA?$DN?$AA?$DL?$AA?$AA@ 0000000180029cb0     libucrt:wsetlocale.obj
 0002:00006cb8       ??_C@_13PJJBFPED@?$AA?$DL?$AA?$AA@ 0000000180029cb8     libucrt:wsetlocale.obj
 0002:00006cbc       ??_C@_13NMPKAAJP@?$AA?$DN?$AA?$AA@ 0000000180029cbc     libucrt:wsetlocale.obj
 0002:00006cc0       ??_C@_13FHBKNHDA@?$AAC?$AA?$AA@ 0000000180029cc0     libucrt:wsetlocale.obj
 0002:00006cc8       ??_C@_17MBJJLFDM@?$AA_?$AA?4?$AA?0?$AA?$AA@ 0000000180029cc8     libucrt:wsetlocale.obj
 0002:00006cd0       ??_C@_13ENNFDPBH@?$AA_?$AA?$AA@ 0000000180029cd0     libucrt:wsetlocale.obj
 0002:00006cd4       ??_C@_13JOFGPIOO@?$AA?4?$AA?$AA@ 0000000180029cd4     libucrt:wsetlocale.obj
 0002:00006ce0       __lc_time_c                0000000180029ce0     libucrt:nlsdata.obj
 0002:00006fa0       ??_C@_03KOEHGMDN@Sun?$AA@  0000000180029fa0     libucrt:nlsdata.obj
 0002:00006fa4       ??_C@_03PDAGKDH@Mon?$AA@   0000000180029fa4     libucrt:nlsdata.obj
 0002:00006fa8       ??_C@_03NAGEINEP@Tue?$AA@  0000000180029fa8     libucrt:nlsdata.obj
 0002:00006fac       ??_C@_03MHOMLAJA@Wed?$AA@  0000000180029fac     libucrt:nlsdata.obj
 0002:00006fb0       ??_C@_03IOFIKPDN@Thu?$AA@  0000000180029fb0     libucrt:nlsdata.obj
 0002:00006fb4       ??_C@_03IDIOELNC@Fri?$AA@  0000000180029fb4     libucrt:nlsdata.obj
 0002:00006fb8       ??_C@_03FEFJNEK@Sat?$AA@   0000000180029fb8     libucrt:nlsdata.obj
 0002:00006fbc       ??_C@_06OOPIFAJ@Sunday?$AA@ 0000000180029fbc     libucrt:nlsdata.obj
 0002:00006fc4       ??_C@_06JLEDEDGH@Monday?$AA@ 0000000180029fc4     libucrt:nlsdata.obj
 0002:00006fd0       ??_C@_07BAAGCFCM@Tuesday?$AA@ 0000000180029fd0     libucrt:nlsdata.obj
 0002:00006fd8       ??_C@_09DLIGFAKA@Wednesday?$AA@ 0000000180029fd8     libucrt:nlsdata.obj
 0002:00006fe8       ??_C@_08HACCIKIA@Thursday?$AA@ 0000000180029fe8     libucrt:nlsdata.obj
 0002:00006ff4       ??_C@_06JECMNKMI@Friday?$AA@ 0000000180029ff4     libucrt:nlsdata.obj
 0002:00007000       ??_C@_08INBOOONO@Saturday?$AA@ 000000018002a000     libucrt:nlsdata.obj
 0002:0000700c       ??_C@_03JIHJHPIE@Jan?$AA@  000000018002a00c     libucrt:nlsdata.obj
 0002:00007010       ??_C@_03HJBDCHOM@Feb?$AA@  000000018002a010     libucrt:nlsdata.obj
 0002:00007014       ??_C@_03ODNJBKGA@Mar?$AA@  000000018002a014     libucrt:nlsdata.obj
 0002:00007018       ??_C@_03LEOLGMJP@Apr?$AA@  000000018002a018     libucrt:nlsdata.obj
 0002:0000701c       ??_C@_03CNMDKL@May?$AA@    000000018002a01c     libucrt:nlsdata.obj
 0002:00007020       ??_C@_03IDFGHECI@Jun?$AA@  000000018002a020     libucrt:nlsdata.obj
 0002:00007024       ??_C@_03LBGABGKK@Jul?$AA@  000000018002a024     libucrt:nlsdata.obj
 0002:00007028       ??_C@_03IFJFEIGA@Aug?$AA@  000000018002a028     libucrt:nlsdata.obj
 0002:0000702c       ??_C@_03GGCAPAJC@Sep?$AA@  000000018002a02c     libucrt:nlsdata.obj
 0002:00007030       ??_C@_03BMAOKBAD@Oct?$AA@  000000018002a030     libucrt:nlsdata.obj
 0002:00007034       ??_C@_03JPJOFNIA@Nov?$AA@  000000018002a034     libucrt:nlsdata.obj
 0002:00007038       ??_C@_03MKABNOCG@Dec?$AA@  000000018002a038     libucrt:nlsdata.obj
 0002:00007040       ??_C@_07CGJPFGJA@January?$AA@ 000000018002a040     libucrt:nlsdata.obj
 0002:00007048       ??_C@_08GNJGEPFN@February?$AA@ 000000018002a048     libucrt:nlsdata.obj
 0002:00007054       ??_C@_05HPCKOFNC@March?$AA@ 000000018002a054     libucrt:nlsdata.obj
 0002:0000705c       ??_C@_05DMJDNLEJ@April?$AA@ 000000018002a05c     libucrt:nlsdata.obj
 0002:00007064       ??_C@_04CNLMGBGM@June?$AA@ 000000018002a064     libucrt:nlsdata.obj
 0002:0000706c       ??_C@_04MIEPOIFP@July?$AA@ 000000018002a06c     libucrt:nlsdata.obj
 0002:00007074       ??_C@_06LBBHFDDG@August?$AA@ 000000018002a074     libucrt:nlsdata.obj
 0002:00007080       ??_C@_09BHHEALKD@September?$AA@ 000000018002a080     libucrt:nlsdata.obj
 0002:00007090       ??_C@_07JJNFCEND@October?$AA@ 000000018002a090     libucrt:nlsdata.obj
 0002:00007098       ??_C@_08HCHEGEOA@November?$AA@ 000000018002a098     libucrt:nlsdata.obj
 0002:000070a8       ??_C@_08EDHMEBNP@December?$AA@ 000000018002a0a8     libucrt:nlsdata.obj
 0002:000070b4       ??_C@_02DEDBPAFC@AM?$AA@   000000018002a0b4     libucrt:nlsdata.obj
 0002:000070b8       ??_C@_02CJNFDJBF@PM?$AA@   000000018002a0b8     libucrt:nlsdata.obj
 0002:000070c0       ??_C@_08BPBNCDIB@MM?1dd?1yy?$AA@ 000000018002a0c0     libucrt:nlsdata.obj
 0002:000070d0       ??_C@_0BE@CKGJFCPC@dddd?0?5MMMM?5dd?0?5yyyy?$AA@ 000000018002a0d0     libucrt:nlsdata.obj
 0002:000070e8       ??_C@_08JCCMCCIL@HH?3mm?3ss?$AA@ 000000018002a0e8     libucrt:nlsdata.obj
 0002:000070f8       ??_C@_17MBGCMIPB@?$AAS?$AAu?$AAn?$AA?$AA@ 000000018002a0f8     libucrt:nlsdata.obj
 0002:00007100       ??_C@_17KBOMKBF@?$AAM?$AAo?$AAn?$AA?$AA@ 000000018002a100     libucrt:nlsdata.obj
 0002:00007108       ??_C@_17BMKGEGOJ@?$AAT?$AAu?$AAe?$AA?$AA@ 000000018002a108     libucrt:nlsdata.obj
 0002:00007110       ??_C@_17CJEDCEPE@?$AAW?$AAe?$AAd?$AA?$AA@ 000000018002a110     libucrt:nlsdata.obj
 0002:00007118       ??_C@_17PDPHAADD@?$AAT?$AAh?$AAu?$AA?$AA@ 000000018002a118     libucrt:nlsdata.obj
 0002:00007120       ??_C@_17HFOLPPLP@?$AAF?$AAr?$AAi?$AA?$AA@ 000000018002a120     libucrt:nlsdata.obj
 0002:00007128       ??_C@_17GGIBDPIH@?$AAS?$AAa?$AAt?$AA?$AA@ 000000018002a128     libucrt:nlsdata.obj
 0002:00007130       ??_C@_1O@IHNHDHPB@?$AAS?$AAu?$AAn?$AAd?$AAa?$AAy?$AA?$AA@ 000000018002a130     libucrt:nlsdata.obj
 0002:00007140       ??_C@_1O@MMNBFLIA@?$AAM?$AAo?$AAn?$AAd?$AAa?$AAy?$AA?$AA@ 000000018002a140     libucrt:nlsdata.obj
 0002:00007150       ??_C@_1BA@ENFBFFEK@?$AAT?$AAu?$AAe?$AAs?$AAd?$AAa?$AAy?$AA?$AA@ 000000018002a150     libucrt:nlsdata.obj
 0002:00007160       ??_C@_1BE@EBOGMDOH@?$AAW?$AAe?$AAd?$AAn?$AAe?$AAs?$AAd?$AAa?$AAy?$AA?$AA@ 000000018002a160     libucrt:nlsdata.obj
 0002:00007178       ??_C@_1BC@HHMNLIHE@?$AAT?$AAh?$AAu?$AAr?$AAs?$AAd?$AAa?$AAy?$AA?$AA@ 000000018002a178     libucrt:nlsdata.obj
 0002:00007190       ??_C@_1O@PDICJHAG@?$AAF?$AAr?$AAi?$AAd?$AAa?$AAy?$AA?$AA@ 000000018002a190     libucrt:nlsdata.obj
 0002:000071a0       ??_C@_1BC@ENMNNPAJ@?$AAS?$AAa?$AAt?$AAu?$AAr?$AAd?$AAa?$AAy?$AA?$AA@ 000000018002a1a0     libucrt:nlsdata.obj
 0002:000071b8       ??_C@_17DKNBKCHM@?$AAJ?$AAa?$AAn?$AA?$AA@ 000000018002a1b8     libucrt:nlsdata.obj
 0002:000071c0       ??_C@_17LMDJEKJN@?$AAF?$AAe?$AAb?$AA?$AA@ 000000018002a1c0     libucrt:nlsdata.obj
 0002:000071c8       ??_C@_17CKNLEDEC@?$AAM?$AAa?$AAr?$AA?$AA@ 000000018002a1c8     libucrt:nlsdata.obj
 0002:000071d0       ??_C@_17LFPOIHDD@?$AAA?$AAp?$AAr?$AA?$AA@ 000000018002a1d0     libucrt:nlsdata.obj
 0002:000071d8       ??_C@_17PNNKMEED@?$AAM?$AAa?$AAy?$AA?$AA@ 000000018002a1d8     libucrt:nlsdata.obj
 0002:000071e0       ??_C@_17KCJGOCPB@?$AAJ?$AAu?$AAn?$AA?$AA@ 000000018002a1e0     libucrt:nlsdata.obj
 0002:000071e8       ??_C@_17IJPCKHK@?$AAJ?$AAu?$AAl?$AA?$AA@ 000000018002a1e8     libucrt:nlsdata.obj
 0002:000071f0       ??_C@_17ICPELBCN@?$AAA?$AAu?$AAg?$AA?$AA@ 000000018002a1f0     libucrt:nlsdata.obj
 0002:000071f8       ??_C@_17HCHCOKMG@?$AAS?$AAe?$AAp?$AA?$AA@ 000000018002a1f8     libucrt:nlsdata.obj
 0002:00007200       ??_C@_17FNLKOI@?$AAO?$AAc?$AAt?$AA?$AA@ 000000018002a200     libucrt:nlsdata.obj
 0002:00007208       ??_C@_17BBDMLCIG@?$AAN?$AAo?$AAv?$AA?$AA@ 000000018002a208     libucrt:nlsdata.obj
 0002:00007210       ??_C@_17EGKACKIF@?$AAD?$AAe?$AAc?$AA?$AA@ 000000018002a210     libucrt:nlsdata.obj
 0002:00007218       ??_C@_1BA@EFMEIEBA@?$AAJ?$AAa?$AAn?$AAu?$AAa?$AAr?$AAy?$AA?$AA@ 000000018002a218     libucrt:nlsdata.obj
 0002:00007228       ??_C@_1BC@JGDDFFAM@?$AAF?$AAe?$AAb?$AAr?$AAu?$AAa?$AAr?$AAy?$AA?$AA@ 000000018002a228     libucrt:nlsdata.obj
 0002:00007240       ??_C@_1M@IKEENEDF@?$AAM?$AAa?$AAr?$AAc?$AAh?$AA?$AA@ 000000018002a240     libucrt:nlsdata.obj
 0002:00007250       ??_C@_1M@GJNLMHFD@?$AAA?$AAp?$AAr?$AAi?$AAl?$AA?$AA@ 000000018002a250     libucrt:nlsdata.obj
 0002:00007260       ??_C@_19EPFLPGAP@?$AAJ?$AAu?$AAn?$AAe?$AA?$AA@ 000000018002a260     libucrt:nlsdata.obj
 0002:00007270       ??_C@_19BIFMLPCD@?$AAJ?$AAu?$AAl?$AAy?$AA?$AA@ 000000018002a270     libucrt:nlsdata.obj
 0002:00007280       ??_C@_1O@PAHLKOAC@?$AAA?$AAu?$AAg?$AAu?$AAs?$AAt?$AA?$AA@ 000000018002a280     libucrt:nlsdata.obj
 0002:00007290       ??_C@_1BE@DKAAMBJL@?$AAS?$AAe?$AAp?$AAt?$AAe?$AAm?$AAb?$AAe?$AAr?$AA?$AA@ 000000018002a290     libucrt:nlsdata.obj
 0002:000072a8       ??_C@_1BA@EPANDLNG@?$AAO?$AAc?$AAt?$AAo?$AAb?$AAe?$AAr?$AA?$AA@ 000000018002a2a8     libucrt:nlsdata.obj
 0002:000072b8       ??_C@_1BC@BGLIFPF@?$AAN?$AAo?$AAv?$AAe?$AAm?$AAb?$AAe?$AAr?$AA?$AA@ 000000018002a2b8     libucrt:nlsdata.obj
 0002:000072d0       ??_C@_1BC@FEMKIFH@?$AAD?$AAe?$AAc?$AAe?$AAm?$AAb?$AAe?$AAr?$AA?$AA@ 000000018002a2d0     libucrt:nlsdata.obj
 0002:000072e4       ??_C@_15ODEHAHHF@?$AAA?$AAM?$AA?$AA@ 000000018002a2e4     libucrt:nlsdata.obj
 0002:000072ec       ??_C@_15CLMNNGEL@?$AAP?$AAM?$AA?$AA@ 000000018002a2ec     libucrt:nlsdata.obj
 0002:000072f8       ??_C@_1BC@IEBCMHCM@?$AAM?$AAM?$AA?1?$AAd?$AAd?$AA?1?$AAy?$AAy?$AA?$AA@ 000000018002a2f8     libucrt:nlsdata.obj
 0002:00007310       ??_C@_1CI@KNAKOEBC@?$AAd?$AAd?$AAd?$AAd?$AA?0?$AA?5?$AAM?$AAM?$AAM?$AAM?$AA?5?$AAd?$AAd?$AA?0?$AA?5?$AAy?$AAy?$AAy?$AAy?$AA?$AA@ 000000018002a310     libucrt:nlsdata.obj
 0002:00007338       ??_C@_1BC@GDGBMEMK@?$AAH?$AAH?$AA?3?$AAm?$AAm?$AA?3?$AAs?$AAs?$AA?$AA@ 000000018002a338     libucrt:nlsdata.obj
 0002:0000734c       ??_C@_03OEIAHPBN@INF?$AA@  000000018002a34c     libucrt:cvt.obj
 0002:00007350       ??_C@_03OJHLLCGB@inf?$AA@  000000018002a350     libucrt:cvt.obj
 0002:00007354       ??_C@_03LKNCIKJB@NAN?$AA@  000000018002a354     libucrt:cvt.obj
 0002:00007358       ??_C@_03LHCJEHON@nan?$AA@  000000018002a358     libucrt:cvt.obj
 0002:00007360       ??_C@_09OFJJIMPC@NAN?$CISNAN?$CJ?$AA@ 000000018002a360     libucrt:cvt.obj
 0002:00007370       ??_C@_09IPFBKMDL@nan?$CIsnan?$CJ?$AA@ 000000018002a370     libucrt:cvt.obj
 0002:00007380       ??_C@_08IKHNHAJ@NAN?$CIIND?$CJ?$AA@ 000000018002a380     libucrt:cvt.obj
 0002:00007390       ??_C@_08OFCDMILK@nan?$CIind?$CJ?$AA@ 000000018002a390     libucrt:cvt.obj
 0002:0000739c       ??_C@_05KLBDPFGC@e?$CL000?$AA@ 000000018002a39c     libucrt:cvt.obj
 0002:00007580       ??_C@_03KHJOGHMM@exp?$AA@  000000018002a580     libucrt:fpexcept.obj
 0002:00007584       ??_C@_03JGHBODFD@pow?$AA@  000000018002a584     libucrt:fpexcept.obj
 0002:00007588       ??_C@_03MGHMBJCF@log?$AA@  000000018002a588     libucrt:fpexcept.obj
 0002:0000758c       ??_C@_05HGHHAHAP@log10?$AA@ 000000018002a58c     libucrt:fpexcept.obj
 0002:00007594       ??_C@_04COOMCNPB@sinh?$AA@ 000000018002a594     libucrt:fpexcept.obj
 0002:0000759c       ??_C@_04HPJJNFIM@cosh?$AA@ 000000018002a59c     libucrt:fpexcept.obj
 0002:000075a4       ??_C@_04FJHINJAO@tanh?$AA@ 000000018002a5a4     libucrt:fpexcept.obj
 0002:000075ac       ??_C@_04FIHNOPOL@asin?$AA@ 000000018002a5ac     libucrt:fpexcept.obj
 0002:000075b4       ??_C@_04PDIFKINK@acos?$AA@ 000000018002a5b4     libucrt:fpexcept.obj
 0002:000075bc       ??_C@_04MLLJIGOK@atan?$AA@ 000000018002a5bc     libucrt:fpexcept.obj
 0002:000075c4       ??_C@_05KNGEOGJB@atan2?$AA@ 000000018002a5c4     libucrt:fpexcept.obj
 0002:000075cc       ??_C@_03BLEJJJBH@sin?$AA@  000000018002a5cc     libucrt:fpexcept.obj
 0002:000075d0       ??_C@_03LALBNOCG@cos?$AA@  000000018002a5d0     libucrt:fpexcept.obj
 0002:000075d4       ??_C@_03IIINPABG@tan?$AA@  000000018002a5d4     libucrt:fpexcept.obj
 0002:000075d8       ??_C@_04GFPJNGEK@ceil?$AA@ 000000018002a5d8     libucrt:fpexcept.obj
 0002:000075e0       ??_C@_05PBJFFIGL@floor?$AA@ 000000018002a5e0     libucrt:fpexcept.obj
 0002:000075e8       ??_C@_04ODHECPBC@fabs?$AA@ 000000018002a5e8     libucrt:fpexcept.obj
 0002:000075f0       ??_C@_04EHEDPDJG@modf?$AA@ 000000018002a5f0     libucrt:fpexcept.obj
 0002:000075f8       ??_C@_05CEJMAHNP@ldexp?$AA@ 000000018002a5f8     libucrt:fpexcept.obj
 0002:00007600       ??_C@_05KBKMEMPO@_cabs?$AA@ 000000018002a600     libucrt:fpexcept.obj
 0002:00007608       ??_C@_06MEIMCGCF@_hypot?$AA@ 000000018002a608     libucrt:fpexcept.obj
 0002:00007610       ??_C@_04KEPJIHGP@fmod?$AA@ 000000018002a610     libucrt:fpexcept.obj
 0002:00007618       ??_C@_05GKKHEGJL@frexp?$AA@ 000000018002a618     libucrt:fpexcept.obj
 0002:00007620       ??_C@_03MJLDFKDL@_y0?$AA@  000000018002a620     libucrt:fpexcept.obj
 0002:00007624       ??_C@_03NAKIGLHK@_y1?$AA@  000000018002a624     libucrt:fpexcept.obj
 0002:00007628       ??_C@_03ONILCKOB@_yn?$AA@  000000018002a628     libucrt:fpexcept.obj
 0002:0000762c       ??_C@_05JGDBENOH@_logb?$AA@ 000000018002a62c     libucrt:fpexcept.obj
 0002:00007638       ??_C@_0L@KDOEJCKC@_nextafter?$AA@ 000000018002a638     libucrt:fpexcept.obj
 0002:00007648       _d_inf                     000000018002a648     libucrt:util.obj
 0002:00007650       _d_max                     000000018002a650     libucrt:util.obj
 0002:00007740       ??_C@_1EG@CNNIPFIM@?$AAa?$AAp?$AAi?$AA?9?$AAm?$AAs?$AA?9?$AAw?$AAi?$AAn?$AA?9?$AAa?$AAp?$AAp?$AAm?$AAo?$AAd?$AAe?$AAl?$AA?9?$AAr?$AAu?$AAn?$AAt?$AAi?$AAm?$AAe?$AA?9?$AAl?$AA1?$AA?9?$AA1@ 000000018002a740     libucrt:winapi_thunks.obj
 0002:00007790       ??_C@_1EA@JGEFHKEI@?$AAa?$AAp?$AAi?$AA?9?$AAm?$AAs?$AA?9?$AAw?$AAi?$AAn?$AA?9?$AAc?$AAo?$AAr?$AAe?$AA?9?$AAd?$AAa?$AAt?$AAe?$AAt?$AAi?$AAm?$AAe?$AA?9?$AAl?$AA1?$AA?9?$AA1?$AA?9?$AA1?$AA?$AA@ 000000018002a790     libucrt:winapi_thunks.obj
 0002:000077d0       ??_C@_1DI@GCIAAENM@?$AAa?$AAp?$AAi?$AA?9?$AAm?$AAs?$AA?9?$AAw?$AAi?$AAn?$AA?9?$AAc?$AAo?$AAr?$AAe?$AA?9?$AAf?$AAi?$AAl?$AAe?$AA?9?$AAl?$AA2?$AA?9?$AA1?$AA?9?$AA1?$AA?$AA@ 000000018002a7d0     libucrt:winapi_thunks.obj
 0002:00007810       ??_C@_1EI@MPIAOHOC@?$AAa?$AAp?$AAi?$AA?9?$AAm?$AAs?$AA?9?$AAw?$AAi?$AAn?$AA?9?$AAc?$AAo?$AAr?$AAe?$AA?9?$AAl?$AAo?$AAc?$AAa?$AAl?$AAi?$AAz?$AAa?$AAt?$AAi?$AAo?$AAn?$AA?9?$AAl?$AA1?$AA?9@ 000000018002a810     libucrt:winapi_thunks.obj
 0002:00007860       ??_C@_1FK@FPHCKFIE@?$AAa?$AAp?$AAi?$AA?9?$AAm?$AAs?$AA?9?$AAw?$AAi?$AAn?$AA?9?$AAc?$AAo?$AAr?$AAe?$AA?9?$AAl?$AAo?$AAc?$AAa?$AAl?$AAi?$AAz?$AAa?$AAt?$AAi?$AAo?$AAn?$AA?9?$AAo?$AAb?$AAs@ 000000018002a860     libucrt:winapi_thunks.obj
 0002:000078c0       ??_C@_1EM@DILCGIIO@?$AAa?$AAp?$AAi?$AA?9?$AAm?$AAs?$AA?9?$AAw?$AAi?$AAn?$AA?9?$AAc?$AAo?$AAr?$AAe?$AA?9?$AAp?$AAr?$AAo?$AAc?$AAe?$AAs?$AAs?$AAt?$AAh?$AAr?$AAe?$AAa?$AAd?$AAs?$AA?9?$AAl@ 000000018002a8c0     libucrt:winapi_thunks.obj
 0002:00007910       ??_C@_1DM@LNCGDDPN@?$AAa?$AAp?$AAi?$AA?9?$AAm?$AAs?$AA?9?$AAw?$AAi?$AAn?$AA?9?$AAc?$AAo?$AAr?$AAe?$AA?9?$AAs?$AAt?$AAr?$AAi?$AAn?$AAg?$AA?9?$AAl?$AA1?$AA?9?$AA1?$AA?9?$AA0?$AA?$AA@ 000000018002a910     libucrt:winapi_thunks.obj
 0002:00007950       ??_C@_1DO@FPAPJEMD@?$AAa?$AAp?$AAi?$AA?9?$AAm?$AAs?$AA?9?$AAw?$AAi?$AAn?$AA?9?$AAc?$AAo?$AAr?$AAe?$AA?9?$AAs?$AAy?$AAs?$AAi?$AAn?$AAf?$AAo?$AA?9?$AAl?$AA1?$AA?9?$AA2?$AA?9?$AA1?$AA?$AA@ 000000018002a950     libucrt:winapi_thunks.obj
 0002:00007990       ??_C@_1DK@NDHNAHIO@?$AAa?$AAp?$AAi?$AA?9?$AAm?$AAs?$AA?9?$AAw?$AAi?$AAn?$AA?9?$AAc?$AAo?$AAr?$AAe?$AA?9?$AAw?$AAi?$AAn?$AAr?$AAt?$AA?9?$AAl?$AA1?$AA?9?$AA1?$AA?9?$AA0?$AA?$AA@ 000000018002a990     libucrt:winapi_thunks.obj
 0002:000079d0       ??_C@_1DM@KGHDGBCM@?$AAa?$AAp?$AAi?$AA?9?$AAm?$AAs?$AA?9?$AAw?$AAi?$AAn?$AA?9?$AAc?$AAo?$AAr?$AAe?$AA?9?$AAx?$AAs?$AAt?$AAa?$AAt?$AAe?$AA?9?$AAl?$AA2?$AA?9?$AA1?$AA?9?$AA0?$AA?$AA@ 000000018002a9d0     libucrt:winapi_thunks.obj
 0002:00007a10       ??_C@_1EO@IJIOEFOH@?$AAa?$AAp?$AAi?$AA?9?$AAm?$AAs?$AA?9?$AAw?$AAi?$AAn?$AA?9?$AAr?$AAt?$AAc?$AAo?$AAr?$AAe?$AA?9?$AAn?$AAt?$AAu?$AAs?$AAe?$AAr?$AA?9?$AAw?$AAi?$AAn?$AAd?$AAo?$AAw?$AA?9@ 000000018002aa10     libucrt:winapi_thunks.obj
 0002:00007a60       ??_C@_1FG@HHGEKANL@?$AAa?$AAp?$AAi?$AA?9?$AAm?$AAs?$AA?9?$AAw?$AAi?$AAn?$AA?9?$AAs?$AAe?$AAc?$AAu?$AAr?$AAi?$AAt?$AAy?$AA?9?$AAs?$AAy?$AAs?$AAt?$AAe?$AAm?$AAf?$AAu?$AAn?$AAc?$AAt?$AAi@ 000000018002aa60     libucrt:winapi_thunks.obj
 0002:00007ac0       ??_C@_1FG@NCKKOLKO@?$AAe?$AAx?$AAt?$AA?9?$AAm?$AAs?$AA?9?$AAw?$AAi?$AAn?$AA?9?$AAk?$AAe?$AAr?$AAn?$AAe?$AAl?$AA3?$AA2?$AA?9?$AAp?$AAa?$AAc?$AAk?$AAa?$AAg?$AAe?$AA?9?$AAc?$AAu?$AAr?$AAr@ 000000018002aac0     libucrt:winapi_thunks.obj
 0002:00007b20       ??_C@_1EG@DBIOJECG@?$AAe?$AAx?$AAt?$AA?9?$AAm?$AAs?$AA?9?$AAw?$AAi?$AAn?$AA?9?$AAn?$AAt?$AAu?$AAs?$AAe?$AAr?$AA?9?$AAd?$AAi?$AAa?$AAl?$AAo?$AAg?$AAb?$AAo?$AAx?$AA?9?$AAl?$AA1?$AA?9?$AA1@ 000000018002ab20     libucrt:winapi_thunks.obj
 0002:00007b70       ??_C@_1EO@FIHMJCLF@?$AAe?$AAx?$AAt?$AA?9?$AAm?$AAs?$AA?9?$AAw?$AAi?$AAn?$AA?9?$AAn?$AAt?$AAu?$AAs?$AAe?$AAr?$AA?9?$AAw?$AAi?$AAn?$AAd?$AAo?$AAw?$AAs?$AAt?$AAa?$AAt?$AAi?$AAo?$AAn?$AA?9@ 000000018002ab70     libucrt:winapi_thunks.obj
 0002:00007bc0       ??_C@_1O@BCCLBEOE@?$AAu?$AAs?$AAe?$AAr?$AA3?$AA2?$AA?$AA@ 000000018002abc0     libucrt:winapi_thunks.obj
 0002:00007be0       ??_C@_0BE@LJANKFHF@EnumSystemLocalesEx?$AA@ 000000018002abe0     libucrt:winapi_thunks.obj
 0002:00007c30       ??_C@_0BJ@PBCCBIPI@GetUserDefaultLocaleName?$AA@ 000000018002ac30     libucrt:winapi_thunks.obj
 0002:00007c60       ??_C@_0BC@CELBKLLA@IsValidLocaleName?$AA@ 000000018002ac60     libucrt:winapi_thunks.obj
 0002:00007c88       ??_C@_0BB@CDHDDLLP@LCIDToLocaleName?$AA@ 000000018002ac88     libucrt:winapi_thunks.obj
 0002:00007ca8       ??_C@_0BB@HBDEELFH@LocaleNameToLCID?$AA@ 000000018002aca8     libucrt:winapi_thunks.obj
 0002:00007ce0       __acrt_rg_language         000000018002ace0     libucrt:get_qualified_locale.obj
 0002:000080f0       __acrt_rg_language_count   000000018002b0f0     libucrt:get_qualified_locale.obj
 0002:00008100       __acrt_rg_country          000000018002b100     libucrt:get_qualified_locale.obj
 0002:00008270       __acrt_rg_country_count    000000018002b270     libucrt:get_qualified_locale.obj
 0002:00008278       ??_C@_1BC@LLOKLNP@?$AAa?$AAm?$AAe?$AAr?$AAi?$AAc?$AAa?$AAn?$AA?$AA@ 000000018002b278     libucrt:get_qualified_locale.obj
 0002:00008290       ??_C@_1CC@HEIGCDGG@?$AAa?$AAm?$AAe?$AAr?$AAi?$AAc?$AAa?$AAn?$AA?5?$AAe?$AAn?$AAg?$AAl?$AAi?$AAs?$AAh?$AA?$AA@ 000000018002b290     libucrt:get_qualified_locale.obj
 0002:000082b8       ??_C@_1CC@IHCNOMIN@?$AAa?$AAm?$AAe?$AAr?$AAi?$AAc?$AAa?$AAn?$AA?9?$AAe?$AAn?$AAg?$AAl?$AAi?$AAs?$AAh?$AA?$AA@ 000000018002b2b8     libucrt:get_qualified_locale.obj
 0002:000082e0       ??_C@_1BG@GKAGPCGG@?$AAa?$AAu?$AAs?$AAt?$AAr?$AAa?$AAl?$AAi?$AAa?$AAn?$AA?$AA@ 000000018002b2e0     libucrt:get_qualified_locale.obj
 0002:000082f8       ??_C@_1BA@GMENCENF@?$AAb?$AAe?$AAl?$AAg?$AAi?$AAa?$AAn?$AA?$AA@ 000000018002b2f8     libucrt:get_qualified_locale.obj
 0002:00008308       ??_C@_1BC@PJMIIAAN@?$AAc?$AAa?$AAn?$AAa?$AAd?$AAi?$AAa?$AAn?$AA?$AA@ 000000018002b308     libucrt:get_qualified_locale.obj
 0002:00008320       ??_C@_17NOIMNFBF@?$AAc?$AAh?$AAh?$AA?$AA@ 000000018002b320     libucrt:get_qualified_locale.obj
 0002:00008328       ??_C@_17GGDALCHA@?$AAc?$AAh?$AAi?$AA?$AA@ 000000018002b328     libucrt:get_qualified_locale.obj
 0002:00008330       ??_C@_1BA@NPNJKIBL@?$AAc?$AAh?$AAi?$AAn?$AAe?$AAs?$AAe?$AA?$AA@ 000000018002b330     libucrt:get_qualified_locale.obj
 0002:00008340       ??_C@_1CC@DINBAMMJ@?$AAc?$AAh?$AAi?$AAn?$AAe?$AAs?$AAe?$AA?9?$AAh?$AAo?$AAn?$AAg?$AAk?$AAo?$AAn?$AAg?$AA?$AA@ 000000018002b340     libucrt:get_qualified_locale.obj
 0002:00008368       ??_C@_1CG@IOBJPACO@?$AAc?$AAh?$AAi?$AAn?$AAe?$AAs?$AAe?$AA?9?$AAs?$AAi?$AAm?$AAp?$AAl?$AAi?$AAf?$AAi?$AAe?$AAd?$AA?$AA@ 000000018002b368     libucrt:get_qualified_locale.obj
 0002:00008390       ??_C@_1CE@GAJNDCKG@?$AAc?$AAh?$AAi?$AAn?$AAe?$AAs?$AAe?$AA?9?$AAs?$AAi?$AAn?$AAg?$AAa?$AAp?$AAo?$AAr?$AAe?$AA?$AA@ 000000018002b390     libucrt:get_qualified_locale.obj
 0002:000083b8       ??_C@_1CI@PAJPIOOD@?$AAc?$AAh?$AAi?$AAn?$AAe?$AAs?$AAe?$AA?9?$AAt?$AAr?$AAa?$AAd?$AAi?$AAt?$AAi?$AAo?$AAn?$AAa?$AAl?$AA?$AA@ 000000018002b3b8     libucrt:get_qualified_locale.obj
 0002:000083e0       ??_C@_1BM@NILJBMMD@?$AAd?$AAu?$AAt?$AAc?$AAh?$AA?9?$AAb?$AAe?$AAl?$AAg?$AAi?$AAa?$AAn?$AA?$AA@ 000000018002b3e0     libucrt:get_qualified_locale.obj
 0002:00008400       ??_C@_1CC@OOJPJNEJ@?$AAe?$AAn?$AAg?$AAl?$AAi?$AAs?$AAh?$AA?9?$AAa?$AAm?$AAe?$AAr?$AAi?$AAc?$AAa?$AAn?$AA?$AA@ 000000018002b400     libucrt:get_qualified_locale.obj
 0002:00008428       ??_C@_1BI@IOLFEEM@?$AAe?$AAn?$AAg?$AAl?$AAi?$AAs?$AAh?$AA?9?$AAa?$AAu?$AAs?$AA?$AA@ 000000018002b428     libucrt:get_qualified_locale.obj
 0002:00008440       ??_C@_1BO@HFFNLENJ@?$AAe?$AAn?$AAg?$AAl?$AAi?$AAs?$AAh?$AA?9?$AAb?$AAe?$AAl?$AAi?$AAz?$AAe?$AA?$AA@ 000000018002b440     libucrt:get_qualified_locale.obj
 0002:00008460       ??_C@_1BI@HAPKJMPO@?$AAe?$AAn?$AAg?$AAl?$AAi?$AAs?$AAh?$AA?9?$AAc?$AAa?$AAn?$AA?$AA@ 000000018002b460     libucrt:get_qualified_locale.obj
 0002:00008478       ??_C@_1CE@HLNDMIOJ@?$AAe?$AAn?$AAg?$AAl?$AAi?$AAs?$AAh?$AA?9?$AAc?$AAa?$AAr?$AAi?$AAb?$AAb?$AAe?$AAa?$AAn?$AA?$AA@ 000000018002b478     libucrt:get_qualified_locale.obj
 0002:000084a0       ??_C@_1BI@LDHJHHAC@?$AAe?$AAn?$AAg?$AAl?$AAi?$AAs?$AAh?$AA?9?$AAi?$AAr?$AAe?$AA?$AA@ 000000018002b4a0     libucrt:get_qualified_locale.obj
 0002:000084b8       ??_C@_1CA@NJMMCFOC@?$AAe?$AAn?$AAg?$AAl?$AAi?$AAs?$AAh?$AA?9?$AAj?$AAa?$AAm?$AAa?$AAi?$AAc?$AAa?$AA?$AA@ 000000018002b4b8     libucrt:get_qualified_locale.obj
 0002:000084d8       ??_C@_1BG@BHJEBBGG@?$AAe?$AAn?$AAg?$AAl?$AAi?$AAs?$AAh?$AA?9?$AAn?$AAz?$AA?$AA@ 000000018002b4d8     libucrt:get_qualified_locale.obj
 0002:000084f0       ??_C@_1CK@FGOEJJCO@?$AAe?$AAn?$AAg?$AAl?$AAi?$AAs?$AAh?$AA?9?$AAs?$AAo?$AAu?$AAt?$AAh?$AA?5?$AAa?$AAf?$AAr?$AAi?$AAc?$AAa?$AA?$AA@ 000000018002b4f0     libucrt:get_qualified_locale.obj
 0002:00008520       ??_C@_1DE@PDBJPCJ@?$AAe?$AAn?$AAg?$AAl?$AAi?$AAs?$AAh?$AA?9?$AAt?$AAr?$AAi?$AAn?$AAi?$AAd?$AAa?$AAd?$AA?5?$AAy?$AA?5?$AAt?$AAo?$AAb?$AAa?$AAg?$AAo?$AA?$AA@ 000000018002b520     libucrt:get_qualified_locale.obj
 0002:00008558       ??_C@_1BG@JGCANDME@?$AAe?$AAn?$AAg?$AAl?$AAi?$AAs?$AAh?$AA?9?$AAu?$AAk?$AA?$AA@ 000000018002b558     libucrt:get_qualified_locale.obj
 0002:00008570       ??_C@_1BG@DINKMLE@?$AAe?$AAn?$AAg?$AAl?$AAi?$AAs?$AAh?$AA?9?$AAu?$AAs?$AA?$AA@ 000000018002b570     libucrt:get_qualified_locale.obj
 0002:00008588       ??_C@_1BI@NMFDBHJE@?$AAe?$AAn?$AAg?$AAl?$AAi?$AAs?$AAh?$AA?9?$AAu?$AAs?$AAa?$AA?$AA@ 000000018002b588     libucrt:get_qualified_locale.obj
 0002:000085a0       ??_C@_1BO@OIHKJKII@?$AAf?$AAr?$AAe?$AAn?$AAc?$AAh?$AA?9?$AAb?$AAe?$AAl?$AAg?$AAi?$AAa?$AAn?$AA?$AA@ 000000018002b5a0     libucrt:get_qualified_locale.obj
 0002:000085c0       ??_C@_1CA@NKAELJKI@?$AAf?$AAr?$AAe?$AAn?$AAc?$AAh?$AA?9?$AAc?$AAa?$AAn?$AAa?$AAd?$AAi?$AAa?$AAn?$AA?$AA@ 000000018002b5c0     libucrt:get_qualified_locale.obj
 0002:000085e0       ??_C@_1CE@MGKCNLGN@?$AAf?$AAr?$AAe?$AAn?$AAc?$AAh?$AA?9?$AAl?$AAu?$AAx?$AAe?$AAm?$AAb?$AAo?$AAu?$AAr?$AAg?$AA?$AA@ 000000018002b5e0     libucrt:get_qualified_locale.obj
 0002:00008608       ??_C@_1BK@CEGEAILM@?$AAf?$AAr?$AAe?$AAn?$AAc?$AAh?$AA?9?$AAs?$AAw?$AAi?$AAs?$AAs?$AA?$AA@ 000000018002b608     libucrt:get_qualified_locale.obj
 0002:00008628       ??_C@_1CA@PAFKEOCC@?$AAg?$AAe?$AAr?$AAm?$AAa?$AAn?$AA?9?$AAa?$AAu?$AAs?$AAt?$AAr?$AAi?$AAa?$AAn?$AA?$AA@ 000000018002b628     libucrt:get_qualified_locale.obj
 0002:00008648       ??_C@_1CI@HCFHGOFD@?$AAg?$AAe?$AAr?$AAm?$AAa?$AAn?$AA?9?$AAl?$AAi?$AAc?$AAh?$AAt?$AAe?$AAn?$AAs?$AAt?$AAe?$AAi?$AAn?$AA?$AA@ 000000018002b648     libucrt:get_qualified_locale.obj
 0002:00008670       ??_C@_1CE@FEDDNPDG@?$AAg?$AAe?$AAr?$AAm?$AAa?$AAn?$AA?9?$AAl?$AAu?$AAx?$AAe?$AAm?$AAb?$AAo?$AAu?$AAr?$AAg?$AA?$AA@ 000000018002b670     libucrt:get_qualified_locale.obj
 0002:00008698       ??_C@_1BK@LIMINNMN@?$AAg?$AAe?$AAr?$AAm?$AAa?$AAn?$AA?9?$AAs?$AAw?$AAi?$AAs?$AAs?$AA?$AA@ 000000018002b698     libucrt:get_qualified_locale.obj
 0002:000086b8       ??_C@_1BM@LGMDBEPD@?$AAi?$AAr?$AAi?$AAs?$AAh?$AA?9?$AAe?$AAn?$AAg?$AAl?$AAi?$AAs?$AAh?$AA?$AA@ 000000018002b6b8     libucrt:get_qualified_locale.obj
 0002:000086d8       ??_C@_1BM@NNCFBAEE@?$AAi?$AAt?$AAa?$AAl?$AAi?$AAa?$AAn?$AA?9?$AAs?$AAw?$AAi?$AAs?$AAs?$AA?$AA@ 000000018002b6d8     libucrt:get_qualified_locale.obj
 0002:000086f8       ??_C@_1BE@FEDJNPIB@?$AAn?$AAo?$AAr?$AAw?$AAe?$AAg?$AAi?$AAa?$AAn?$AA?$AA@ 000000018002b6f8     libucrt:get_qualified_locale.obj
 0002:00008710       ??_C@_1CC@CILKDEIE@?$AAn?$AAo?$AAr?$AAw?$AAe?$AAg?$AAi?$AAa?$AAn?$AA?9?$AAb?$AAo?$AAk?$AAm?$AAa?$AAl?$AA?$AA@ 000000018002b710     libucrt:get_qualified_locale.obj
 0002:00008738       ??_C@_1CE@DHMMHEPL@?$AAn?$AAo?$AAr?$AAw?$AAe?$AAg?$AAi?$AAa?$AAn?$AA?9?$AAn?$AAy?$AAn?$AAo?$AAr?$AAs?$AAk?$AA?$AA@ 000000018002b738     libucrt:get_qualified_locale.obj
 0002:00008760       ??_C@_1CK@OPNMHECD@?$AAp?$AAo?$AAr?$AAt?$AAu?$AAg?$AAu?$AAe?$AAs?$AAe?$AA?9?$AAb?$AAr?$AAa?$AAz?$AAi?$AAl?$AAi?$AAa?$AAn?$AA?$AA@ 000000018002b760     libucrt:get_qualified_locale.obj
 0002:00008790       ??_C@_1CE@KEEHCDB@?$AAs?$AAp?$AAa?$AAn?$AAi?$AAs?$AAh?$AA?9?$AAa?$AAr?$AAg?$AAe?$AAn?$AAt?$AAi?$AAn?$AAa?$AA?$AA@ 000000018002b790     libucrt:get_qualified_locale.obj
 0002:000087b8       ??_C@_1CA@GIAOLHJD@?$AAs?$AAp?$AAa?$AAn?$AAi?$AAs?$AAh?$AA?9?$AAb?$AAo?$AAl?$AAi?$AAv?$AAi?$AAa?$AA?$AA@ 000000018002b7b8     libucrt:get_qualified_locale.obj
 0002:000087d8       ??_C@_1BM@OJNDFNPD@?$AAs?$AAp?$AAa?$AAn?$AAi?$AAs?$AAh?$AA?9?$AAc?$AAh?$AAi?$AAl?$AAe?$AA?$AA@ 000000018002b7d8     libucrt:get_qualified_locale.obj
 0002:000087f8       ??_C@_1CC@OCOLPALL@?$AAs?$AAp?$AAa?$AAn?$AAi?$AAs?$AAh?$AA?9?$AAc?$AAo?$AAl?$AAo?$AAm?$AAb?$AAi?$AAa?$AA?$AA@ 000000018002b7f8     libucrt:get_qualified_locale.obj
 0002:00008820       ??_C@_1CG@BPOFMKBB@?$AAs?$AAp?$AAa?$AAn?$AAi?$AAs?$AAh?$AA?9?$AAc?$AAo?$AAs?$AAt?$AAa?$AA?5?$AAr?$AAi?$AAc?$AAa?$AA?$AA@ 000000018002b820     libucrt:get_qualified_locale.obj
 0002:00008848       ??_C@_1DG@IGOBAPBB@?$AAs?$AAp?$AAa?$AAn?$AAi?$AAs?$AAh?$AA?9?$AAd?$AAo?$AAm?$AAi?$AAn?$AAi?$AAc?$AAa?$AAn?$AA?5?$AAr?$AAe?$AAp?$AAu?$AAb?$AAl?$AAi?$AAc?$AA?$AA@ 000000018002b848     libucrt:get_qualified_locale.obj
 0002:00008880       ??_C@_1CA@JHAPGEGI@?$AAs?$AAp?$AAa?$AAn?$AAi?$AAs?$AAh?$AA?9?$AAe?$AAc?$AAu?$AAa?$AAd?$AAo?$AAr?$AA?$AA@ 000000018002b880     libucrt:get_qualified_locale.obj
 0002:000088a0       ??_C@_1CI@LAPALJPP@?$AAs?$AAp?$AAa?$AAn?$AAi?$AAs?$AAh?$AA?9?$AAe?$AAl?$AA?5?$AAs?$AAa?$AAl?$AAv?$AAa?$AAd?$AAo?$AAr?$AA?$AA@ 000000018002b8a0     libucrt:get_qualified_locale.obj
 0002:000088c8       ??_C@_1CE@PDGBOFOM@?$AAs?$AAp?$AAa?$AAn?$AAi?$AAs?$AAh?$AA?9?$AAg?$AAu?$AAa?$AAt?$AAe?$AAm?$AAa?$AAl?$AAa?$AA?$AA@ 000000018002b8c8     libucrt:get_qualified_locale.obj
 0002:000088f0       ??_C@_1CC@NBEBAODI@?$AAs?$AAp?$AAa?$AAn?$AAi?$AAs?$AAh?$AA?9?$AAh?$AAo?$AAn?$AAd?$AAu?$AAr?$AAa?$AAs?$AA?$AA@ 000000018002b8f0     libucrt:get_qualified_locale.obj
 0002:00008918       ??_C@_1CA@LLKGHBMF@?$AAs?$AAp?$AAa?$AAn?$AAi?$AAs?$AAh?$AA?9?$AAm?$AAe?$AAx?$AAi?$AAc?$AAa?$AAn?$AA?$AA@ 000000018002b918     libucrt:get_qualified_locale.obj
 0002:00008938       ??_C@_1BO@LKNDOIGD@?$AAs?$AAp?$AAa?$AAn?$AAi?$AAs?$AAh?$AA?9?$AAm?$AAo?$AAd?$AAe?$AAr?$AAn?$AA?$AA@ 000000018002b938     libucrt:get_qualified_locale.obj
 0002:00008958       ??_C@_1CE@NMDMOEEB@?$AAs?$AAp?$AAa?$AAn?$AAi?$AAs?$AAh?$AA?9?$AAn?$AAi?$AAc?$AAa?$AAr?$AAa?$AAg?$AAu?$AAa?$AA?$AA@ 000000018002b958     libucrt:get_qualified_locale.obj
 0002:00008980       ??_C@_1BO@LLCBEJGB@?$AAs?$AAp?$AAa?$AAn?$AAi?$AAs?$AAh?$AA?9?$AAp?$AAa?$AAn?$AAa?$AAm?$AAa?$AA?$AA@ 000000018002b980     libucrt:get_qualified_locale.obj
 0002:000089a0       ??_C@_1CC@FKPGGIHO@?$AAs?$AAp?$AAa?$AAn?$AAi?$AAs?$AAh?$AA?9?$AAp?$AAa?$AAr?$AAa?$AAg?$AAu?$AAa?$AAy?$AA?$AA@ 000000018002b9a0     libucrt:get_qualified_locale.obj
 0002:000089c8       ??_C@_1BK@CDEIHOOP@?$AAs?$AAp?$AAa?$AAn?$AAi?$AAs?$AAh?$AA?9?$AAp?$AAe?$AAr?$AAu?$AA?$AA@ 000000018002b9c8     libucrt:get_qualified_locale.obj
 0002:000089e8       ??_C@_1CI@GAHAKKGP@?$AAs?$AAp?$AAa?$AAn?$AAi?$AAs?$AAh?$AA?9?$AAp?$AAu?$AAe?$AAr?$AAt?$AAo?$AA?5?$AAr?$AAi?$AAc?$AAo?$AA?$AA@ 000000018002b9e8     libucrt:get_qualified_locale.obj
 0002:00008a10       ??_C@_1CA@NKJBCAGP@?$AAs?$AAp?$AAa?$AAn?$AAi?$AAs?$AAh?$AA?9?$AAu?$AAr?$AAu?$AAg?$AAu?$AAa?$AAy?$AA?$AA@ 000000018002ba10     libucrt:get_qualified_locale.obj
 0002:00008a30       ??_C@_1CE@ODILCONM@?$AAs?$AAp?$AAa?$AAn?$AAi?$AAs?$AAh?$AA?9?$AAv?$AAe?$AAn?$AAe?$AAz?$AAu?$AAe?$AAl?$AAa?$AA?$AA@ 000000018002ba30     libucrt:get_qualified_locale.obj
 0002:00008a58       ??_C@_1CA@OBNMCGFO@?$AAs?$AAw?$AAe?$AAd?$AAi?$AAs?$AAh?$AA?9?$AAf?$AAi?$AAn?$AAl?$AAa?$AAn?$AAd?$AA?$AA@ 000000018002ba58     libucrt:get_qualified_locale.obj
 0002:00008a78       ??_C@_1M@PIPDDPPI@?$AAs?$AAw?$AAi?$AAs?$AAs?$AA?$AA@ 000000018002ba78     libucrt:get_qualified_locale.obj
 0002:00008a84       ??_C@_15GMFIMNFM@?$AAu?$AAs?$AA?$AA@ 000000018002ba84     libucrt:get_qualified_locale.obj
 0002:00008a90       ??_C@_17HAEBFAGL@?$AAu?$AAs?$AAa?$AA?$AA@ 000000018002ba90     libucrt:get_qualified_locale.obj
 0002:00008a98       ??_C@_1BA@DPFJEPHB@?$AAa?$AAm?$AAe?$AAr?$AAi?$AAc?$AAa?$AA?$AA@ 000000018002ba98     libucrt:get_qualified_locale.obj
 0002:00008aa8       ??_C@_1BA@ELOGGFK@?$AAb?$AAr?$AAi?$AAt?$AAa?$AAi?$AAn?$AA?$AA@ 000000018002baa8     libucrt:get_qualified_locale.obj
 0002:00008ab8       ??_C@_1M@GHBGIGDA@?$AAc?$AAh?$AAi?$AAn?$AAa?$AA?$AA@ 000000018002bab8     libucrt:get_qualified_locale.obj
 0002:00008ac8       ??_C@_1M@NCHEJOPO@?$AAc?$AAz?$AAe?$AAc?$AAh?$AA?$AA@ 000000018002bac8     libucrt:get_qualified_locale.obj
 0002:00008ad8       ??_C@_1BA@BKPAPBLA@?$AAe?$AAn?$AAg?$AAl?$AAa?$AAn?$AAd?$AA?$AA@ 000000018002bad8     libucrt:get_qualified_locale.obj
 0002:00008ae8       ??_C@_1BM@HKBCKIPC@?$AAg?$AAr?$AAe?$AAa?$AAt?$AA?5?$AAb?$AAr?$AAi?$AAt?$AAa?$AAi?$AAn?$AA?$AA@ 000000018002bae8     libucrt:get_qualified_locale.obj
 0002:00008b08       ??_C@_1BA@PPCHPGJB@?$AAh?$AAo?$AAl?$AAl?$AAa?$AAn?$AAd?$AA?$AA@ 000000018002bb08     libucrt:get_qualified_locale.obj
 0002:00008b18       ??_C@_1BE@JBMPEGDG@?$AAh?$AAo?$AAn?$AAg?$AA?9?$AAk?$AAo?$AAn?$AAg?$AA?$AA@ 000000018002bb18     libucrt:get_qualified_locale.obj
 0002:00008b30       ??_C@_1BI@KOELBBPJ@?$AAn?$AAe?$AAw?$AA?9?$AAz?$AAe?$AAa?$AAl?$AAa?$AAn?$AAd?$AA?$AA@ 000000018002bb30     libucrt:get_qualified_locale.obj
 0002:00008b48       ??_C@_15HIEBHAIO@?$AAn?$AAz?$AA?$AA@ 000000018002bb48     libucrt:get_qualified_locale.obj
 0002:00008b50       ??_C@_1BC@CHBCPFPI@?$AAp?$AAr?$AA?5?$AAc?$AAh?$AAi?$AAn?$AAa?$AA?$AA@ 000000018002bb50     libucrt:get_qualified_locale.obj
 0002:00008b68       ??_C@_1BC@JAOIIFKD@?$AAp?$AAr?$AA?9?$AAc?$AAh?$AAi?$AAn?$AAa?$AA?$AA@ 000000018002bb68     libucrt:get_qualified_locale.obj
 0002:00008b80       ??_C@_1BI@BEHPPHKC@?$AAp?$AAu?$AAe?$AAr?$AAt?$AAo?$AA?9?$AAr?$AAi?$AAc?$AAo?$AA?$AA@ 000000018002bb80     libucrt:get_qualified_locale.obj
 0002:00008b98       ??_C@_1O@PAEOFKDI@?$AAs?$AAl?$AAo?$AAv?$AAa?$AAk?$AA?$AA@ 000000018002bb98     libucrt:get_qualified_locale.obj
 0002:00008ba8       ??_C@_1BK@FIHMCKAM@?$AAs?$AAo?$AAu?$AAt?$AAh?$AA?5?$AAa?$AAf?$AAr?$AAi?$AAc?$AAa?$AA?$AA@ 000000018002bba8     libucrt:get_qualified_locale.obj
 0002:00008bc8       ??_C@_1BI@NAEOODKB@?$AAs?$AAo?$AAu?$AAt?$AAh?$AA?5?$AAk?$AAo?$AAr?$AAe?$AAa?$AA?$AA@ 000000018002bbc8     libucrt:get_qualified_locale.obj
 0002:00008be0       ??_C@_1BK@FBDGGIFF@?$AAs?$AAo?$AAu?$AAt?$AAh?$AA?9?$AAa?$AAf?$AAr?$AAi?$AAc?$AAa?$AA?$AA@ 000000018002bbe0     libucrt:get_qualified_locale.obj
 0002:00008c00       ??_C@_1BI@GHLEJDPK@?$AAs?$AAo?$AAu?$AAt?$AAh?$AA?9?$AAk?$AAo?$AAr?$AAe?$AAa?$AA?$AA@ 000000018002bc00     libucrt:get_qualified_locale.obj
 0002:00008c18       ??_C@_1CE@PLHLOMJF@?$AAt?$AAr?$AAi?$AAn?$AAi?$AAd?$AAa?$AAd?$AA?5?$AA?$CG?$AA?5?$AAt?$AAo?$AAb?$AAa?$AAg?$AAo?$AA?$AA@ 000000018002bc18     libucrt:get_qualified_locale.obj
 0002:00008c40       ??_C@_1BO@MODIMHHI@?$AAu?$AAn?$AAi?$AAt?$AAe?$AAd?$AA?9?$AAk?$AAi?$AAn?$AAg?$AAd?$AAo?$AAm?$AA?$AA@ 000000018002bc40     libucrt:get_qualified_locale.obj
 0002:00008c60       ??_C@_1BM@FFHJONBJ@?$AAu?$AAn?$AAi?$AAt?$AAe?$AAd?$AA?9?$AAs?$AAt?$AAa?$AAt?$AAe?$AAs?$AA?$AA@ 000000018002bc60     libucrt:get_qualified_locale.obj
 0002:00008c80       ??_C@_17DNCLJFIF@?$AAA?$AAC?$AAP?$AA?$AA@ 000000018002bc80     libucrt:get_qualified_locale.obj
 0002:00008c88       ??_C@_17CIKBIHLH@?$AAO?$AAC?$AAP?$AA?$AA@ 000000018002bc88     libucrt:get_qualified_locale.obj
 0002:00008c90       __rglangidNotDefault       000000018002bc90     libucrt:getqloc_downlevel.obj
 0002:00008cb0       ?large_power_data@?1??multiply_by_power_of_ten@__crt_strtox@@YA_NAEAUbig_integer@2@I@Z@4QBIB 000000018002bcb0     libucrt:cfout.obj
 0002:000095c0       ?large_power_indices@?1??multiply_by_power_of_ten@__crt_strtox@@YA_NAEAUbig_integer@2@I@Z@4QBUunpack_index@?1??12@YA_N0I@Z@B 000000018002c5c0     libucrt:cfout.obj
 0002:00009658       ?small_powers_of_ten@?6??multiply_by_power_of_ten@__crt_strtox@@YA_NAEAUbig_integer@2@I@Z@4QBIB 000000018002c658     libucrt:cfout.obj
 0002:0000967c       ??_C@_01GBGANLPD@0?$AA@    000000018002c67c     libucrt:cfout.obj
 0002:00009680       ??_C@_05DNEBIAHO@1?$CDINF?$AA@ 000000018002c680     libucrt:cfout.obj
 0002:00009688       ??_C@_06IMKFLFPG@1?$CDQNAN?$AA@ 000000018002c688     libucrt:cfout.obj
 0002:00009690       ??_C@_06PGGFOGJG@1?$CDSNAN?$AA@ 000000018002c690     libucrt:cfout.obj
 0002:00009698       ??_C@_05PHHOCPM@1?$CDIND?$AA@ 000000018002c698     libucrt:cfout.obj
 0002:0000b580       ??_C@_1BA@BALFACEM@?$AAC?$AAO?$AAN?$AAO?$AAU?$AAT?$AA$?$AA?$AA@ 000000018002e580     libucrt:initcon.obj
 0002:0000b590       __log10_256_lead           000000018002e590     libucrt:log10_256_lead_tail_table.obj
 0002:0000bda0       __log10_256_tail           000000018002eda0     libucrt:log10_256_lead_tail_table.obj
 0002:0000c5b0       __log_F_inv_qword          000000018002f5b0     libucrt:log_f_inv_qword_table.obj
 0002:0000cdc0       ??_C@_1BK@DBDEIDLH@?$AAK?$AAE?$AAR?$AAN?$AAE?$AAL?$AA3?$AA2?$AA?4?$AAD?$AAL?$AAL?$AA?$AA@ 000000018002fdc0     DelayImp:delayhlp.obj
 0002:0000cde0       _load_config_used          000000018002fde0     LIBCMT:loadcfg.obj
 0002:0000ce78       ??_C@_08HCOMDCCD@iojs?4exe?$AA@ 000000018002fe78     win_delay_load_hook.obj
 0002:0000ce88       ??_C@_08JDDNMFDB@node?4exe?$AA@ 000000018002fe88     win_delay_load_hook.obj
 0002:0000ce98       ??_C@_0BC@BDKFLDHL@unknown?5exception?$AA@ 000000018002fe98     jsmsc.obj
 0002:0000ceb0       ??_C@_0BA@ELKIONDK@bad?5locale?5name?$AA@ 000000018002feb0     jsmsc.obj
 0002:0000cec0       ??_C@_05LAPONLG@false?$AA@ 000000018002fec0     jsmsc.obj
 0002:0000cec8       ??_C@_04LOAJBDKD@true?$AA@ 000000018002fec8     jsmsc.obj
 0002:0000cecd       ??_C@_00CNPNBAHC@?$AA@     000000018002fecd     jsmsc.obj
 0002:0000ced0       ??_C@_02LMMGGCAJ@?3?5?$AA@ 000000018002fed0     jsmsc.obj
 0002:0000ced8       ??_C@_08LLGCOLLL@iostream?$AA@ 000000018002fed8     jsmsc.obj
 0002:0000cee8       ??_C@_0BG@PADBLCHM@iostream?5stream?5error?$AA@ 000000018002fee8     jsmsc.obj
 0002:0000cf00       ??_C@_0BF@PHHKMMFD@ios_base?3?3badbit?5set?$AA@ 000000018002ff00     jsmsc.obj
 0002:0000cf18       ??_C@_0BG@FMKFHCIL@ios_base?3?3failbit?5set?$AA@ 000000018002ff18     jsmsc.obj
 0002:0000cf30       ??_C@_0BF@OOHOMBOF@ios_base?3?3eofbit?5set?$AA@ 000000018002ff30     jsmsc.obj
 0002:0000cf48       ??_C@_0BA@JFNIOLAK@string?5too?5long?$AA@ 000000018002ff48     jsmsc.obj
 0002:0000cf58       ??_C@_04FAOIIEOH@spin?$AA@ 000000018002ff58     jsmsc.obj
 0002:0000cf60       ??_C@_0L@EBFGCOHF@stay?5there?$AA@ 000000018002ff60     jsmsc.obj
 0002:0000cf70       ??_C@_0N@FNGAPMMB@Turn?5clkwise?$AA@ 000000018002ff70     jsmsc.obj
 0002:0000cf80       ??_C@_0BF@PCLEPFMG@Turn?5counter?5clkwise?$AA@ 000000018002ff80     jsmsc.obj
 0002:0000cf98       ??_C@_0BH@JMLNFALH@It?5is?5not?5array?5buffer?$AA@ 000000018002ff98     jsmsc.obj
 0002:0000cfb0       ??_C@_0BD@FOEFALKC@It?5is?5array?5buffer?$AA@ 000000018002ffb0     jsmsc.obj
 0002:0000cfc4       ??_C@_06BEFIDBPC@imTest?$AA@ 000000018002ffc4     jsmsc.obj
 0002:0000cfd0       ??_C@_07FLMNHPPG@exports?$AA@ 000000018002ffd0     jsmsc.obj
 0002:0000cfd8       ??_C@_08PINLMNP@jsmsc?4cc?$AA@ 000000018002ffd8     jsmsc.obj
 0002:0000cfe4       ??_C@_05ONJGPJEO@addon?$AA@ 000000018002ffe4     jsmsc.obj
 0002:0000cfec       ??_C@_02BBAHNLBA@?$CFp?$AA@ 000000018002ffec     jsmsc.obj
 0002:0000cff0       ??_C@_02MDKMJEGG@eE?$AA@   000000018002fff0     jsmsc.obj
 0002:0000cff4       ??_C@_02OOPEBDOJ@pP?$AA@   000000018002fff4     jsmsc.obj
 0002:0000cff8       ??_C@_0BI@CFPLBAOH@invalid?5string?5position?$AA@ 000000018002fff8     jsmsc.obj
 0002:0000d010       ?height@@3HA               0000000180030010     jsmsc.obj
 0002:0000d014       ?width@@3HA                0000000180030014     jsmsc.obj
 0002:0000d018       ??_7exception@stdext@@6B@  0000000180030018     jsmsc.obj
 0002:0000d030       __real@3fb999999999999a    0000000180030030     jsmsc.obj
 0002:0000d038       __real@3fd3333333333333    0000000180030038     jsmsc.obj
 0002:0000d040       __real@406b800000000000    0000000180030040     jsmsc.obj
 0002:0000d048       __real@406fe00000000000    0000000180030048     jsmsc.obj
 0002:0000d050       __real@4202a05f20000000    0000000180030050     jsmsc.obj
 0002:0000d058       __real@bfd3333333333333    0000000180030058     jsmsc.obj
 0002:0000d060       __xmm@7fffffffffffffff7fffffffffffffff 0000000180030060     jsmsc.obj
 0002:0000d0c8       _tls_used                  00000001800300c8     LIBCMT:tlssup.obj
 0002:0000d0f0       ??_R4exception@std@@6B@    00000001800300f0     LIBCMT:throw_bad_alloc.obj
 0002:0000d118       ??_R3exception@std@@8      0000000180030118     LIBCMT:throw_bad_alloc.obj
 0002:0000d130       ??_R2exception@std@@8      0000000180030130     LIBCMT:throw_bad_alloc.obj
 0002:0000d140       ??_R1A@?0A@EA@exception@std@@8 0000000180030140     LIBCMT:throw_bad_alloc.obj
 0002:0000d168       ??_R4bad_alloc@std@@6B@    0000000180030168     LIBCMT:throw_bad_alloc.obj
 0002:0000d190       ??_R3bad_alloc@std@@8      0000000180030190     LIBCMT:throw_bad_alloc.obj
 0002:0000d1a8       ??_R2bad_alloc@std@@8      00000001800301a8     LIBCMT:throw_bad_alloc.obj
 0002:0000d1c0       ??_R1A@?0A@EA@bad_alloc@std@@8 00000001800301c0     LIBCMT:throw_bad_alloc.obj
 0002:0000d1e8       ??_R4bad_array_new_length@std@@6B@ 00000001800301e8     LIBCMT:throw_bad_alloc.obj
 0002:0000d210       ??_R3bad_array_new_length@std@@8 0000000180030210     LIBCMT:throw_bad_alloc.obj
 0002:0000d228       ??_R2bad_array_new_length@std@@8 0000000180030228     LIBCMT:throw_bad_alloc.obj
 0002:0000d248       ??_R1A@?0A@EA@bad_array_new_length@std@@8 0000000180030248     LIBCMT:throw_bad_alloc.obj
 0002:0000d270       ??_R4type_info@@6B@        0000000180030270     LIBCMT:std_type_info_static.obj
 0002:0000d298       ??_R3type_info@@8          0000000180030298     LIBCMT:std_type_info_static.obj
 0002:0000d2b0       ??_R2type_info@@8          00000001800302b0     LIBCMT:std_type_info_static.obj
 0002:0000d2c0       ??_R1A@?0A@EA@type_info@@8 00000001800302c0     LIBCMT:std_type_info_static.obj
 0002:0000d2e8       ??_R4ios_base@std@@6B@     00000001800302e8     libcpmt:cout.obj
 0002:0000d310       ??_R3ios_base@std@@8       0000000180030310     libcpmt:cout.obj
 0002:0000d328       ??_R2ios_base@std@@8       0000000180030328     libcpmt:cout.obj
 0002:0000d340       ??_R1A@?0A@EA@ios_base@std@@8 0000000180030340     libcpmt:cout.obj
 0002:0000d368       ??_R17?0A@EA@?$_Iosb@H@std@@8 0000000180030368     libcpmt:cout.obj
 0002:0000d390       ??_R3?$_Iosb@H@std@@8      0000000180030390     libcpmt:cout.obj
 0002:0000d3a8       ??_R2?$_Iosb@H@std@@8      00000001800303a8     libcpmt:cout.obj
 0002:0000d3b8       ??_R1A@?0A@EA@?$_Iosb@H@std@@8 00000001800303b8     libcpmt:cout.obj
 0002:0000d3e0       ??_R4?$basic_ios@DU?$char_traits@D@std@@@std@@6B@ 00000001800303e0     libcpmt:cout.obj
 0002:0000d408       ??_R3?$basic_ios@DU?$char_traits@D@std@@@std@@8 0000000180030408     libcpmt:cout.obj
 0002:0000d420       ??_R2?$basic_ios@DU?$char_traits@D@std@@@std@@8 0000000180030420     libcpmt:cout.obj
 0002:0000d440       ??_R1A@?0A@EA@?$basic_ios@DU?$char_traits@D@std@@@std@@8 0000000180030440     libcpmt:cout.obj
 0002:0000d468       ??_R4?$basic_streambuf@DU?$char_traits@D@std@@@std@@6B@ 0000000180030468     libcpmt:cout.obj
 0002:0000d490       ??_R3?$basic_streambuf@DU?$char_traits@D@std@@@std@@8 0000000180030490     libcpmt:cout.obj
 0002:0000d4a8       ??_R2?$basic_streambuf@DU?$char_traits@D@std@@@std@@8 00000001800304a8     libcpmt:cout.obj
 0002:0000d4b8       ??_R1A@?0A@EA@?$basic_streambuf@DU?$char_traits@D@std@@@std@@8 00000001800304b8     libcpmt:cout.obj
 0002:0000d4e0       ??_R1A@A@3FA@?$basic_ios@DU?$char_traits@D@std@@@std@@8 00000001800304e0     libcpmt:cout.obj
 0002:0000d508       ??_R1A@A@3EA@ios_base@std@@8 0000000180030508     libcpmt:cout.obj
 0002:0000d530       ??_R17A@3EA@?$_Iosb@H@std@@8 0000000180030530     libcpmt:cout.obj
 0002:0000d558       ??_R4?$basic_ostream@DU?$char_traits@D@std@@@std@@6B@ 0000000180030558     libcpmt:cout.obj
 0002:0000d580       ??_R3?$basic_ostream@DU?$char_traits@D@std@@@std@@8 0000000180030580     libcpmt:cout.obj
 0002:0000d598       ??_R2?$basic_ostream@DU?$char_traits@D@std@@@std@@8 0000000180030598     libcpmt:cout.obj
 0002:0000d5c0       ??_R1A@?0A@EA@?$basic_ostream@DU?$char_traits@D@std@@@std@@8 00000001800305c0     libcpmt:cout.obj
 0002:0000d5e8       ??_R4?$basic_filebuf@DU?$char_traits@D@std@@@std@@6B@ 00000001800305e8     libcpmt:cout.obj
 0002:0000d610       ??_R3?$basic_filebuf@DU?$char_traits@D@std@@@std@@8 0000000180030610     libcpmt:cout.obj
 0002:0000d628       ??_R2?$basic_filebuf@DU?$char_traits@D@std@@@std@@8 0000000180030628     libcpmt:cout.obj
 0002:0000d640       ??_R1A@?0A@EA@?$basic_filebuf@DU?$char_traits@D@std@@@std@@8 0000000180030640     libcpmt:cout.obj
 0002:0000d668       ??_R4runtime_error@std@@6B@ 0000000180030668     libcpmt:cout.obj
 0002:0000d690       ??_R3runtime_error@std@@8  0000000180030690     libcpmt:cout.obj
 0002:0000d6a8       ??_R2runtime_error@std@@8  00000001800306a8     libcpmt:cout.obj
 0002:0000d6c0       ??_R1A@?0A@EA@runtime_error@std@@8 00000001800306c0     libcpmt:cout.obj
 0002:0000d6e8       ??_R4bad_cast@std@@6B@     00000001800306e8     libcpmt:cout.obj
 0002:0000d710       ??_R3bad_cast@std@@8       0000000180030710     libcpmt:cout.obj
 0002:0000d728       ??_R2bad_cast@std@@8       0000000180030728     libcpmt:cout.obj
 0002:0000d740       ??_R1A@?0A@EA@bad_cast@std@@8 0000000180030740     libcpmt:cout.obj
 0002:0000d768       ??_R4_Facet_base@std@@6B@  0000000180030768     libcpmt:cout.obj
 0002:0000d790       ??_R3_Facet_base@std@@8    0000000180030790     libcpmt:cout.obj
 0002:0000d7a8       ??_R2_Facet_base@std@@8    00000001800307a8     libcpmt:cout.obj
 0002:0000d7b8       ??_R1A@?0A@EA@_Facet_base@std@@8 00000001800307b8     libcpmt:cout.obj
 0002:0000d7e0       ??_R1A@?0A@EA@facet@locale@std@@8 00000001800307e0     libcpmt:cout.obj
 0002:0000d808       ??_R3facet@locale@std@@8   0000000180030808     libcpmt:cout.obj
 0002:0000d820       ??_R2facet@locale@std@@8   0000000180030820     libcpmt:cout.obj
 0002:0000d840       ??_R17?0A@EA@_Crt_new_delete@std@@8 0000000180030840     libcpmt:cout.obj
 0002:0000d868       ??_R3_Crt_new_delete@std@@8 0000000180030868     libcpmt:cout.obj
 0002:0000d880       ??_R2_Crt_new_delete@std@@8 0000000180030880     libcpmt:cout.obj
 0002:0000d890       ??_R1A@?0A@EA@_Crt_new_delete@std@@8 0000000180030890     libcpmt:cout.obj
 0002:0000d8b8       ??_R3codecvt_base@std@@8   00000001800308b8     libcpmt:cout.obj
 0002:0000d8d0       ??_R2codecvt_base@std@@8   00000001800308d0     libcpmt:cout.obj
 0002:0000d8f8       ??_R1A@?0A@EA@codecvt_base@std@@8 00000001800308f8     libcpmt:cout.obj
 0002:0000d920       ??_R3ctype_base@std@@8     0000000180030920     libcpmt:cout.obj
 0002:0000d938       ??_R2ctype_base@std@@8     0000000180030938     libcpmt:cout.obj
 0002:0000d960       ??_R1A@?0A@EA@ctype_base@std@@8 0000000180030960     libcpmt:cout.obj
 0002:0000d988       ??_R4?$ctype@D@std@@6B@    0000000180030988     libcpmt:cout.obj
 0002:0000d9b0       ??_R3?$ctype@D@std@@8      00000001800309b0     libcpmt:cout.obj
 0002:0000d9c8       ??_R2?$ctype@D@std@@8      00000001800309c8     libcpmt:cout.obj
 0002:0000d9f8       ??_R1A@?0A@EA@?$ctype@D@std@@8 00000001800309f8     libcpmt:cout.obj
 0002:0000da20       ??_R4error_category@std@@6B@ 0000000180030a20     libcpmt:cout.obj
 0002:0000da48       ??_R3error_category@std@@8 0000000180030a48     libcpmt:cout.obj
 0002:0000da60       ??_R2error_category@std@@8 0000000180030a60     libcpmt:cout.obj
 0002:0000da70       ??_R1A@?0A@EA@error_category@std@@8 0000000180030a70     libcpmt:cout.obj
 0002:0000da98       ??_R4_System_error@std@@6B@ 0000000180030a98     libcpmt:cout.obj
 0002:0000dac0       ??_R3_System_error@std@@8  0000000180030ac0     libcpmt:cout.obj
 0002:0000dad8       ??_R2_System_error@std@@8  0000000180030ad8     libcpmt:cout.obj
 0002:0000daf8       ??_R1A@?0A@EA@_System_error@std@@8 0000000180030af8     libcpmt:cout.obj
 0002:0000db20       ??_R3system_error@std@@8   0000000180030b20     libcpmt:cout.obj
 0002:0000db38       ??_R2system_error@std@@8   0000000180030b38     libcpmt:cout.obj
 0002:0000db60       ??_R1A@?0A@EA@system_error@std@@8 0000000180030b60     libcpmt:cout.obj
 0002:0000db88       ??_R3_Generic_error_category@std@@8 0000000180030b88     libcpmt:cout.obj
 0002:0000dba0       ??_R2_Generic_error_category@std@@8 0000000180030ba0     libcpmt:cout.obj
 0002:0000dbb8       ??_R1A@?0A@EA@_Generic_error_category@std@@8 0000000180030bb8     libcpmt:cout.obj
 0002:0000dbe0       ??_R4_Iostream_error_category@std@@6B@ 0000000180030be0     libcpmt:cout.obj
 0002:0000dc08       ??_R3_Iostream_error_category@std@@8 0000000180030c08     libcpmt:cout.obj
 0002:0000dc20       ??_R2_Iostream_error_category@std@@8 0000000180030c20     libcpmt:cout.obj
 0002:0000dc40       ??_R1A@?0A@EA@_Iostream_error_category@std@@8 0000000180030c40     libcpmt:cout.obj
 0002:0000dc68       ??_R4failure@ios_base@std@@6B@ 0000000180030c68     libcpmt:cout.obj
 0002:0000dc90       ??_R3failure@ios_base@std@@8 0000000180030c90     libcpmt:cout.obj
 0002:0000dca8       ??_R2failure@ios_base@std@@8 0000000180030ca8     libcpmt:cout.obj
 0002:0000dcd8       ??_R1A@?0A@EA@failure@ios_base@std@@8 0000000180030cd8     libcpmt:cout.obj
 0002:0000dd00       ??_R4?$codecvt@DDU_Mbstatet@@@std@@6B@ 0000000180030d00     libcpmt:cout.obj
 0002:0000dd28       ??_R3?$codecvt@DDU_Mbstatet@@@std@@8 0000000180030d28     libcpmt:cout.obj
 0002:0000dd40       ??_R2?$codecvt@DDU_Mbstatet@@@std@@8 0000000180030d40     libcpmt:cout.obj
 0002:0000dd70       ??_R1A@?0A@EA@?$codecvt@DDU_Mbstatet@@@std@@8 0000000180030d70     libcpmt:cout.obj
 0002:0000dd98       ??_R4_Locimp@locale@std@@6B@ 0000000180030d98     libcpmt:locale0.obj
 0002:0000ddc0       ??_R3_Locimp@locale@std@@8 0000000180030dc0     libcpmt:locale0.obj
 0002:0000ddd8       ??_R2_Locimp@locale@std@@8 0000000180030dd8     libcpmt:locale0.obj
 0002:0000de00       ??_R1A@?0A@EA@_Locimp@locale@std@@8 0000000180030e00     libcpmt:locale0.obj
 0002:0000de28       ??_R4logic_error@std@@6B@  0000000180030e28     libcpmt:xthrow.obj
 0002:0000de50       ??_R3logic_error@std@@8    0000000180030e50     libcpmt:xthrow.obj
 0002:0000de68       ??_R2logic_error@std@@8    0000000180030e68     libcpmt:xthrow.obj
 0002:0000de80       ??_R1A@?0A@EA@logic_error@std@@8 0000000180030e80     libcpmt:xthrow.obj
 0002:0000dea8       ??_R4length_error@std@@6B@ 0000000180030ea8     libcpmt:xthrow.obj
 0002:0000ded0       ??_R3length_error@std@@8   0000000180030ed0     libcpmt:xthrow.obj
 0002:0000dee8       ??_R2length_error@std@@8   0000000180030ee8     libcpmt:xthrow.obj
 0002:0000df08       ??_R1A@?0A@EA@length_error@std@@8 0000000180030f08     libcpmt:xthrow.obj
 0002:0000df30       ??_R4out_of_range@std@@6B@ 0000000180030f30     libcpmt:xthrow.obj
 0002:0000df58       ??_R3out_of_range@std@@8   0000000180030f58     libcpmt:xthrow.obj
 0002:0000df70       ??_R2out_of_range@std@@8   0000000180030f70     libcpmt:xthrow.obj
 0002:0000df90       ??_R1A@?0A@EA@out_of_range@std@@8 0000000180030f90     libcpmt:xthrow.obj
 0002:0000dfb8       ??_R4?$num_put@DV?$ostreambuf_iterator@DU?$char_traits@D@std@@@std@@@std@@6B@ 0000000180030fb8     libcpmt:locale.obj
 0002:0000dfe0       ??_R3?$num_put@DV?$ostreambuf_iterator@DU?$char_traits@D@std@@@std@@@std@@8 0000000180030fe0     libcpmt:locale.obj
 0002:0000dff8       ??_R2?$num_put@DV?$ostreambuf_iterator@DU?$char_traits@D@std@@@std@@@std@@8 0000000180030ff8     libcpmt:locale.obj
 0002:0000e020       ??_R1A@?0A@EA@?$num_put@DV?$ostreambuf_iterator@DU?$char_traits@D@std@@@std@@@std@@8 0000000180031020     libcpmt:locale.obj
 0002:0000e048       ??_R4?$numpunct@D@std@@6B@ 0000000180031048     libcpmt:locale.obj
 0002:0000e070       ??_R3?$numpunct@D@std@@8   0000000180031070     libcpmt:locale.obj
 0002:0000e088       ??_R2?$numpunct@D@std@@8   0000000180031088     libcpmt:locale.obj
 0002:0000e0b0       ??_R1A@?0A@EA@?$numpunct@D@std@@8 00000001800310b0     libcpmt:locale.obj
 0002:0000e0d8       ??_R4bad_exception@std@@6B@ 00000001800310d8     libvcruntime:frame.obj
 0002:0000e100       ??_R3bad_exception@std@@8  0000000180031100     libvcruntime:frame.obj
 0002:0000e118       ??_R2bad_exception@std@@8  0000000180031118     libvcruntime:frame.obj
 0002:0000e130       ??_R1A@?0A@EA@bad_exception@std@@8 0000000180031130     libvcruntime:frame.obj
 0002:0000e158       ?_TraceLoggingMetadata@?1??_TlgWrite@__vcrt_trace_logging_provider@@YAJPEBU_TlgProvider_t@2@PEFBXPEBU_GUID@@2IPEAU_EVENT_DATA_DESCRIPTOR@@@Z@4U_TraceLoggingMetadata_t@2@B 0000000180031158     libvcruntime:telemetry.obj
 0002:0000e20b       ?_TraceLoggingMetadataEnd@?1??_TlgWrite@__vcrt_trace_logging_provider@@YAJPEBU_TlgProvider_t@2@PEFBXPEBU_GUID@@2IPEAU_EVENT_DATA_DESCRIPTOR@@@Z@4EB 000000018003120b     libvcruntime:telemetry.obj
 0002:0000e700       __rtc_iaa                  0000000180031700     LIBCMT:_initsect_.obj
 0002:0000e708       __rtc_izz                  0000000180031708     LIBCMT:_initsect_.obj
 0002:0000e710       __rtc_taa                  0000000180031710     LIBCMT:_initsect_.obj
 0002:0000e718       __rtc_tzz                  0000000180031718     LIBCMT:_initsect_.obj
 0002:00010508       _TI2?AVbad_alloc@std@@     0000000180033508     LIBCMT:throw_bad_alloc.obj
 0002:00010528       _CTA2?AVbad_alloc@std@@    0000000180033528     LIBCMT:throw_bad_alloc.obj
 0002:00010540       _CT??_R0?AVbad_alloc@std@@@8??0bad_alloc@std@@QEAA@AEBV01@@Z24 0000000180033540     LIBCMT:throw_bad_alloc.obj
 0002:00010568       _CT??_R0?AVexception@std@@@8??0exception@std@@QEAA@AEBV01@@Z24 0000000180033568     LIBCMT:throw_bad_alloc.obj
 0002:00010590       _TI3?AVbad_array_new_length@std@@ 0000000180033590     LIBCMT:throw_bad_alloc.obj
 0002:000105b0       _CTA3?AVbad_array_new_length@std@@ 00000001800335b0     LIBCMT:throw_bad_alloc.obj
 0002:000105d0       _CT??_R0?AVbad_array_new_length@std@@@8??0bad_array_new_length@std@@QEAA@AEBV01@@Z24 00000001800335d0     LIBCMT:throw_bad_alloc.obj
 0002:000105f8       _TI2?AVbad_cast@std@@      00000001800335f8     libcpmt:cout.obj
 0002:00010618       _CTA2?AVbad_cast@std@@     0000000180033618     libcpmt:cout.obj
 0002:00010630       _CT??_R0?AVbad_cast@std@@@8??0bad_cast@std@@QEAA@AEBV01@@Z24 0000000180033630     libcpmt:cout.obj
 0002:00010658       _CT??_R0?AVlogic_error@std@@@8??0logic_error@std@@QEAA@AEBV01@@Z24 0000000180033658     libcpmt:xthrow.obj
 0002:00010680       _TI3?AVlength_error@std@@  0000000180033680     libcpmt:xthrow.obj
 0002:000106a0       _CTA3?AVlength_error@std@@ 00000001800336a0     libcpmt:xthrow.obj
 0002:000106c0       _CT??_R0?AVlength_error@std@@@8??0length_error@std@@QEAA@AEBV01@@Z24 00000001800336c0     libcpmt:xthrow.obj
 0002:000106e8       _TI3?AVout_of_range@std@@  00000001800336e8     libcpmt:xthrow.obj
 0002:00010708       _CTA3?AVout_of_range@std@@ 0000000180033708     libcpmt:xthrow.obj
 0002:00010728       _CT??_R0?AVout_of_range@std@@@8??0out_of_range@std@@QEAA@AEBV01@@Z24 0000000180033728     libcpmt:xthrow.obj
 0002:00010750       _TI2?AVbad_exception@std@@ 0000000180033750     libvcruntime:frame.obj
 0002:00010770       _CTA2?AVbad_exception@std@@ 0000000180033770     libvcruntime:frame.obj
 0002:00010788       _CT??_R0?AVbad_exception@std@@@8??0bad_exception@std@@QEAA@AEBV01@@Z24 0000000180033788     libvcruntime:frame.obj
 0002:000107ac       __DELAY_IMPORT_DESCRIPTOR_node_exe 00000001800337ac     node:node.exe
 0002:000107cc       __NULL_DELAY_IMPORT_DESCRIPTOR 00000001800337cc     node:node.exe
 0002:00010868       \177node_NULL_THUNK_DATA_DLN 0000000180033868     node:node.exe
 0002:00010c18       \177node_NULL_THUNK_DATA_DLB 0000000180033c18     node:node.exe
 0002:00010ce0       __IMPORT_DESCRIPTOR_KERNEL32 0000000180033ce0     kernel32:KERNEL32.dll
 0002:00010cf4       __IMPORT_DESCRIPTOR_opencv_core2411 0000000180033cf4     opencv_core2411:opencv_core2411.dll
 0002:00010d08       __IMPORT_DESCRIPTOR_opencv_highgui2411 0000000180033d08     opencv_highgui2411:opencv_highgui2411.dll
 0002:00010d1c       __IMPORT_DESCRIPTOR_opencv_imgproc2411 0000000180033d1c     opencv_imgproc2411:opencv_imgproc2411.dll
 0002:00010d30       __IMPORT_DESCRIPTOR_ADVAPI32 0000000180033d30     advapi32:ADVAPI32.dll
 0002:00010d44       __NULL_IMPORT_DESCRIPTOR   0000000180033d44     kernel32:KERNEL32.dll
 0003:00000000       _Init_global_epoch         0000000180035000     LIBCMT:thread_safe_statics.obj
 0003:00000004       __scrt_native_dllmain_reason 0000000180035004     LIBCMT:utility.obj
 0003:00000008       __security_cookie          0000000180035008     LIBCMT:gs_cookie.obj
 0003:00000010       __security_cookie_complement 0000000180035010     LIBCMT:gs_cookie.obj
 0003:00000018       __isa_available            0000000180035018     LIBCMT:_cpu_disp_.obj
 0003:0000001c       __isa_enabled              000000018003501c     LIBCMT:_cpu_disp_.obj
 0003:00000020       __memcpy_nt_iters          0000000180035020     LIBCMT:_cpu_disp_.obj
 0003:00000034       ?_Sync@ios_base@std@@0_NA  0000000180035034     libcpmt:ios.obj
 0003:00000050       ?_PJP_CPP_Copyright@@3PADA 0000000180035050     libcpmt:iosptrs.obj
 0003:000000a8       _FDenorm                   00000001800350a8     libcpmt:xfvalues.obj
 0003:000000b8       _FInf                      00000001800350b8     libcpmt:xfvalues.obj
 0003:000000c8       _FNan                      00000001800350c8     libcpmt:xfvalues.obj
 0003:000000d8       _FSnan                     00000001800350d8     libcpmt:xfvalues.obj
 0003:000000e8       _FEps                      00000001800350e8     libcpmt:xfvalues.obj
 0003:000000f8       _FRteps                    00000001800350f8     libcpmt:xfvalues.obj
 0003:00000108       _FXbig                     0000000180035108     libcpmt:xfvalues.obj
 0003:00000110       _Denorm                    0000000180035110     libcpmt:xvalues.obj
 0003:00000120       _Hugeval                   0000000180035120     libcpmt:xvalues.obj
 0003:00000130       _Inf                       0000000180035130     libcpmt:xvalues.obj
 0003:00000140       _Nan                       0000000180035140     libcpmt:xvalues.obj
 0003:00000150       _Snan                      0000000180035150     libcpmt:xvalues.obj
 0003:00000160       _Eps                       0000000180035160     libcpmt:xvalues.obj
 0003:00000170       _Rteps                     0000000180035170     libcpmt:xvalues.obj
 0003:00000180       _Xbig                      0000000180035180     libcpmt:xvalues.obj
 0003:00000188       _LDenorm                   0000000180035188     libcpmt:xlvalues.obj
 0003:00000198       _LInf                      0000000180035198     libcpmt:xlvalues.obj
 0003:000001a8       _LNan                      00000001800351a8     libcpmt:xlvalues.obj
 0003:000001b8       _LSnan                     00000001800351b8     libcpmt:xlvalues.obj
 0003:000001c8       _LEps                      00000001800351c8     libcpmt:xlvalues.obj
 0003:000001d8       _LRteps                    00000001800351d8     libcpmt:xlvalues.obj
 0003:000001e8       _LXbig                     00000001800351e8     libcpmt:xlvalues.obj
 0003:00000250       __abort_behavior           0000000180035250     libucrt:abort.obj
 0003:00000260       __acrt_lconv_c             0000000180035260     libucrt:localeconv.obj
 0003:000002f8       __acrt_lconv               00000001800352f8     libucrt:localeconv.obj
 0003:00000300       __acrt_lconv_static_decimal 0000000180035300     libucrt:localeconv.obj
 0003:00000304       __acrt_lconv_static_W_decimal 0000000180035304     libucrt:localeconv.obj
 0003:00000310       _iob                       0000000180035310     libucrt:_file.obj
 0003:00000418       _pctype                    0000000180035418     libucrt:ctype.obj
 0003:00000420       _pwctype                   0000000180035420     libucrt:ctype.obj
 0003:00000440       __acrt_initial_locale_data 0000000180035440     libucrt:nlsdata.obj
 0003:00000598       __acrt_initial_locale_pointers 0000000180035598     libucrt:nlsdata.obj
 0003:000005a8       __acrt_wide_c_locale_string 00000001800355a8     libucrt:nlsdata.obj
 0003:000005ac       __mb_cur_max               00000001800355ac     libucrt:nlsdata.obj
 0003:000005b0       __badioinfo                00000001800355b0     libucrt:ioinit.obj
 0003:00000600       __acrt_initial_multibyte_data 0000000180035600     libucrt:mbctype.obj
 0003:00000828       __acrt_current_multibyte_data 0000000180035828     libucrt:mbctype.obj
 0003:00000930       _mbctype                   0000000180035930     libucrt:mbctype.obj
 0003:00000a40       _mbcasemap                 0000000180035a40     libucrt:mbctype.obj
 0003:00000b40       __globallocalestatus       0000000180035b40     libucrt:glstatus.obj
 0003:00000be0       _lookuptrailbytes          0000000180035be0     libucrt:read.obj
 0003:00000ce8       __dcrt_lowio_console_output_handle 0000000180035ce8     libucrt:initcon.obj
 0003:00000cf0       _fltused                   0000000180035cf0     LIBCMT:fltused.obj
 0003:00000d00       __pfnDliNotifyHook2        0000000180035d00     win_delay_load_hook.obj
 0003:00000d50       ??_R0?AVbad_alloc@std@@@8  0000000180035d50     LIBCMT:throw_bad_alloc.obj
 0003:00000d78       ??_R0?AVexception@std@@@8  0000000180035d78     LIBCMT:throw_bad_alloc.obj
 0003:00000da0       ??_R0?AVbad_array_new_length@std@@@8 0000000180035da0     LIBCMT:throw_bad_alloc.obj
 0003:00000dd0       ??_R0?AVtype_info@@@8      0000000180035dd0     LIBCMT:std_type_info_static.obj
 0003:00000df0       ??_R0?AVruntime_error@std@@@8 0000000180035df0     libcpmt:cout.obj
 0003:00000e18       ??_R0?AVfailure@ios_base@std@@@8 0000000180035e18     libcpmt:cout.obj
 0003:00000e48       ??_R0?AVsystem_error@std@@@8 0000000180035e48     libcpmt:cout.obj
 0003:00000e70       ??_R0?AV_System_error@std@@@8 0000000180035e70     libcpmt:cout.obj
 0003:00000e98       ??_R0?AVbad_cast@std@@@8   0000000180035e98     libcpmt:cout.obj
 0003:00000ec0       ??_R0?AVios_base@std@@@8   0000000180035ec0     libcpmt:cout.obj
 0003:00000ee8       ??_R0?AV?$_Iosb@H@std@@@8  0000000180035ee8     libcpmt:cout.obj
 0003:00000f10       ??_R0?AV?$basic_ios@DU?$char_traits@D@std@@@std@@@8 0000000180035f10     libcpmt:cout.obj
 0003:00000f50       ??_R0?AV?$basic_streambuf@DU?$char_traits@D@std@@@std@@@8 0000000180035f50     libcpmt:cout.obj
 0003:00000fa0       ??_R0?AV?$basic_ostream@DU?$char_traits@D@std@@@std@@@8 0000000180035fa0     libcpmt:cout.obj
 0003:00000ff0       ??_R0?AV?$basic_filebuf@DU?$char_traits@D@std@@@std@@@8 0000000180035ff0     libcpmt:cout.obj
 0003:00001038       ??_R0?AV_Facet_base@std@@@8 0000000180036038     libcpmt:cout.obj
 0003:00001060       ??_R0?AVfacet@locale@std@@@8 0000000180036060     libcpmt:cout.obj
 0003:00001088       ??_R0?AU_Crt_new_delete@std@@@8 0000000180036088     libcpmt:cout.obj
 0003:000010b8       ??_R0?AVcodecvt_base@std@@@8 00000001800360b8     libcpmt:cout.obj
 0003:000010e0       ??_R0?AUctype_base@std@@@8 00000001800360e0     libcpmt:cout.obj
 0003:00001108       ??_R0?AV?$ctype@D@std@@@8  0000000180036108     libcpmt:cout.obj
 0003:00001130       ??_R0?AVerror_category@std@@@8 0000000180036130     libcpmt:cout.obj
 0003:00001160       ??_R0?AV_Generic_error_category@std@@@8 0000000180036160     libcpmt:cout.obj
 0003:00001198       ??_R0?AV_Iostream_error_category@std@@@8 0000000180036198     libcpmt:cout.obj
 0003:000011d0       ??_R0?AV?$codecvt@DDU_Mbstatet@@@std@@@8 00000001800361d0     libcpmt:cout.obj
 0003:00001208       ??_R0?AV_Locimp@locale@std@@@8 0000000180036208     libcpmt:locale0.obj
 0003:00001238       ??_R0?AVlogic_error@std@@@8 0000000180036238     libcpmt:xthrow.obj
 0003:00001260       ??_R0?AVlength_error@std@@@8 0000000180036260     libcpmt:xthrow.obj
 0003:00001288       ??_R0?AVout_of_range@std@@@8 0000000180036288     libcpmt:xthrow.obj
 0003:000012b0       ??_R0?AV?$num_put@DV?$ostreambuf_iterator@DU?$char_traits@D@std@@@std@@@std@@@8 00000001800362b0     libcpmt:locale.obj
 0003:00001310       ??_R0?AV?$numpunct@D@std@@@8 0000000180036310     libcpmt:locale.obj
 0003:00001338       ??_R0?AVbad_exception@std@@@8 0000000180036338     libvcruntime:frame.obj
 0003:00001360       __imp_?GetCurrent@Isolate@v8@@SAPEAV12@XZ 0000000180036360     node:node.exe
 0003:00001368       __imp_??1HandleScope@v8@@QEAA@XZ 0000000180036368     node:node.exe
 0003:00001370       __imp_??0HandleScope@v8@@QEAA@PEAVIsolate@1@@Z 0000000180036370     node:node.exe
 0003:00001378       __imp_?GetFunction@FunctionTemplate@v8@@QEAA?AV?$Local@VFunction@v8@@@2@XZ 0000000180036378     node:node.exe
 0003:00001380       __imp_?New@FunctionTemplate@v8@@SA?AV?$Local@VFunctionTemplate@v8@@@2@PEAVIsolate@2@P6AXAEBV?$FunctionCallbackInfo@VValue@v8@@@2@@ZV?$Local@VValue@v8@@@2@V?$Local@VSignature@v8@@@2@H@Z 0000000180036380     node:node.exe
 0003:00001388       __imp_?IsArrayBuffer@Value@v8@@QEBA_NXZ 0000000180036388     node:node.exe
 0003:00001390       __imp_?NewFromUtf8@String@v8@@SA?AV?$Local@VString@v8@@@2@PEAVIsolate@2@PEBDW4NewStringType@12@H@Z 0000000180036390     node:node.exe
 0003:00001398       __imp_?New@Number@v8@@SA?AV?$Local@VNumber@v8@@@2@PEAVIsolate@2@N@Z 0000000180036398     node:node.exe
 0003:000013a0       __imp_?New@Object@v8@@SA?AV?$Local@VObject@v8@@@2@PEAVIsolate@2@@Z 00000001800363a0     node:node.exe
 0003:000013a8       __imp_?Set@Object@v8@@QEAA_NV?$Local@VValue@v8@@@2@0@Z 00000001800363a8     node:node.exe
 0003:000013b0       __imp_?SetName@Function@v8@@QEAAXV?$Local@VString@v8@@@2@@Z 00000001800363b0     node:node.exe
 0003:000013b8       __imp_node_module_register 00000001800363b8     node:node.exe
 0003:000013c0       __imp_?Data@Buffer@node@@YAPEADV?$Local@VObject@v8@@@v8@@@Z 00000001800363c0     node:node.exe
 0003:000013c8       __imp_?Length@Buffer@node@@YA_KV?$Local@VObject@v8@@@v8@@@Z 00000001800363c8     node:node.exe
 0003:000013d0       __imp_?ToObject@Value@v8@@QEBA?AV?$Local@VObject@v8@@@2@XZ 00000001800363d0     node:node.exe
 0003:000013d8       \177node_NULL_THUNK_DATA_DLA 00000001800363d8     node:node.exe
 0003:000013e0       __hmod__node_exe           00000001800363e0     node:node.exe
 0003:00001430       __scrt_current_native_startup_state 0000000180036430     LIBCMT:utility.obj
 0003:00001438       __scrt_native_startup_lock 0000000180036438     LIBCMT:utility.obj
 0003:000019f0       __scrt_debugger_hook_flag  00000001800369f0     LIBCMT:utility_desktop.obj
 0003:000019f4       _tls_index                 00000001800369f4     LIBCMT:tlssup.obj
 0003:000019f8       __favor                    00000001800369f8     LIBCMT:_cpu_disp_.obj
 0003:00001a00       ?__type_info_root_node@@3U__type_info_node@@A 0000000180036a00     LIBCMT:tncleanup.obj
 0003:00001a10       ?_OptionsStorage@?1??__local_stdio_scanf_options@@9@4_KA 0000000180036a10     LIBCMT:default_local_stdio_options.obj
 0003:00001b80       ?cout@std@@3V?$basic_ostream@DU?$char_traits@D@std@@@1@A 0000000180036b80     libcpmt:cout.obj
 0003:00001c88       ?id@?$codecvt@DDU_Mbstatet@@@std@@2V0locale@2@A 0000000180036c88     libcpmt:cout.obj
 0003:00001c90       ?_Stinit@?1??_Init@?$basic_filebuf@DU?$char_traits@D@std@@@std@@IEAAXPEAU_iobuf@@W4_Initfl@23@@Z@4U_Mbstatet@@A 0000000180036c90     libcpmt:cout.obj
 0003:00001c98       ?_Psave@?$_Facetptr@V?$codecvt@DDU_Mbstatet@@@std@@@std@@2PEBVfacet@locale@2@EB 0000000180036c98     libcpmt:cout.obj
 0003:00001ca0       ?_Id_cnt@id@locale@std@@0HA 0000000180036ca0     libcpmt:locale0.obj
 0003:00001cb0       ?_Clocptr@_Locimp@locale@std@@0PEAV123@EA 0000000180036cb0     libcpmt:locale0.obj
 0003:00001cc0       ?id@?$ctype@_W@std@@2V0locale@2@A 0000000180036cc0     libcpmt:locale0.obj
 0003:00001cc8       ?id@?$ctype@D@std@@2V0locale@2@A 0000000180036cc8     libcpmt:locale0.obj
 0003:00001cd0       ?id@?$codecvt@GDU_Mbstatet@@@std@@2V0locale@2@A 0000000180036cd0     libcpmt:locale0.obj
 0003:00001cd8       ?id@?$ctype@G@std@@2V0locale@2@A 0000000180036cd8     libcpmt:locale0.obj
 0003:00001cf0       ?id@?$codecvt@_WDU_Mbstatet@@@std@@2V0locale@2@A 0000000180036cf0     libcpmt:locale0.obj
 0003:00001d00       ?_Raise_handler@std@@3P6AXAEBVexception@stdext@@@ZEA 0000000180036d00     libcpmt:raisehan.obj
 0003:00001d6c       ?_Index@ios_base@std@@0HA  0000000180036d6c     libcpmt:ios.obj
 0003:00001dc0       ?_Ptr_cin@std@@3PEAV?$basic_istream@DU?$char_traits@D@std@@@1@EA 0000000180036dc0     libcpmt:iosptrs.obj
 0003:00001dc8       ?_Ptr_cout@std@@3PEAV?$basic_ostream@DU?$char_traits@D@std@@@1@EA 0000000180036dc8     libcpmt:iosptrs.obj
 0003:00001dd0       ?_Ptr_cerr@std@@3PEAV?$basic_ostream@DU?$char_traits@D@std@@@1@EA 0000000180036dd0     libcpmt:iosptrs.obj
 0003:00001dd8       ?_Ptr_clog@std@@3PEAV?$basic_ostream@DU?$char_traits@D@std@@@1@EA 0000000180036dd8     libcpmt:iosptrs.obj
 0003:00001de0       ?_Ptr_wcin@std@@3PEAV?$basic_istream@_WU?$char_traits@_W@std@@@1@EA 0000000180036de0     libcpmt:iosptrs.obj
 0003:00001de8       ?_Ptr_wcout@std@@3PEAV?$basic_ostream@_WU?$char_traits@_W@std@@@1@EA 0000000180036de8     libcpmt:iosptrs.obj
 0003:00001df0       ?_Ptr_wcerr@std@@3PEAV?$basic_ostream@_WU?$char_traits@_W@std@@@1@EA 0000000180036df0     libcpmt:iosptrs.obj
 0003:00001df8       ?_Ptr_wclog@std@@3PEAV?$basic_ostream@_WU?$char_traits@_W@std@@@1@EA 0000000180036df8     libcpmt:iosptrs.obj
 0003:00001e08       ?id@?$num_get@DV?$istreambuf_iterator@DU?$char_traits@D@std@@@std@@@std@@2V0locale@2@A 0000000180036e08     libcpmt:locale.obj
 0003:00001e10       __encodedKERNEL32Functions 0000000180036e10     libcpmt:winapisupp.obj
 0003:00001f50       ?id@?$time_put@_WV?$ostreambuf_iterator@_WU?$char_traits@_W@std@@@std@@@std@@2V0locale@2@A 0000000180036f50     libcpmt:wlocale.obj
 0003:00001f58       ?id@?$num_get@_WV?$istreambuf_iterator@_WU?$char_traits@_W@std@@@std@@@std@@2V0locale@2@A 0000000180036f58     libcpmt:wlocale.obj
 0003:00001f60       ?id@?$num_put@_WV?$ostreambuf_iterator@_WU?$char_traits@_W@std@@@std@@@std@@2V0locale@2@A 0000000180036f60     libcpmt:wlocale.obj
 0003:00001f68       ?id@?$numpunct@_W@std@@2V0locale@2@A 0000000180036f68     libcpmt:wlocale.obj
 0003:00001f70       ?id@?$collate@_W@std@@2V0locale@2@A 0000000180036f70     libcpmt:wlocale.obj
 0003:00001f78       ?id@?$messages@_W@std@@2V0locale@2@A 0000000180036f78     libcpmt:wlocale.obj
 0003:00001f80       ?id@?$money_get@_WV?$istreambuf_iterator@_WU?$char_traits@_W@std@@@std@@@std@@2V0locale@2@A 0000000180036f80     libcpmt:wlocale.obj
 0003:00001f88       ?id@?$money_put@_WV?$ostreambuf_iterator@_WU?$char_traits@_W@std@@@std@@@std@@2V0locale@2@A 0000000180036f88     libcpmt:wlocale.obj
 0003:00001f90       ?id@?$moneypunct@_W$0A@@std@@2V0locale@2@A 0000000180036f90     libcpmt:wlocale.obj
 0003:00001f98       ?id@?$moneypunct@_W$00@std@@2V0locale@2@A 0000000180036f98     libcpmt:wlocale.obj
 0003:00001fa0       ?id@?$time_get@_WV?$istreambuf_iterator@_WU?$char_traits@_W@std@@@std@@@std@@2V0locale@2@A 0000000180036fa0     libcpmt:wlocale.obj
 0003:00001fa8       ?id@?$num_get@GV?$istreambuf_iterator@GU?$char_traits@G@std@@@std@@@std@@2V0locale@2@A 0000000180036fa8     libcpmt:wlocale.obj
 0003:00001fb0       ?id@?$num_put@GV?$ostreambuf_iterator@GU?$char_traits@G@std@@@std@@@std@@2V0locale@2@A 0000000180036fb0     libcpmt:wlocale.obj
 0003:00001fb8       ?id@?$numpunct@G@std@@2V0locale@2@A 0000000180036fb8     libcpmt:wlocale.obj
 0003:00001fc0       ?id@?$collate@G@std@@2V0locale@2@A 0000000180036fc0     libcpmt:wlocale.obj
 0003:00001fc8       ?id@?$messages@G@std@@2V0locale@2@A 0000000180036fc8     libcpmt:wlocale.obj
 0003:00001fd0       ?id@?$money_get@GV?$istreambuf_iterator@GU?$char_traits@G@std@@@std@@@std@@2V0locale@2@A 0000000180036fd0     libcpmt:wlocale.obj
 0003:00001fd8       ?id@?$money_put@GV?$ostreambuf_iterator@GU?$char_traits@G@std@@@std@@@std@@2V0locale@2@A 0000000180036fd8     libcpmt:wlocale.obj
 0003:00001fe0       ?id@?$moneypunct@G$0A@@std@@2V0locale@2@A 0000000180036fe0     libcpmt:wlocale.obj
 0003:00001fe8       ?id@?$moneypunct@G$00@std@@2V0locale@2@A 0000000180036fe8     libcpmt:wlocale.obj
 0003:00001ff0       ?id@?$time_get@GV?$istreambuf_iterator@GU?$char_traits@G@std@@@std@@@std@@2V0locale@2@A 0000000180036ff0     libcpmt:wlocale.obj
 0003:00001ff8       ?id@?$time_put@GV?$ostreambuf_iterator@GU?$char_traits@G@std@@@std@@@std@@2V0locale@2@A 0000000180036ff8     libcpmt:wlocale.obj
 0003:00002000       ?id@?$collate@D@std@@2V0locale@2@A 0000000180037000     libcpmt:xlocale.obj
 0003:00002008       ?id@?$messages@D@std@@2V0locale@2@A 0000000180037008     libcpmt:xlocale.obj
 0003:00002010       ?id@?$money_get@DV?$istreambuf_iterator@DU?$char_traits@D@std@@@std@@@std@@2V0locale@2@A 0000000180037010     libcpmt:xlocale.obj
 0003:00002018       ?id@?$money_put@DV?$ostreambuf_iterator@DU?$char_traits@D@std@@@std@@@std@@2V0locale@2@A 0000000180037018     libcpmt:xlocale.obj
 0003:00002020       ?id@?$moneypunct@D$0A@@std@@2V0locale@2@A 0000000180037020     libcpmt:xlocale.obj
 0003:00002028       ?id@?$moneypunct@D$00@std@@2V0locale@2@A 0000000180037028     libcpmt:xlocale.obj
 0003:00002030       ?id@?$time_get@DV?$istreambuf_iterator@DU?$char_traits@D@std@@@std@@@std@@2V0locale@2@A 0000000180037030     libcpmt:xlocale.obj
 0003:00002038       ?id@?$time_put@DV?$ostreambuf_iterator@DU?$char_traits@D@std@@@std@@@std@@2V0locale@2@A 0000000180037038     libcpmt:xlocale.obj
 0003:00002040       _FZero                     0000000180037040     libcpmt:xfvalues.obj
 0003:00002048       _Zero                      0000000180037048     libcpmt:xvalues.obj
 0003:00002050       _LZero                     0000000180037050     libcpmt:xlvalues.obj
 0003:000020c8       ?g_OutOfMemoryExceptionCallback@@3P6APEAXXZEA 00000001800370c8     libvcruntime:frame.obj
 0003:000020d0       __pPurecall                00000001800370d0     libvcruntime:purevirt_data.obj
 0003:00002188       ?pArgList@UnDecorator@@0PEAVReplicator@@EA 0000000180037188     libvcruntime:undname.obj
 0003:00002190       ?pZNameList@UnDecorator@@0PEAVReplicator@@EA 0000000180037190     libvcruntime:undname.obj
 0003:00002198       ?pTemplateArgList@UnDecorator@@0PEAVReplicator@@EA 0000000180037198     libvcruntime:undname.obj
 0003:000021a0       ?gName@UnDecorator@@0PEBDEB 00000001800371a0     libvcruntime:undname.obj
 0003:000021a8       ?name@UnDecorator@@0PEBDEB 00000001800371a8     libvcruntime:undname.obj
 0003:000021b0       ?outputString@UnDecorator@@0PEADEA 00000001800371b0     libvcruntime:undname.obj
 0003:000021b8       ?maxStringLength@UnDecorator@@0HA 00000001800371b8     libvcruntime:undname.obj
 0003:000021bc       ?disableFlags@UnDecorator@@0KA 00000001800371bc     libvcruntime:undname.obj
 0003:000021c0       ?fExplicitTemplateParams@UnDecorator@@0_NA 00000001800371c0     libvcruntime:undname.obj
 0003:000021c1       ?fGetTemplateArgumentList@UnDecorator@@0_NA 00000001800371c1     libvcruntime:undname.obj
 0003:000021c8       ?m_pGetParameter@UnDecorator@@0P6APEADJ@ZEA 00000001800371c8     libvcruntime:undname.obj
 0003:00002200       __acrt_lconv_static_null   0000000180037200     libucrt:localeconv.obj
 0003:00002204       __acrt_lconv_static_W_null 0000000180037204     libucrt:localeconv.obj
 0003:00002228       _environ_table             0000000180037228     libucrt:environment_initialization.obj
 0003:00002230       _wenviron_table            0000000180037230     libucrt:environment_initialization.obj
 0003:00002238       __dcrt_initial_wide_environment 0000000180037238     libucrt:environment_initialization.obj
 0003:00002240       __dcrt_initial_narrow_environment 0000000180037240     libucrt:environment_initialization.obj
 0003:00002248       __acrt_atexit_table        0000000180037248     libucrt:onexit.obj
 0003:00002260       __acrt_at_quick_exit_table 0000000180037260     libucrt:onexit.obj
 0003:00002490       _nstream                   0000000180037490     libucrt:_file.obj
 0003:00002498       __piob                     0000000180037498     libucrt:_file.obj
 0003:000024a0       _cflush                    00000001800374a0     libucrt:_file.obj
 0003:000024a4       __acrt_locale_changed_data 00000001800374a4     libucrt:wsetlocale.obj
 0003:000024a8       __acrt_current_locale_data 00000001800374a8     libucrt:nlsdata.obj
 0003:000024d8       __acrt_stdout_buffer       00000001800374d8     libucrt:_sftbuf.obj
 0003:000024e0       __acrt_stderr_buffer       00000001800374e0     libucrt:_sftbuf.obj
 0003:000024f0       __pioinfo                  00000001800374f0     libucrt:ioinit.obj
 0003:000028f0       _nhandle                   00000001800378f0     libucrt:ioinit.obj
 0003:00002aac       __mbcodepage               0000000180037aac     libucrt:mbctype.obj
 0003:00002ab0       __ismbcodepage             0000000180037ab0     libucrt:mbctype.obj
 0003:00002ab8       __mbulinfo                 0000000180037ab8     libucrt:mbctype.obj
 0003:00002ac8       __mblocalename             0000000180037ac8     libucrt:mbctype.obj
 0003:00002ad8       __acrt_heap                0000000180037ad8     libucrt:heap_handle.obj
 0003:00002ae0       __argv                     0000000180037ae0     libucrt:argv_data.obj
 0003:00002ae8       __wargv                    0000000180037ae8     libucrt:argv_data.obj
 0003:00002af0       _acmdln                    0000000180037af0     libucrt:argv_data.obj
 0003:00002af8       _wcmdln                    0000000180037af8     libucrt:argv_data.obj
 0003:00002b10       ?_timezone@@3V?$dual_state_global@J@__crt_state_management@@A 0000000180037b10     libucrt:timeset.obj
 0003:00002b14       ?_daylight@@3V?$dual_state_global@H@__crt_state_management@@A 0000000180037b14     libucrt:timeset.obj
 0003:00002b18       ?_dstbias@@3V?$dual_state_global@J@__crt_state_management@@A 0000000180037b18     libucrt:timeset.obj
 0003:00002bf0       __fma3_is_available        0000000180037bf0     libucrt:fma3_available.obj
 0003:00002bf4       __use_fma3_lib             0000000180037bf4     libucrt:fma3_available.obj
 0003:00002bf8       ?DloadKernel32@@3PEAUHINSTANCE__@@EA 0000000180037bf8     DelayImp:delayhlp.obj
 0003:00002c00       ?DloadAcquireSRWLockExclusive@@3P6AXPEA_K@ZEA 0000000180037c00     DelayImp:delayhlp.obj
 0003:00002c08       ?DloadReleaseSRWLockExclusive@@3P6AXPEA_K@ZEA 0000000180037c08     DelayImp:delayhlp.obj
 0003:00002c10       ?DloadSrwLock@@3_KA        0000000180037c10     DelayImp:delayhlp.obj
 0003:00002c18       ?DloadSectionLockCount@@3KA 0000000180037c18     DelayImp:delayhlp.obj
 0003:00002c1c       ?DloadSectionOldProtection@@3KA 0000000180037c1c     DelayImp:delayhlp.obj
 0003:00002c20       ?DloadSectionCommitPermanent@@3KA 0000000180037c20     DelayImp:delayhlp.obj
 0003:00002c28       __pfnDliFailureHook2       0000000180037c28     DelayImp:delayhk1.obj
 0003:00002c30       ?_Psave@?$_Facetptr@V?$numpunct@D@std@@@std@@2PEBVfacet@locale@2@EB 0000000180037c30     jsmsc.obj
 0003:00002c38       ?_Psave@?$_Facetptr@V?$num_put@DV?$ostreambuf_iterator@DU?$char_traits@D@std@@@std@@@std@@@std@@2PEBVfacet@locale@2@EB 0000000180037c38     jsmsc.obj
 0003:00002c40       ?_Psave@?$_Facetptr@V?$ctype@D@std@@@std@@2PEBVfacet@locale@2@EB 0000000180037c40     jsmsc.obj
 0003:00002c48       ?id@?$num_put@DV?$ostreambuf_iterator@DU?$char_traits@D@std@@@std@@@std@@2V0locale@2@A 0000000180037c48     jsmsc.obj
 0003:00002c50       ?_OptionsStorage@?1??__local_stdio_printf_options@@9@4_KA 0000000180037c50     jsmsc.obj
 0003:00002c58       ?id@?$numpunct@D@std@@2V0locale@2@A 0000000180037c58     jsmsc.obj
 0003:00002c60       ?$TSS0@?1???$_Immortalize@V_Iostream_error_category@std@@@std@@YAAEAV_Iostream_error_category@1@XZ@4HA 0000000180037c60     jsmsc.obj
 0003:00002c68       ?_Static@?1???$_Immortalize@V_Iostream_error_category@std@@@std@@YAAEAV_Iostream_error_category@1@XZ@4U?$_Immortalizer@V_Iostream_error_category@std@@@1@A 0000000180037c68     jsmsc.obj
 0003:00002c78       __dyn_tls_init_callback    0000000180037c78     <common>
 0003:00002c80       __scrt_ucrt_dll_is_in_use  0000000180037c80     <common>
 0005:00000000       _tls_start                 000000018003b000     LIBCMT:tlssup.obj
 0005:00000004       _Init_thread_epoch         000000018003b004     LIBCMT:thread_safe_statics.obj
 0005:00000008       _tls_end                   000000018003b008     LIBCMT:tlssup.obj

 entry point at        0001:000063c8

 Static symbols

 0000:fffc1000       .debug$S                   0000000180000000     node:node.exe
 0000:fffc1000       .debug$S                   0000000180000000     kernel32:KERNEL32.dll
 0000:fffc1000       .debug$S                   0000000180000000     kernel32:KERNEL32.dll
 0000:fffc1000       .debug$S                   0000000180000000     kernel32:KERNEL32.dll
 0000:fffc1000       .debug$S                   0000000180000000     kernel32:KERNEL32.dll
 0000:fffc1000       .debug$S                   0000000180000000     kernel32:KERNEL32.dll
 0000:fffc1000       .debug$S                   0000000180000000     kernel32:KERNEL32.dll
 0000:fffc1000       .debug$S                   0000000180000000     kernel32:KERNEL32.dll
 0000:fffc1000       .debug$S                   0000000180000000     kernel32:KERNEL32.dll
 0000:fffc1000       .debug$S                   0000000180000000     kernel32:KERNEL32.dll
 0000:fffc1000       .debug$S                   0000000180000000     kernel32:KERNEL32.dll
 0000:fffc1000       .debug$S                   0000000180000000     kernel32:KERNEL32.dll
 0000:fffc1000       .debug$S                   0000000180000000     kernel32:KERNEL32.dll
 0000:fffc1000       .debug$S                   0000000180000000     kernel32:KERNEL32.dll
 0000:fffc1000       .debug$S                   0000000180000000     kernel32:KERNEL32.dll
 0000:fffc1000       .debug$S                   0000000180000000     kernel32:KERNEL32.dll
 0000:fffc1000       .debug$S                   0000000180000000     kernel32:KERNEL32.dll
 0000:fffc1000       .debug$S                   0000000180000000     kernel32:KERNEL32.dll
 0000:fffc1000       .debug$S                   0000000180000000     kernel32:KERNEL32.dll
 0000:fffc1000       .debug$S                   0000000180000000     node:node.exe
 0000:fffc1000       .debug$S                   0000000180000000     kernel32:KERNEL32.dll
 0000:fffc1000       .debug$S                   0000000180000000     kernel32:KERNEL32.dll
 0000:fffc1000       .debug$S                   0000000180000000     kernel32:KERNEL32.dll
 0000:fffc1000       .debug$S                   0000000180000000     kernel32:KERNEL32.dll
 0000:fffc1000       .debug$S                   0000000180000000     kernel32:KERNEL32.dll
 0000:fffc1000       .debug$S                   0000000180000000     kernel32:KERNEL32.dll
 0000:fffc1000       .debug$S                   0000000180000000     kernel32:KERNEL32.dll
 0000:fffc1000       .debug$S                   0000000180000000     kernel32:KERNEL32.dll
 0000:fffc1000       .debug$S                   0000000180000000     kernel32:KERNEL32.dll
 0000:fffc1000       .debug$S                   0000000180000000     kernel32:KERNEL32.dll
 0000:fffc1000       .debug$S                   0000000180000000     kernel32:KERNEL32.dll
 0000:fffc1000       .debug$S                   0000000180000000     kernel32:KERNEL32.dll
 0000:fffc1000       .debug$S                   0000000180000000     kernel32:KERNEL32.dll
 0000:fffc1000       .debug$S                   0000000180000000     kernel32:KERNEL32.dll
 0000:fffc1000       .debug$S                   0000000180000000     kernel32:KERNEL32.dll
 0000:fffc1000       .debug$S                   0000000180000000     kernel32:KERNEL32.dll
 0000:fffc1000       .debug$S                   0000000180000000     kernel32:KERNEL32.dll
 0000:fffc1000       .debug$S                   0000000180000000     kernel32:KERNEL32.dll
 0000:fffc1000       .debug$S                   0000000180000000     kernel32:KERNEL32.dll
 0000:fffc1000       .debug$S                   0000000180000000     kernel32:KERNEL32.dll
 0000:fffc1000       .debug$S                   0000000180000000     kernel32:KERNEL32.dll
 0000:fffc1000       .debug$S                   0000000180000000     kernel32:KERNEL32.dll
 0000:fffc1000       .debug$S                   0000000180000000     kernel32:KERNEL32.dll
 0000:fffc1000       .debug$S                   0000000180000000     kernel32:KERNEL32.dll
 0000:fffc1000       .debug$S                   0000000180000000     kernel32:KERNEL32.dll
 0000:fffc1000       .debug$S                   0000000180000000     kernel32:KERNEL32.dll
 0000:fffc1000       .debug$S                   0000000180000000     kernel32:KERNEL32.dll
 0000:fffc1000       .debug$S                   0000000180000000     kernel32:KERNEL32.dll
 0000:fffc1000       .debug$S                   0000000180000000     kernel32:KERNEL32.dll
 0000:fffc1000       .debug$S                   0000000180000000     kernel32:KERNEL32.dll
 0000:fffc1000       .debug$S                   0000000180000000     kernel32:KERNEL32.dll
 0000:fffc1000       .debug$S                   0000000180000000     kernel32:KERNEL32.dll
 0000:fffc1000       .debug$S                   0000000180000000     kernel32:KERNEL32.dll
 0000:fffc1000       .debug$S                   0000000180000000     kernel32:KERNEL32.dll
 0000:fffc1000       .debug$S                   0000000180000000     kernel32:KERNEL32.dll
 0000:fffc1000       .debug$S                   0000000180000000     kernel32:KERNEL32.dll
 0000:fffc1000       .debug$S                   0000000180000000     kernel32:KERNEL32.dll
 0000:fffc1000       .debug$S                   0000000180000000     node:node.exe
 0000:fffc1000       .debug$S                   0000000180000000     kernel32:KERNEL32.dll
 0000:fffc1000       .debug$S                   0000000180000000     node:node.exe
 0000:fffc1000       .debug$S                   0000000180000000     kernel32:KERNEL32.dll
 0000:fffc1000       .debug$S                   0000000180000000     addon.exp
 0000:fffc1000       .debug$S                   0000000180000000     node:node.exe
 0000:fffc1000       .debug$S                   0000000180000000     node:node.exe
 0000:fffc1000       .debug$S                   0000000180000000     kernel32:KERNEL32.dll
 0000:fffc1000       .debug$S                   0000000180000000     advapi32:ADVAPI32.dll
 0000:fffc1000       .debug$S                   0000000180000000     kernel32:KERNEL32.dll
 0000:fffc1000       .debug$S                   0000000180000000     kernel32:KERNEL32.dll
 0000:fffc1000       .debug$S                   0000000180000000     node:node.exe
 0000:fffc1000       .debug$S                   0000000180000000     kernel32:KERNEL32.dll
 0000:fffc1000       .debug$S                   0000000180000000     node:node.exe
 0000:fffc1000       .debug$S                   0000000180000000     kernel32:KERNEL32.dll
 0000:fffc1000       .debug$S                   0000000180000000     kernel32:KERNEL32.dll
 0000:fffc1000       .debug$S                   0000000180000000     node:node.exe
 0000:fffc1000       .debug$S                   0000000180000000     kernel32:KERNEL32.dll
 0000:fffc1000       .debug$S                   0000000180000000     node:node.exe
 0000:fffc1000       .debug$S                   0000000180000000     node:node.exe
 0000:fffc1000       .debug$S                   0000000180000000     node:node.exe
 0000:fffc1000       .debug$S                   0000000180000000     node:node.exe
 0000:fffc1000       .debug$S                   0000000180000000     node:node.exe
 0000:fffc1000       .debug$S                   0000000180000000     kernel32:KERNEL32.dll
 0000:fffc1000       .debug$S                   0000000180000000     kernel32:KERNEL32.dll
 0000:fffc1000       .debug$S                   0000000180000000     kernel32:KERNEL32.dll
 0000:fffc1000       .debug$S                   0000000180000000     node:node.exe
 0000:fffc1000       .debug$S                   0000000180000000     opencv_core2411:opencv_core2411.dll
 0000:fffc1000       .debug$S                   0000000180000000     opencv_core2411:opencv_core2411.dll
 0000:fffc1000       .debug$S                   0000000180000000     opencv_core2411:opencv_core2411.dll
 0000:fffc1000       .debug$S                   0000000180000000     kernel32:KERNEL32.dll
 0000:fffc1000       .debug$S                   0000000180000000     opencv_core2411:opencv_core2411.dll
 0000:fffc1000       .debug$S                   0000000180000000     opencv_core2411:opencv_core2411.dll
 0000:fffc1000       .debug$S                   0000000180000000     kernel32:KERNEL32.dll
 0000:fffc1000       .debug$S                   0000000180000000     kernel32:KERNEL32.dll
 0000:fffc1000       .debug$S                   0000000180000000     opencv_core2411:opencv_core2411.dll
 0000:fffc1000       .debug$S                   0000000180000000     opencv_core2411:opencv_core2411.dll
 0000:fffc1000       .debug$S                   0000000180000000     kernel32:KERNEL32.dll
 0000:fffc1000       .debug$S                   0000000180000000     kernel32:KERNEL32.dll
 0000:fffc1000       .debug$S                   0000000180000000     kernel32:KERNEL32.dll
 0000:fffc1000       .debug$S                   0000000180000000     kernel32:KERNEL32.dll
 0000:fffc1000       .debug$S                   0000000180000000     kernel32:KERNEL32.dll
 0000:fffc1000       .debug$S                   0000000180000000     kernel32:KERNEL32.dll
 0000:fffc1000       .debug$S                   0000000180000000     kernel32:KERNEL32.dll
 0000:fffc1000       .debug$S                   0000000180000000     kernel32:KERNEL32.dll
 0000:fffc1000       .debug$S                   0000000180000000     kernel32:KERNEL32.dll
 0000:fffc1000       .debug$S                   0000000180000000     kernel32:KERNEL32.dll
 0000:fffc1000       .debug$S                   0000000180000000     kernel32:KERNEL32.dll
 0000:fffc1000       .debug$S                   0000000180000000     kernel32:KERNEL32.dll
 0000:fffc1000       .debug$S                   0000000180000000     opencv_imgproc2411:opencv_imgproc2411.dll
 0000:fffc1000       .debug$S                   0000000180000000     kernel32:KERNEL32.dll
 0000:fffc1000       .debug$S                   0000000180000000     kernel32:KERNEL32.dll
 0000:fffc1000       .debug$S                   0000000180000000     opencv_core2411:opencv_core2411.dll
 0000:fffc1000       .debug$S                   0000000180000000     kernel32:KERNEL32.dll
 0000:fffc1000       .debug$S                   0000000180000000     kernel32:KERNEL32.dll
 0000:fffc1000       .debug$S                   0000000180000000     kernel32:KERNEL32.dll
 0000:fffc1000       .debug$S                   0000000180000000     kernel32:KERNEL32.dll
 0000:fffc1000       .debug$S                   0000000180000000     kernel32:KERNEL32.dll
 0000:fffc1000       .debug$S                   0000000180000000     opencv_highgui2411:opencv_highgui2411.dll
 0000:fffc1000       .debug$S                   0000000180000000     kernel32:KERNEL32.dll
 0000:fffc1000       .debug$S                   0000000180000000     kernel32:KERNEL32.dll
 0000:fffc1000       .debug$S                   0000000180000000     kernel32:KERNEL32.dll
 0000:fffc1000       .debug$S                   0000000180000000     kernel32:KERNEL32.dll
 0000:fffc1000       .debug$S                   0000000180000000     kernel32:KERNEL32.dll
 0000:fffc1000       .debug$S                   0000000180000000     kernel32:KERNEL32.dll
 0000:fffc1000       .debug$S                   0000000180000000     opencv_core2411:opencv_core2411.dll
 0000:fffc1000       .debug$S                   0000000180000000     kernel32:KERNEL32.dll
 0001:000001e0       ??__Einitlocks@std@@YAXXZ  00000001800011e0 f   libcpmt:xlock.obj
 0001:00000200       ??__Ecout@std@@YAXXZ       0000000180001200 f   libcpmt:cout.obj
 0001:00000230       ??__Efout@std@@YAXXZ       0000000180001230 f   libcpmt:cout.obj
 0001:00000280       ??__Einit_cout@std@@YAXXZ  0000000180001280 f   libcpmt:cout.obj
 0001:0000028c       ??__Einitlocks@@YAXXZ      000000018000128c f   libcpmt:cout.obj
 0001:000002ac       ??__E_Fac_tidy_reg@std@@YAXXZ 00000001800012ac f   libcpmt:locale0.obj
 0001:000002b8       ??__Eclassic_locale@std@@YAXXZ 00000001800012b8 f   libcpmt:locale0.obj
 0001:000002c4       ??__Einit_atexit@@YAXXZ    00000001800012c4 f   libcpmt:iosptrs.obj
 0001:000002d0       ??__Einitlocks@std@@YAXXZ  00000001800012d0 f   libcpmt:iosptrs.obj
 0001:000002f0       load_exe_hook              00000001800012f0 f   win_delay_load_hook.obj
 0001:00001ce0       _register_addon            0000000180002ce0 f   jsmsc.obj
 0001:00005920       $$000000                   0000000180006920     LIBCMT:_amdsecgs_.obj
 0001:00005954       ?__scrt_initialize_thread_safe_statics@@YAHXZ 0000000180006954 f   LIBCMT:thread_safe_statics.obj
 0001:00005a74       ?__scrt_uninitialize_thread_safe_statics@@YAXXZ 0000000180006a74 f   LIBCMT:thread_safe_statics.obj
 0001:0000606c       ?dllmain_crt_dispatch@@YAHQEAUHINSTANCE__@@KQEAX@Z 000000018000706c f   LIBCMT:dll_dllmain.obj
 0001:000060bc       ?dllmain_crt_process_attach@@YAHQEAUHINSTANCE__@@QEAX@Z 00000001800070bc f   LIBCMT:dll_dllmain.obj
 0001:000061e8       ?dllmain_crt_process_detach@@YAH_N@Z 00000001800071e8 f   LIBCMT:dll_dllmain.obj
 0001:0000626c       ?dllmain_dispatch@@YAHQEAUHINSTANCE__@@KQEAX@Z 000000018000726c f   LIBCMT:dll_dllmain.obj
 0001:00006374       ?dllmain_raw@@YAHQEAUHINSTANCE__@@KQEAX@Z 0000000180007374 f   LIBCMT:dll_dllmain.obj
 0001:000065c0       capture_current_context    00000001800075c0 f   LIBCMT:gs_report.obj
 0001:00006630       capture_previous_context   0000000180007630 f   LIBCMT:gs_report.obj
 0001:00007fb4       no_op_initialize           0000000180008fb4 f i libucrt:wsetlocale.obj
 0001:00008938       tidy_global                0000000180009938 f   libcpmt:locale0.obj
 0001:00009384       ?initialize_pointers@@YAHXZ 000000018000a384 f   libcpmt:winapisupp.obj
 0001:00009a90       $$000000                   000000018000aa90     libvcruntime:memcpy.obj
 0001:00009b37       MoveSmall                  000000018000ab37     libvcruntime:memcpy.obj
 0001:00009f14       ?try_get_function@@YAPEAXW4function_id@?A0x61ce2399@@QEBDQEBW4module_id@2@2@Z 000000018000af14 f   libvcruntime:winapi_downlevel.obj
 0001:0000a7b0       _TlgDefineProvider_annotation__Tlg_Microsoft_CRTProviderProv 000000018000b7b0 f   libvcruntime:telemetry.obj
 0001:0000aa20       $$000000                   000000018000ba20     libvcruntime:memset.obj
 0001:0000ab0c       MsetTab                    000000018000bb0c     libvcruntime:memset.obj
 0001:0000ae9c       ?CatchIt@@YAXPEAUEHExceptionRecord@@PEA_KPEAU_CONTEXT@@PEAU_xDISPATCHER_CONTEXT@@PEBU_s_FuncInfo@@PEBU_s_HandlerType@@PEBU_s_CatchableType@@PEBU_s_TryBlockMapEntry@@H1EE@Z 000000018000be9c f   libvcruntime:frame.obj
 0001:0000af60       ?ExFilterRethrow@@YAHPEAU_EXCEPTION_POINTERS@@PEAUEHExceptionRecord@@PEAH@Z 000000018000bf60 f   libvcruntime:frame.obj
 0001:0000afe8       ?FindHandler@@YAXPEAUEHExceptionRecord@@PEA_KPEAU_CONTEXT@@PEAU_xDISPATCHER_CONTEXT@@PEBU_s_FuncInfo@@EH1@Z 000000018000bfe8 f   libvcruntime:frame.obj
 0001:0000b498       ?FindHandlerForForeignException@@YAXPEAUEHExceptionRecord@@PEA_KPEAU_CONTEXT@@PEAU_xDISPATCHER_CONTEXT@@PEBU_s_FuncInfo@@HH1@Z 000000018000c498 f   libvcruntime:frame.obj
 0001:0000b6f0       ?IsInExceptionSpec@@YAEPEAUEHExceptionRecord@@PEBU_s_ESTypeList@@@Z 000000018000c6f0 f   libvcruntime:frame.obj
 0001:0000c860       $$000000                   000000018000d860     libvcruntime:memcmp.obj
 0001:0000cb80       $$000000                   000000018000db80     libvcruntime:_jmpuwind_.obj
 0001:0000cd10       $$000000                   000000018000dd10     libvcruntime:handlers.obj
 0001:0000d2cc       ??$common_vsprintf@Vformat_validation_base@__crt_stdio_output@@D@@YAH_KQEAD0QEBDQEAU__crt_locale_pointers@@1@Z 000000018000e2cc f   libucrt:output.obj
 0001:0000eb84       ?atexit_exception_filter@@YAHK@Z 000000018000fb84 f   libucrt:exit.obj
 0001:0000eb90       ?common_exit@@YAXHW4_crt_exit_cleanup_mode@@W4_crt_exit_return_mode@@@Z 000000018000fb90 f   libucrt:exit.obj
 0001:0000ecfc       ?exit_or_terminate_process@@YAXI@Z 000000018000fcfc f   libucrt:exit.obj
 0001:0000ed48       ?try_cor_exit_process@@YAXI@Z 000000018000fd48 f   libucrt:exit.obj
 0001:0000ede0       ??$common_initialize_environment_nolock@D@@YAHXZ 000000018000fde0 f   libucrt:environment_initialization.obj
 0001:0000ee4c       ??$create_environment@D@@YAQEAPEADQEAD@Z 000000018000fe4c f   libucrt:environment_initialization.obj
 0001:0000ef48       ??$free_environment@D@@YAXQEAPEAD@Z 000000018000ff48 f   libucrt:environment_initialization.obj
 0001:0000ef48       ??$free_environment@_W@@YAXQEAPEA_W@Z 000000018000ff48 f   libucrt:environment_initialization.obj
 0001:0000ef8c       ??$uninitialize_environment_internal@D@@YAXAEAPEAPEAD@Z 000000018000ff8c f   libucrt:environment_initialization.obj
 0001:0000efa8       ??$uninitialize_environment_internal@_W@@YAXAEAPEAPEA_W@Z 000000018000ffa8 f   libucrt:environment_initialization.obj
 0001:0000f1e0       ??R<lambda_4e60a939b0d047cfe11ddc22648dfba9>@@QEBAHXZ 00000001800101e0 f   libucrt:onexit.obj
 0001:0000f490       initialize_global_variables 0000000180010490 f   libucrt:initialization.obj
 0001:0000f4a4       initialize_c               00000001800104a4 f   libucrt:initialization.obj
 0001:0000f4c8       initialize_environment     00000001800104c8 f   libucrt:initialization.obj
 0001:0000f4c8       report_memory_leaks        00000001800104c8 f   libucrt:initialization.obj
 0001:0000f4c8       uninitialize_c             00000001800104c8 f   libucrt:initialization.obj
 0001:0000f4c8       uninitialize_global_state_isolation 00000001800104c8 f   libucrt:initialization.obj
 0001:0000f4c8       initialize_global_state_isolation 00000001800104c8 f   libucrt:initialization.obj
 0001:0000f4cc       uninitialize_environment   00000001800104cc f   libucrt:initialization.obj
 0001:0000f4dc       initialize_pointers        00000001800104dc f   libucrt:initialization.obj
 0001:0000f530       uninitialize_vcruntime     0000000180010530 f   libucrt:initialization.obj
 0001:0000f538       uninitialize_allocated_memory 0000000180010538 f   libucrt:initialization.obj
 0001:0000fc70       common_flush_all           0000000180010c70 f   libucrt:fflush.obj
 0001:00010084       ?common_fseek@@YAHV__crt_stdio_stream@@_JH@Z 0000000180011084 f   libucrt:fseek.obj
 0001:000100f0       ?common_fseek_binary_mode_read_only_fast_track_nolock@@YA_NV__crt_stdio_stream@@_JH@Z 00000001800110f0 f   libucrt:fseek.obj
 0001:00010200       ?common_fseek_nolock@@YAHV__crt_stdio_stream@@_JH@Z 0000000180011200 f   libucrt:fseek.obj
 0001:00010340       ??R<lambda_532e024f4337e6fc7ad266c2bef9f4ed>@@QEBA_KXZ 0000000180011340 f   libucrt:fwrite.obj
 0001:00010604       ??R<lambda_b721fa326cdb32351d23dfa67958c160>@@QEBAHXZ 0000000180011604 f   libucrt:setvbuf.obj
 0001:00010904       call_wsetlocale            0000000180011904 f   libucrt:setlocale.obj
 0001:000114a8       ?x_ismbbtype_l@@YAHPEAU__crt_locale_pointers@@IHH@Z 00000001800124a8 f   libucrt:ismbbyte.obj
 0001:00011670       ?internal_isupper_l@@YA_NHQEAU__crt_locale_pointers@@@Z 0000000180012670 f   libucrt:tolower_toupper.obj
 0001:000127a8       ?construct_ptd_array@@YAXQEAU__acrt_ptd@@@Z 00000001800137a8 f   libucrt:per_thread_data.obj
 0001:00012878       ?destroy_fls@@YAXPEAX@Z    0000000180013878 f   libucrt:per_thread_data.obj
 0001:00012898       ?destroy_ptd_array@@YAXQEAU__acrt_ptd@@@Z 0000000180013898 f   libucrt:per_thread_data.obj
 0001:00012990       ?replace_current_thread_locale_nolock@@YAXQEAU__acrt_ptd@@QEAU__crt_locale_data@@@Z 0000000180013990 f   libucrt:per_thread_data.obj
 0001:00012da0       ??R<lambda_2af78c5f5901b1372d98f9ab3177dfa6>@@QEBAXXZ 0000000180013da0 f   libucrt:wsetlocale.obj
 0001:00013164       _copytlocinfo_nolock       0000000180014164 f   libucrt:wsetlocale.obj
 0001:00013724       _wsetlocale_get_all        0000000180014724 f   libucrt:wsetlocale.obj
 0001:0001390c       _wsetlocale_nolock         000000018001490c f   libucrt:wsetlocale.obj
 0001:00013b94       _wsetlocale_set_cat        0000000180014b94 f   libucrt:wsetlocale.obj
 0001:0001459c       ?fp_format_a@@YAHQEBNPEAD_KQEAD2H_NIQEAU__crt_locale_pointers@@@Z 000000018001559c f   libucrt:cvt.obj
 0001:000148fc       ?fp_format_e@@YAHQEBNQEAD_K12H_NIQEAU__crt_locale_pointers@@@Z 00000001800158fc f   libucrt:cvt.obj
 0001:000149cc       ?fp_format_e_internal@@YAHQEAD_KH_NIQEAU_strflt@@2QEAU__crt_locale_pointers@@@Z 00000001800159cc f   libucrt:cvt.obj
 0001:00014ba8       ?fp_format_f_internal@@YAHQEAD_KHQEAU_strflt@@_NQEAU__crt_locale_pointers@@@Z 0000000180015ba8 f   libucrt:cvt.obj
 0001:00014cf0       ?fp_format_g@@YAHQEBNQEAD_K12H_NIQEAU__crt_locale_pointers@@@Z 0000000180015cf0 f   libucrt:cvt.obj
 0001:00014e28       ?fp_format_nan_or_infinity@@YAHW4__acrt_fp_class@@_NPEAD_K1@Z 0000000180015e28 f   libucrt:cvt.obj
 0001:000152fc       ?initialize_inherited_file_handles_nolock@@YAXXZ 00000001800162fc f   libucrt:ioinit.obj
 0001:000153e8       ?initialize_stdio_handles_nolock@@YAXXZ 00000001800163e8 f   libucrt:ioinit.obj
 0001:000160dc       ?<helper_func_cdecl>@<lambda_e2bb8337c48846e80c921ea5ddadc92d>@@CAHPEA_W@Z 00000001800170dc f   libucrt:winapi_thunks.obj
 0001:000161b8       ?try_get_function@@YAPEAXW4function_id@?A0x63058377@@QEBDQEBW4module_id@2@2@Z 00000001800171b8 f   libucrt:winapi_thunks.obj
 0001:00016aac       ??R<lambda_ad1ced32f4ac17aa236e5ef05d6b3b7c>@@QEBAXXZ 0000000180017aac f   libucrt:mbctype.obj
 0001:00016cc4       ?getSystemCP@@YAHH@Z       0000000180017cc4 f   libucrt:mbctype.obj
 0001:00016d44       ?setSBCS@@YAXPEAU__crt_multibyte_data@@@Z 0000000180017d44 f   libucrt:mbctype.obj
 0001:00016dd4       ?setSBUpLow@@YAXPEAU__crt_multibyte_data@@@Z 0000000180017dd4 f   libucrt:mbctype.obj
 0001:00016fb8       ?setmbcp_internal@@YAHH_N@Z 0000000180017fb8 f   libucrt:mbctype.obj
 0001:00017c74       ?write_double_translated_ansi_nolock@@YA?AUwrite_result@?A0x9c548279@@HQEBDI@Z 0000000180018c74 f   libucrt:write.obj
 0001:00017e7c       ?write_text_ansi_nolock@@YA?AUwrite_result@?A0x9c548279@@HQEBDI@Z 0000000180018e7c f   libucrt:write.obj
 0001:00017f84       ?write_text_utf16le_nolock@@YA?AUwrite_result@?A0x9c548279@@HQEBDI@Z 0000000180018f84 f   libucrt:write.obj
 0001:000180a0       ?write_text_utf8_nolock@@YA?AUwrite_result@?A0x9c548279@@HQEBDI@Z 00000001800190a0 f   libucrt:write.obj
 0001:000185e4       ??$common_refill_and_read_nolock@D@@YAHV__crt_stdio_stream@@@Z 00000001800195e4 f   libucrt:_filbuf.obj
 0001:00018794       ??$common_ftell@_J@@YA_JV__crt_stdio_stream@@@Z 0000000180019794 f   libucrt:ftell.obj
 0001:000187e8       ??$common_ftell_nolock@_J@@YA_JV__crt_stdio_stream@@@Z 00000001800197e8 f   libucrt:ftell.obj
 0001:00018960       ?common_ftell_read_mode_nolock@@YA_JV__crt_stdio_stream@@_J1@Z 0000000180019960 f   libucrt:ftell.obj
 0001:00018ad8       ?common_ftell_translated_utf8_nolock@@YA_JV__crt_stdio_stream@@_J@Z 0000000180019ad8 f   libucrt:ftell.obj
 0001:00018c60       ??$write_buffer_nolock@D@@YA_NDV__crt_stdio_stream@@@Z 0000000180019c60 f   libucrt:_flsbuf.obj
 0001:00018e4c       ??$common_lseek@_J@@YA_JH_JH@Z 0000000180019e4c f   libucrt:lseek.obj
 0001:00018f3c       ??$common_lseek_nolock@_J@@YA_JH_JH@Z 0000000180019f3c f   libucrt:lseek.obj
 0001:0001904c       ?_mbstowcs_l_helper@@YA_KPEA_WPEBD_KPEAU__crt_locale_pointers@@@Z 000000018001a04c f   libucrt:mbstowcs.obj
 0001:00019378       ?_wcstombs_l_helper@@YA_KPEADPEB_W_KPEAU__crt_locale_pointers@@@Z 000000018001a378 f   libucrt:wcstombs.obj
 0001:000198b0       ?InternalGetLocaleInfoA@@YAHQEAU__crt_locale_pointers@@QEB_WKQEADH@Z 000000018001a8b0 f   libucrt:getlocaleinfoa.obj
 0001:00019dcc       ?__acrt_LCMapStringA_stat@@YAHPEAU__crt_locale_pointers@@PEB_WKPEBDHPEADHHH@Z 000000018001adcc f   libucrt:lcmapstringa.obj
 0001:0001a3a8       _call_matherr              000000018001b3a8 f   libucrt:libm_error.obj
 0001:0001a410       _exception_enabled         000000018001b410 f   libucrt:libm_error.obj
 0001:0001b41c       ?free_crt_array_internal@@YAXQEAPEBX_K@Z 000000018001c41c f   libucrt:inittime.obj
 0001:0001b474       ?initialize_lc_time@@YA_NQEAU__crt_lc_time_data@@QEAU__crt_locale_data@@@Z 000000018001c474 f   libucrt:inittime.obj
 0001:0001bb64       GetLocaleNameFromDefault   000000018001cb64 f   libucrt:get_qualified_locale.obj
 0001:0001bc0c       GetLocaleNameFromLangCountry 000000018001cc0c f   libucrt:get_qualified_locale.obj
 0001:0001bcdc       GetLocaleNameFromLanguage  000000018001ccdc f   libucrt:get_qualified_locale.obj
 0001:0001bd78       LangCountryEnumProcEx      000000018001cd78 f   libucrt:get_qualified_locale.obj
 0001:0001c12c       LanguageEnumProcEx         000000018001d12c f   libucrt:get_qualified_locale.obj
 0001:0001c218       ProcessCodePage            000000018001d218 f   libucrt:get_qualified_locale.obj
 0001:0001c2cc       TestDefaultCountry         000000018001d2cc f   libucrt:get_qualified_locale.obj
 0001:0001c334       TranslateName              000000018001d334 f   libucrt:get_qualified_locale.obj
 0001:0001c5f0       CountryEnumProc            000000018001d5f0 f   libucrt:getqloc_downlevel.obj
 0001:0001c6dc       GetLcidFromLangCountry     000000018001d6dc f   libucrt:getqloc_downlevel.obj
 0001:0001c7ac       GetLcidFromLanguage        000000018001d7ac f   libucrt:getqloc_downlevel.obj
 0001:0001c844       LangCountryEnumProc        000000018001d844 f   libucrt:getqloc_downlevel.obj
 0001:0001ca88       LanguageEnumProc           000000018001da88 f   libucrt:getqloc_downlevel.obj
 0001:0001cb84       LcidFromHexString          000000018001db84 f   libucrt:getqloc_downlevel.obj
 0001:0001cbd4       ProcessCodePage            000000018001dbd4 f   libucrt:getqloc_downlevel.obj
 0001:0001cc84       TestDefaultLanguage        000000018001dc84 f   libucrt:getqloc_downlevel.obj
 0001:0001cd30       TranslateName              000000018001dd30 f   libucrt:getqloc_downlevel.obj
 0001:0001e94c       memcpy_s                   000000018001f94c f   libucrt:cfout.obj
 0001:0001ed50       $$000000                   000000018001fd50     libucrt:fpsr.obj
 0001:0001ee38       ?GetTableIndexFromLocaleName@@YAHPEB_W@Z 000000018001fe38 f   libucrt:lcidtoname_downlevel.obj
 0001:0001f018       ?initialize_multibyte@@YAHXZ 0000000180020018 f   libucrt:multibyte_initializer.obj
 0001:0001f0c8       ??$translate_text_mode_nolock@_W@@YAHHQEA_W_K@Z 00000001800200c8 f   libucrt:read.obj
 0001:0001f2f8       ?translate_ansi_or_utf8_nolock@@YAHHQEAD_KQEA_W1@Z 00000001800202f8 f   libucrt:read.obj
 0001:0001fd10       ??$common_xtox@K_W@@YAHKQEA_W_KI_N@Z 0000000180020d10 f   libucrt:xtoa.obj
 0001:0001fdbc       ??$common_xtox_s@K_W@@YAHKQEA_W_KI_N@Z 0000000180020dbc f   libucrt:xtoa.obj
 0001:000201d0       $$000000                   00000001800211d0     libucrt:log10.obj
 0001:0002082c       common_control87           000000018002182c f   libucrt:ieee.obj
 0001:00020c40       _log_special_common        0000000180021c40 f   libucrt:log_special.obj
 0001:000214c0       $$000000                   00000001800224c0     LIBCMT:_chkstk_.obj
 0001:000217d0       $$000000                   00000001800227d0     LIBCMT:_guard_dispatch_.obj
 0001:000217f0       __scrt_is_nonwritable_in_current_image$filt$0 00000001800227f0 f   LIBCMT:utility.obj
 0001:00021808       ?fin$0@?0??dllmain_crt_process_attach@@YAHQEAUHINSTANCE__@@QEAX@Z@4HA 0000000180022808 f   LIBCMT:dll_dllmain.obj
 0001:0002181f       ?fin$0@?0??dllmain_crt_process_detach@@YAH_N@Z@4HA 000000018002281f f   LIBCMT:dll_dllmain.obj
 0001:0002183b       ?filt$0@?0??dllmain_dispatch@@YAHQEAUHINSTANCE__@@KQEAX@Z@4HA 000000018002283b f   LIBCMT:dll_dllmain.obj
 0001:00021871       ?dtor$0@?0???$use_facet@V?$codecvt@DDU_Mbstatet@@@std@@@std@@YAAEBV?$codecvt@DDU_Mbstatet@@@0@AEBVlocale@0@@Z@4HA 0000000180022871 f   libcpmt:cout.obj
 0001:0002187d       ?dtor$0@?0???0?$basic_ostream@DU?$char_traits@D@std@@@std@@QEAA@PEAV?$basic_streambuf@DU?$char_traits@D@std@@@1@_N@Z@4HA 000000018002287d f   libcpmt:cout.obj
 0001:000218a7       ?dtor$0@?0???_G?$basic_ios@DU?$char_traits@D@std@@@std@@UEAAPEAXI@Z@4HA 00000001800228a7 f   libcpmt:cout.obj
 0001:000218ac       ?dtor$1@?0???_G?$basic_ios@DU?$char_traits@D@std@@@std@@UEAAPEAXI@Z@4HA 00000001800228ac f   libcpmt:cout.obj
 0001:000218b1       ?dtor$0@?0???__Fcout@std@@YAXXZ@4HA 00000001800228b1 f   libcpmt:cout.obj
 0001:000218b1       ?dtor$0@?0???_G?$basic_ostream@DU?$char_traits@D@std@@@std@@UEAAPEAXI@Z@4HA 00000001800228b1 f   libcpmt:cout.obj
 0001:000218b6       ?dtor$2@?0???__Fcout@std@@YAXXZ@4HA 00000001800228b6 f   libcpmt:cout.obj
 0001:000218b6       ?dtor$2@?0???_G?$basic_ostream@DU?$char_traits@D@std@@@std@@UEAAPEAXI@Z@4HA 00000001800228b6 f   libcpmt:cout.obj
 0001:000218bb       ?dtor$3@?0???_G?$basic_ostream@DU?$char_traits@D@std@@@std@@UEAAPEAXI@Z@4HA 00000001800228bb f   libcpmt:cout.obj
 0001:000218bb       ?dtor$3@?0???__Fcout@std@@YAXXZ@4HA 00000001800228bb f   libcpmt:cout.obj
 0001:000218c0       ?dtor$0@?0???_G_Locimp@locale@std@@MEAAPEAXI@Z@4HA 00000001800228c0 f   libcpmt:locale0.obj
 0001:000218c0       ?dtor$0@?0???__Fclassic_locale@std@@YAXXZ@4HA 00000001800228c0 f   libcpmt:locale0.obj
 0001:000218c0       ?dtor$0@?0???_Glocale@std@@QEAAPEAXI@Z@4HA 00000001800228c0 f   libcpmt:cout.obj
 0001:000218c0       ?dtor$0@?0???_Gios_base@std@@UEAAPEAXI@Z@4HA 00000001800228c0 f   libcpmt:cout.obj
 0001:000218c0       ?dtor$0@?0???0?$basic_streambuf@DU?$char_traits@D@std@@@std@@IEAA@XZ@4HA 00000001800228c0 f   libcpmt:cout.obj
 0001:000218c0       ?dtor$0@?0???1?$basic_ios@DU?$char_traits@D@std@@@std@@UEAA@XZ@4HA 00000001800228c0 f   libcpmt:cout.obj
 0001:000218c0       ?dtor$0@?0??_Init@ios_base@std@@IEAAXXZ@4HA 00000001800228c0 f   libcpmt:cout.obj
 0001:000218c0       ?dtor$0@?0???_G_Fac_node@std@@QEAAPEAXI@Z@4HA 00000001800228c0 f   libcpmt:locale0.obj
 0001:000218c0       ?dtor$0@?0???__Finit_atexit@@YAXXZ@4HA 00000001800228c0 f   libcpmt:iosptrs.obj
 0001:000218c5       ?dtor$0@?0??_Endwrite@?$basic_filebuf@DU?$char_traits@D@std@@@std@@IEAA_NXZ@4HA 00000001800228c5 f   libcpmt:cout.obj
 0001:000218d1       ?dtor$0@?0??_Getcat@?$codecvt@DDU_Mbstatet@@@std@@SA_KPEAPEBVfacet@locale@2@PEBV42@@Z@4HA 00000001800228d1 f   libcpmt:cout.obj
 0001:000218f1       ?dtor$0@?0??uflow@?$basic_filebuf@DU?$char_traits@D@std@@@std@@MEAAHXZ@4HA 00000001800228f1 f   libcpmt:cout.obj
 0001:000218f1       ?dtor$0@?0??overflow@?$basic_filebuf@DU?$char_traits@D@std@@@std@@MEAAHH@Z@4HA 00000001800228f1 f   libcpmt:cout.obj
 0001:000218fd       ?dtor$0@?0??_Locimp_dtor@_Locimp@locale@std@@CAXPEAV123@@Z@4HA 00000001800228fd f   libcpmt:locale0.obj
 0001:000218fd       ?dtor$0@?0??_Init@locale@std@@CAPEAV_Locimp@12@_N@Z@4HA 00000001800228fd f   libcpmt:locale0.obj
 0001:00021909       __CxxCallCatchBlock$filt$0 0000000180022909 f   libvcruntime:frame.obj
 0001:0002192e       __CxxCallCatchBlock$fin$1  000000018002292e f   libvcruntime:frame.obj
 0001:000219a6       __DestructExceptionObject$filt$0 00000001800229a6 f   libvcruntime:frame.obj
 0001:000219be       __FrameUnwindToState$filt$0 00000001800229be f   libvcruntime:frame.obj
 0001:000219d4       __FrameUnwindToState$fin$1 00000001800229d4 f   libvcruntime:frame.obj
 0001:000219f7       _CallSETranslator$filt$0   00000001800229f7 f   libvcruntime:trnsctrl.obj
 0001:00021a43       _query_new_handler$fin$0   0000000180022a43 f   libucrt:new_handler.obj
 0001:00021a59       ?filt$0@?0??common_exit@@YAXHW4_crt_exit_cleanup_mode@@W4_crt_exit_return_mode@@@Z@4HA 0000000180022a59 f   libucrt:exit.obj
 0001:00021a74       ?fin$1@?0??common_exit@@YAXHW4_crt_exit_cleanup_mode@@W4_crt_exit_return_mode@@@Z@4HA 0000000180022a74 f   libucrt:exit.obj
 0001:00021a8d       ?fin$0@?0???$?RV<lambda_e24bbb7b643b32fcea6fa61b31d4c984>@@AEAV<lambda_275893d493268fdec8709772e3fcec0e>@@V<lambda_9d71df4d7cf3f480f8d633942495c3b0>@@@?$__crt_seh_guarded_call@H@@QEAAH$$QEAV<lambda_e24bbb7b643b32fcea6fa61b31d4c984>@@AEAV<lambda_275893d493268fdec8709772e3fcec0e>@@$$QEAV<lambda_9d71df4d7cf3f480f8d633942495c3b0>@@@Z@4HA 0000000180022a8d f   libucrt:onexit.obj
 0001:00021aaa       common_flush_all$fin$0     0000000180022aaa f   libucrt:fflush.obj
 0001:00021ac4       common_flush_all$fin$1     0000000180022ac4 f   libucrt:fflush.obj
 0001:00021add       fflush$fin$0               0000000180022add f   libucrt:fflush.obj
 0001:00021add       fclose$fin$0               0000000180022add f   libucrt:fclose.obj
 0001:00021af5       fgetc$fin$0                0000000180022af5 f   libucrt:fgetc.obj
 0001:00021b0f       fputc$fin$0                0000000180022b0f f   libucrt:fputc.obj
 0001:00021b29       ?fin$0@?0??common_fseek@@YAHV__crt_stdio_stream@@_JH@Z@4HA 0000000180022b29 f   libucrt:fseek.obj
 0001:00021b29       ?fin$0@?0???$common_ftell@_J@@YA_JV__crt_stdio_stream@@@Z@4HA 0000000180022b29 f   libucrt:ftell.obj
 0001:00021b43       ?fin$0@?0???$?RV<lambda_7a5ef57ff966f610505f1d28a3d40618>@@AEAV<lambda_b721fa326cdb32351d23dfa67958c160>@@V<lambda_5e0fb27672408a07956fe59e48ccb2aa>@@@?$__crt_seh_guarded_call@H@@QEAAH$$QEAV<lambda_7a5ef57ff966f610505f1d28a3d40618>@@AEAV<lambda_b721fa326cdb32351d23dfa67958c160>@@$$QEAV<lambda_5e0fb27672408a07956fe59e48ccb2aa>@@@Z@4HA 0000000180022b43 f   libucrt:setvbuf.obj
 0001:00021b43       ?fin$0@?0???$?RV<lambda_5d4c3fee44080f75d5d9762853974fe0>@@AEAV<lambda_532e024f4337e6fc7ad266c2bef9f4ed>@@V<lambda_c87bdc10097eb2402edb8ba9bdf0697b>@@@?$__crt_seh_guarded_call@_K@@QEAA_K$$QEAV<lambda_5d4c3fee44080f75d5d9762853974fe0>@@AEAV<lambda_532e024f4337e6fc7ad266c2bef9f4ed>@@$$QEAV<lambda_c87bdc10097eb2402edb8ba9bdf0697b>@@@Z@4HA 0000000180022b43 f   libucrt:fwrite.obj
 0001:00021b5e       ungetc$fin$0               0000000180022b5e f   libucrt:ungetc.obj
 0001:00021b76       setlocale$fin$0            0000000180022b76 f   libucrt:setlocale.obj
 0001:00021b91       ?fin$0@?0???$?RV<lambda_5df02c53a8f32f81fd64e5bbb78039f1>@@AEAV<lambda_2af78c5f5901b1372d98f9ab3177dfa6>@@AEAV<lambda_f51fe5fd7c79a33db34fc9310f277369>@@@?$__crt_seh_guarded_call@X@@QEAAX$$QEAV<lambda_5df02c53a8f32f81fd64e5bbb78039f1>@@AEAV<lambda_2af78c5f5901b1372d98f9ab3177dfa6>@@AEAV<lambda_f51fe5fd7c79a33db34fc9310f277369>@@@Z@4HA 0000000180022b91 f   libucrt:wsetlocale.obj
 0001:00021bb2       raise$fin$0                0000000180022bb2 f   libucrt:signal.obj
 0001:00021bd6       __acrt_initialize_lowio$fin$0 0000000180022bd6 f   libucrt:ioinit.obj
 0001:00021bd6       __acrt_lowio_ensure_fh_exists$fin$0 0000000180022bd6 f   libucrt:osfinfo.obj
 0001:00021bef       _ctrlfp$filt$0             0000000180022bef f   libucrt:fpctrl.obj
 0001:00021bef       common_control87$filt$0    0000000180022bef f   libucrt:ieee.obj
 0001:00021c1b       ?fin$0@?0???$?RV<lambda_99476a1ad63dd22509b5d3e65b0ffc95>@@AEAV<lambda_ad1ced32f4ac17aa236e5ef05d6b3b7c>@@V<lambda_f7424dd8d45958661754dc4f2697e9c3>@@@?$__crt_seh_guarded_call@X@@QEAAX$$QEAV<lambda_99476a1ad63dd22509b5d3e65b0ffc95>@@AEAV<lambda_ad1ced32f4ac17aa236e5ef05d6b3b7c>@@$$QEAV<lambda_f7424dd8d45958661754dc4f2697e9c3>@@@Z@4HA 0000000180022c1b f   libucrt:mbctype.obj
 0001:00021c1b       ?fin$0@?0???$?RV<lambda_b8c45f8f788dd370798f47cfe8ac3a86>@@AEAV<lambda_4e60a939b0d047cfe11ddc22648dfba9>@@V<lambda_332c3edc96d0294ec56c57d38c1cdfd5>@@@?$__crt_seh_guarded_call@H@@QEAAH$$QEAV<lambda_b8c45f8f788dd370798f47cfe8ac3a86>@@AEAV<lambda_4e60a939b0d047cfe11ddc22648dfba9>@@$$QEAV<lambda_332c3edc96d0294ec56c57d38c1cdfd5>@@@Z@4HA 0000000180022c1b f   libucrt:onexit.obj
 0001:00021c1b       ?fin$0@?0???$?RV<lambda_72d1df2b273a38828b1ce30cbf4cdab5>@@AEAV<lambda_876a65b173b8412d3a47c70a915b0cf4>@@V<lambda_41932305e351933ebe8f8be3ed8bb5dc>@@@?$__crt_seh_guarded_call@X@@QEAAX$$QEAV<lambda_72d1df2b273a38828b1ce30cbf4cdab5>@@AEAV<lambda_876a65b173b8412d3a47c70a915b0cf4>@@$$QEAV<lambda_41932305e351933ebe8f8be3ed8bb5dc>@@@Z@4HA 0000000180022c1b f   libucrt:per_thread_data.obj
 0001:00021c1b       ?fin$0@?0???$?RV<lambda_c36588078e9f5dfd39652860aa6b3aaf>@@AEAV<lambda_ec61778202f4f5fc7e7711acc23c3bca>@@V<lambda_dc9d2797ccde5d239b4a0efae8ebd7db>@@@?$__crt_seh_guarded_call@P6AXH@Z@@QEAAP6AXH@Z$$QEAV<lambda_c36588078e9f5dfd39652860aa6b3aaf>@@AEAV<lambda_ec61778202f4f5fc7e7711acc23c3bca>@@$$QEAV<lambda_dc9d2797ccde5d239b4a0efae8ebd7db>@@@Z@4HA 0000000180022c1b f   libucrt:signal.obj
 0001:00021c1b       ?fin$0@?0???$?RV<lambda_5e887d1dcbef67a5eb4283622ba103bf>@@AEAV<lambda_4466841279450cc726390878d4a41900>@@V<lambda_341c25c0346d94847f1f3c463c57e077>@@@?$__crt_seh_guarded_call@X@@QEAAX$$QEAV<lambda_5e887d1dcbef67a5eb4283622ba103bf>@@AEAV<lambda_4466841279450cc726390878d4a41900>@@$$QEAV<lambda_341c25c0346d94847f1f3c463c57e077>@@@Z@4HA 0000000180022c1b f   libucrt:per_thread_data.obj
 0001:00021c1b       ?fin$0@?0???$?RV<lambda_46352004c1216016012b18bd6f87e700>@@AEAV<lambda_3bd07e1a1191394380780325891bf33f>@@V<lambda_334532d3f185bcaa59b5be82d7d22bff>@@@?$__crt_seh_guarded_call@X@@QEAAX$$QEAV<lambda_46352004c1216016012b18bd6f87e700>@@AEAV<lambda_3bd07e1a1191394380780325891bf33f>@@$$QEAV<lambda_334532d3f185bcaa59b5be82d7d22bff>@@@Z@4HA 0000000180022c1b f   libucrt:per_thread_data.obj
 0001:00021c1b       ?fin$0@?0???$?RV<lambda_d67e8342c384adda8f857579ab50b2ae>@@AEAV<lambda_30712929f77e709619002f448b6a9510>@@V<lambda_4525336fd7e478d965fb7ca7a337cad8>@@@?$__crt_seh_guarded_call@X@@QEAAX$$QEAV<lambda_d67e8342c384adda8f857579ab50b2ae>@@AEAV<lambda_30712929f77e709619002f448b6a9510>@@$$QEAV<lambda_4525336fd7e478d965fb7ca7a337cad8>@@@Z@4HA 0000000180022c1b f   libucrt:wsetlocale.obj
 0001:00021c1b       ?fin$0@?0???$?RV<lambda_fb3a7dec4e47f37f22dae91bb15c9095>@@AEAV<lambda_698284760c8add0bfb0756c19673e34b>@@V<lambda_dfb8eca1e75fef3034a8fb18dd509707>@@@?$__crt_seh_guarded_call@X@@QEAAX$$QEAV<lambda_fb3a7dec4e47f37f22dae91bb15c9095>@@AEAV<lambda_698284760c8add0bfb0756c19673e34b>@@$$QEAV<lambda_dfb8eca1e75fef3034a8fb18dd509707>@@@Z@4HA 0000000180022c1b f   libucrt:per_thread_data.obj
 0001:00021c1b       ?fin$0@?0???$?RV<lambda_630b2aca97f6d20d5b5ea6529ea6b6af>@@AEAV<lambda_af91936f1d075d609f72d9d8cba980af>@@V<lambda_e82fa975f615b5c7c7b0e4d178fdae67>@@@?$__crt_seh_guarded_call@H@@QEAAH$$QEAV<lambda_630b2aca97f6d20d5b5ea6529ea6b6af>@@AEAV<lambda_af91936f1d075d609f72d9d8cba980af>@@$$QEAV<lambda_e82fa975f615b5c7c7b0e4d178fdae67>@@@Z@4HA 0000000180022c1b f   libucrt:winapi_thunks.obj
 0001:00021c35       __acrt_update_thread_multibyte_data$fin$0 0000000180022c35 f   libucrt:mbctype.obj
 0001:00021c4e       _fcloseall$fin$0           0000000180022c4e f   libucrt:closeall.obj
 0001:00021c67       ?fin$0@?0???$?RV<lambda_bfedae4ebbf01fab1bb6dcc6a9e276e0>@@AEAV<lambda_2fe9b910cf3cbf4a0ab98a02ba45b3ec>@@V<lambda_237c231691f317818eb88cc1d5d642d6>@@@?$__crt_seh_guarded_call@H@@QEAAH$$QEAV<lambda_bfedae4ebbf01fab1bb6dcc6a9e276e0>@@AEAV<lambda_2fe9b910cf3cbf4a0ab98a02ba45b3ec>@@$$QEAV<lambda_237c231691f317818eb88cc1d5d642d6>@@@Z@4HA 0000000180022c67 f   libucrt:close.obj
 0001:00021c67       ?fin$0@?0???$?RV<lambda_b521505b218e5242e90febf6bfebc422>@@AEAV<lambda_6978c1fb23f02e42e1d9e99668cc68aa>@@V<lambda_314360699dd331753a4119843814e9a7>@@@?$__crt_seh_guarded_call@H@@QEAAH$$QEAV<lambda_b521505b218e5242e90febf6bfebc422>@@AEAV<lambda_6978c1fb23f02e42e1d9e99668cc68aa>@@$$QEAV<lambda_314360699dd331753a4119843814e9a7>@@@Z@4HA 0000000180022c67 f   libucrt:commit.obj
 0001:00021c81       _write$fin$0               0000000180022c81 f   libucrt:write.obj
 0001:00021c81       ?fin$0@?0???$common_lseek@_J@@YA_JH_JH@Z@4HA 0000000180022c81 f   libucrt:lseek.obj
 0001:00021c81       _read$fin$0                0000000180022c81 f   libucrt:read.obj
 0001:00021c98       __acrt_uninitialize_locale$fin$0 0000000180022c98 f   libucrt:wsetlocale.obj
 0001:00021c98       __acrt_update_thread_locale_data$fin$0 0000000180022c98 f   libucrt:locale_refcounting.obj
 0001:00021cc0       _IsNonwritableInCurrentImage$filt$0 0000000180022cc0 f   LIBCMT:pesect.obj
 0001:00021ce4       ??__Finitlocks@std@@YAXXZ  0000000180022ce4 f   libcpmt:xlock.obj
 0001:00021cf0       ??__Fcout@std@@YAXXZ       0000000180022cf0 f   libcpmt:cout.obj
 0001:00021d50       ??__Ffout@std@@YAXXZ       0000000180022d50 f   libcpmt:cout.obj
 0001:00021d5c       ??__Finitlocks@@YAXXZ      0000000180022d5c f   libcpmt:cout.obj
 0001:00021d68       ??__F_Fac_tidy_reg@std@@YAXXZ 0000000180022d68 f   libcpmt:locale0.obj
 0001:00021d94       ??__Fclassic_locale@std@@YAXXZ 0000000180022d94 f   libcpmt:locale0.obj
 0001:00021df4       ??__Finit_atexit@@YAXXZ    0000000180022df4 f   libcpmt:iosptrs.obj
 0001:00021e48       ??__Finitlocks@std@@YAXXZ  0000000180022e48 f   libcpmt:iosptrs.obj
 0002:00000328       ?initlocks$initializer$@std@@3P6AXXZEA 0000000180023328     libcpmt:xlock.obj
 0002:00000330       ?initlocks$initializer$@@3P6AXXZEA 0000000180023330     libcpmt:cout.obj
 0002:00000338       ?fout$initializer$@std@@3P6AXXZEA 0000000180023338     libcpmt:cout.obj
 0002:00000340       ?cout$initializer$@std@@3P6AXXZEA 0000000180023340     libcpmt:cout.obj
 0002:00000348       ?init_cout$initializer$@std@@3P6AXXZEA 0000000180023348     libcpmt:cout.obj
 0002:00000350       ?initlocks$initializer$@std@@3P6AXXZEA 0000000180023350     libcpmt:iosptrs.obj
 0002:00000358       ?init_atexit$initializer$@@3P6AXXZEA 0000000180023358     libcpmt:iosptrs.obj
 0002:00000360       ?_Fac_tidy_reg$initializer$@std@@3P6AXXZEA 0000000180023360     libcpmt:locale0.obj
 0002:00000368       ?classic_locale$initializer$@std@@3P6AXXZEA 0000000180023368     libcpmt:locale0.obj
 0002:00000388       ?__scrt_initialize_tss_var@@3P6AHXZEA 0000000180023388     LIBCMT:thread_safe_statics.obj
 0002:00000390       ?pinit@@3P6AHXZEA          0000000180023390     libcpmt:winapisupp.obj
 0002:000004a8       GS_ExceptionPointers       00000001800234a8     LIBCMT:gs_report.obj
 0002:00000550       $cppxdata$??_Glocale@std@@QEAAPEAXI@Z 0000000180023550     libcpmt:cout.obj
 0002:00000578       $cppxdata$?_Init@ios_base@std@@IEAAXXZ 0000000180023578     libcpmt:cout.obj
 0002:000005a0       $cppxdata$??_Gios_base@std@@UEAAPEAXI@Z 00000001800235a0     libcpmt:cout.obj
 0002:000005c8       $cppxdata$??0?$basic_streambuf@DU?$char_traits@D@std@@@std@@IEAA@XZ 00000001800235c8     libcpmt:cout.obj
 0002:000005f0       $cppxdata$??1?$basic_filebuf@DU?$char_traits@D@std@@@std@@UEAA@XZ 00000001800235f0     libcpmt:cout.obj
 0002:00000618       $cppxdata$?overflow@?$basic_filebuf@DU?$char_traits@D@std@@@std@@MEAAHH@Z 0000000180023618     libcpmt:cout.obj
 0002:00000640       $cppxdata$?uflow@?$basic_filebuf@DU?$char_traits@D@std@@@std@@MEAAHXZ 0000000180023640     libcpmt:cout.obj
 0002:00000668       $cppxdata$?_Endwrite@?$basic_filebuf@DU?$char_traits@D@std@@@std@@IEAA_NXZ 0000000180023668     libcpmt:cout.obj
 0002:00000690       $cppxdata$??1?$basic_ios@DU?$char_traits@D@std@@@std@@UEAA@XZ 0000000180023690     libcpmt:cout.obj
 0002:000006b8       $cppxdata$??_G?$basic_ios@DU?$char_traits@D@std@@@std@@UEAAPEAXI@Z 00000001800236b8     libcpmt:cout.obj
 0002:000006e0       $cppxdata$??0?$basic_ostream@DU?$char_traits@D@std@@@std@@QEAA@PEAV?$basic_streambuf@DU?$char_traits@D@std@@@1@_N@Z 00000001800236e0     libcpmt:cout.obj
 0002:00000708       $cppxdata$??_G?$basic_ostream@DU?$char_traits@D@std@@@std@@UEAAPEAXI@Z 0000000180023708     libcpmt:cout.obj
 0002:00000730       $cppxdata$??__Fcout@std@@YAXXZ 0000000180023730     libcpmt:cout.obj
 0002:00000758       $cppxdata$??$use_facet@V?$codecvt@DDU_Mbstatet@@@std@@@std@@YAAEBV?$codecvt@DDU_Mbstatet@@@0@AEBVlocale@0@@Z 0000000180023758     libcpmt:cout.obj
 0002:00000780       $cppxdata$?_Getcat@?$codecvt@DDU_Mbstatet@@@std@@SA_KPEAPEBVfacet@locale@2@PEBV42@@Z 0000000180023780     libcpmt:cout.obj
 0002:00000a98       $cppxdata$??_G_Fac_node@std@@QEAAPEAXI@Z 0000000180023a98     libcpmt:locale0.obj
 0002:00000ac0       $cppxdata$?_Locimp_dtor@_Locimp@locale@std@@CAXPEAV123@@Z 0000000180023ac0     libcpmt:locale0.obj
 0002:00000ae8       $cppxdata$??_G_Locimp@locale@std@@MEAAPEAXI@Z 0000000180023ae8     libcpmt:locale0.obj
 0002:00000b10       $cppxdata$?_Init@locale@std@@CAPEAV_Locimp@12@_N@Z 0000000180023b10     libcpmt:locale0.obj
 0002:00000b38       $cppxdata$??__Fclassic_locale@std@@YAXXZ 0000000180023b38     libcpmt:locale0.obj
 0002:00000bd0       ?_Win_errtab@std@@3QBU_Win_errtab_t@1@B 0000000180023bd0     libcpmt:syserror.obj
 0002:00000e20       ?_Sys_errtab@std@@3QBU_Sys_errtab_t@1@B 0000000180023e20     libcpmt:syserror.obj
 0002:000019c8       $cppxdata$??__Finit_atexit@@YAXXZ 00000001800249c8     libcpmt:iosptrs.obj
 0002:00001e30       digits                     0000000180024e30     libcpmt:xstoul.obj
 0002:00001e58       ndigs                      0000000180024e58     libcpmt:xstoul.obj
 0002:00001e80       digits                     0000000180024e80     libcpmt:xstoull.obj
 0002:00001ea8       ndigs                      0000000180024ea8     libcpmt:xstoull.obj
 0002:00002670       ?LcidToLocaleNameTable@@3QBULcidToLocaleName@@B 0000000180025670     libcpmt:winapinls.obj
 0002:000034b0       ?LocaleNameToIndexTable@@3QBULocaleNameIndex@@B 00000001800264b0     libcpmt:winapinls.obj
 0002:00005210       ?digits@?1??_Stoxflt@@9@9  0000000180028210     libcpmt:xstoxflt.obj
 0002:00005228       ?vals@?1??_Stoxflt@@9@9    0000000180028228     libcpmt:xstoxflt.obj
 0002:00005248       tenth                      0000000180028248     libcpmt:xfdtento.obj
 0002:00005268       tenth                      0000000180028268     libcpmt:xdtento.obj
 0002:00005288       tenth                      0000000180028288     libcpmt:xldtento.obj
 0002:000052a8       ?mask@?3??_FDint@@9@9      00000001800282a8     libcpmt:xfdint.obj
 0002:000052c8       ?sub@?3??_FDint@@9@9       00000001800282c8     libcpmt:xfdint.obj
 0002:000052d8       ?mask@?3??_Dint@@9@9       00000001800282d8     libcpmt:xdint.obj
 0002:000052f8       ?sub@?3??_Dint@@9@9        00000001800282f8     libcpmt:xdint.obj
 0002:00005318       ?module_names@?A0x61ce2399@@3QBQEB_WB 0000000180028318     libvcruntime:winapi_downlevel.obj
 0002:000053e4       ?candidate_modules@?1??try_get_EventRegister@@YAP6AKPEBU_GUID@@P6AX0KE_K1PEAU_EVENT_FILTER_DESCRIPTOR@@PEAX@Z3PEA_K@ZXZ@4QBW4module_id@?A0x61ce2399@@B 00000001800283e4     libvcruntime:winapi_downlevel.obj
 0002:000053f8       ?candidate_modules@?1??try_get_EventSetInformation@@YAP6AK_KW4_EVENT_INFO_CLASS@@PEAXK@ZXZ@4QBW4module_id@?A0x61ce2399@@B 00000001800283f8     libvcruntime:winapi_downlevel.obj
 0002:00005414       ?candidate_modules@?1??try_get_EventUnregister@@YAP6AK_K@ZXZ@4QBW4module_id@?A0x61ce2399@@B 0000000180028414     libvcruntime:winapi_downlevel.obj
 0002:00005428       ?candidate_modules@?1??try_get_EventWriteTransfer@@YAP6AK_KPEBU_EVENT_DESCRIPTOR@@PEBU_GUID@@2KPEAU_EVENT_DATA_DESCRIPTOR@@@ZXZ@4QBW4module_id@?A0x61ce2399@@B 0000000180028428     libvcruntime:winapi_downlevel.obj
 0002:00005448       ?candidate_modules@?1??try_get_FlsAlloc@@YAP6AKP6AXPEAX@Z@ZXZ@4QBW4module_id@?A0x61ce2399@@B 0000000180028448     libvcruntime:winapi_downlevel.obj
 0002:00005450       ?candidate_modules@?1??try_get_FlsFree@@YAP6AHK@ZXZ@4QBW4module_id@?A0x61ce2399@@B 0000000180028450     libvcruntime:winapi_downlevel.obj
 0002:00005458       ?candidate_modules@?1??try_get_FlsGetValue@@YAP6APEAXK@ZXZ@4QBW4module_id@?A0x61ce2399@@B 0000000180028458     libvcruntime:winapi_downlevel.obj
 0002:00005460       ?candidate_modules@?1??try_get_FlsSetValue@@YAP6AHKPEAX@ZXZ@4QBW4module_id@?A0x61ce2399@@B 0000000180028460     libvcruntime:winapi_downlevel.obj
 0002:00005468       ?candidate_modules@?1??try_get_InitializeCriticalSectionEx@@YAP6AHPEAU_RTL_CRITICAL_SECTION@@KK@ZXZ@4QBW4module_id@?A0x61ce2399@@B 0000000180028468     libvcruntime:winapi_downlevel.obj
 0002:000054a0       ?ExceptionTemplate@?1??_CxxThrowException@@9@4UEHExceptionRecord@@B 00000001800284a0     libvcruntime:throw.obj
 0002:00005510       ?ExceptionTemplate@?1??_UnwindNestedFrames@@9@4U_EXCEPTION_RECORD@@B 0000000180028510     libvcruntime:trnsctrl.obj
 0002:00005a70       ?rttiTable@@3QBQEBDB       0000000180028a70     libvcruntime:undname.obj
 0002:00005aa0       ?tokenTable@@3QBQEBDB      0000000180028aa0     libvcruntime:undname.obj
 0002:00005b10       ?nameTable@@3QBQEBDB       0000000180028b10     libvcruntime:undname.obj
 0002:000060b0       __acrt_initializers        00000001800290b0     libucrt:initialization.obj
 0002:000061a0       errtable                   00000001800291a0     libucrt:errno.obj
 0002:00006c30       _first_127char             0000000180029c30     libucrt:wsetlocale.obj
 0002:000073b0       ?_names@?1??_get_fname@@9@9 000000018002a3b0     libucrt:fpexcept.obj
 0002:00007658       ?mask@?3??_d_int@@9@9      000000018002a658     libucrt:_test.obj
 0002:00007678       ?sub@?3??_d_int@@9@9       000000018002a678     libucrt:_test.obj
 0002:000076a0       module_names               000000018002a6a0     libucrt:winapi_thunks.obj
 0002:00007bd0       ?candidate_modules@?1??try_get_CompareStringEx@@YAP6AHPEB_WK0H0HPEAU_nlsversioninfo@@PEAX_J@ZXZ@4QBW4module_id@?A0x63058377@@B 000000018002abd0     libucrt:winapi_thunks.obj
 0002:00007bd8       ?candidate_modules@?1??try_get_EnumSystemLocalesEx@@YAP6AHP6AHPEA_WK_J@ZK1PEAX@ZXZ@4QBW4module_id@?A0x63058377@@B 000000018002abd8     libucrt:winapi_thunks.obj
 0002:00007bf8       ?candidate_modules@?1??try_get_FlsAlloc@@YAP6AKP6AXPEAX@Z@ZXZ@4QBW4module_id@?A0x63058377@@B 000000018002abf8     libucrt:winapi_thunks.obj
 0002:00007c00       ?candidate_modules@?1??try_get_FlsFree@@YAP6AHK@ZXZ@4QBW4module_id@?A0x63058377@@B 000000018002ac00     libucrt:winapi_thunks.obj
 0002:00007c08       ?candidate_modules@?1??try_get_FlsGetValue@@YAP6APEAXK@ZXZ@4QBW4module_id@?A0x63058377@@B 000000018002ac08     libucrt:winapi_thunks.obj
 0002:00007c10       ?candidate_modules@?1??try_get_FlsSetValue@@YAP6AHKPEAX@ZXZ@4QBW4module_id@?A0x63058377@@B 000000018002ac10     libucrt:winapi_thunks.obj
 0002:00007c18       ?candidate_modules@?1??try_get_GetCurrentPackageId@@YAP6AJPEAIPEAE@ZXZ@4QBW4module_id@?A0x63058377@@B 000000018002ac18     libucrt:winapi_thunks.obj
 0002:00007c20       ?candidate_modules@?1??try_get_GetLocaleInfoEx@@YAP6AHPEB_WKPEA_WH@ZXZ@4QBW4module_id@?A0x63058377@@B 000000018002ac20     libucrt:winapi_thunks.obj
 0002:00007c28       ?candidate_modules@?1??try_get_GetUserDefaultLocaleName@@YAP6AHPEA_WH@ZXZ@4QBW4module_id@?A0x63058377@@B 000000018002ac28     libucrt:winapi_thunks.obj
 0002:00007c50       ?candidate_modules@?1??try_get_InitializeCriticalSectionEx@@YAP6AHPEAU_RTL_CRITICAL_SECTION@@KK@ZXZ@4QBW4module_id@?A0x63058377@@B 000000018002ac50     libucrt:winapi_thunks.obj
 0002:00007c58       ?candidate_modules@?1??try_get_IsValidLocaleName@@YAP6AHPEB_W@ZXZ@4QBW4module_id@?A0x63058377@@B 000000018002ac58     libucrt:winapi_thunks.obj
 0002:00007c78       ?candidate_modules@?1??try_get_LCMapStringEx@@YAP6AHPEB_WK0HPEA_WHPEAU_nlsversioninfo@@PEAX_J@ZXZ@4QBW4module_id@?A0x63058377@@B 000000018002ac78     libucrt:winapi_thunks.obj
 0002:00007c80       ?candidate_modules@?1??try_get_LCIDToLocaleName@@YAP6AHKPEA_WHK@ZXZ@4QBW4module_id@?A0x63058377@@B 000000018002ac80     libucrt:winapi_thunks.obj
 0002:00007ca0       ?candidate_modules@?1??try_get_LocaleNameToLCID@@YAP6AKPEB_WK@ZXZ@4QBW4module_id@?A0x63058377@@B 000000018002aca0     libucrt:winapi_thunks.obj
 0002:00007cc0       _mb_locale_names           000000018002acc0     libucrt:mbctype.obj
 0002:000096a0       __real@433fffffffffffff    000000018002c6a0     libucrt:fpsr.obj
 0002:000096a8       __real@c33fffffffffffff    000000018002c6a8     libucrt:fpsr.obj
 0002:000096b0       LcidToLocaleNameTable      000000018002c6b0     libucrt:lcidtoname_downlevel.obj
 0002:0000a4f0       LocaleNameToIndexTable     000000018002d4f0     libucrt:lcidtoname_downlevel.obj
 0002:0000b330       __real_ninf                000000018002e330     libucrt:log10.obj
 0002:0000b340       __real_inf                 000000018002e340     libucrt:log10.obj
 0002:0000b350       __real_neg_qnan            000000018002e350     libucrt:log10.obj
 0002:0000b360       __real_qnanbit             000000018002e360     libucrt:log10.obj
 0002:0000b370       __int_1023                 000000018002e370     libucrt:log10.obj
 0002:0000b380       __mask_001                 000000018002e380     libucrt:log10.obj
 0002:0000b390       __mask_mant                000000018002e390     libucrt:log10.obj
 0002:0000b3a0       __mask_mant_top8           000000018002e3a0     libucrt:log10.obj
 0002:0000b3b0       __mask_mant9               000000018002e3b0     libucrt:log10.obj
 0002:0000b3c0       __real_log10_e             000000018002e3c0     libucrt:log10.obj
 0002:0000b3d0       __real_log10_e_lead        000000018002e3d0     libucrt:log10.obj
 0002:0000b3e0       __real_log10_e_tail        000000018002e3e0     libucrt:log10.obj
 0002:0000b3f0       __real_log10_2_lead        000000018002e3f0     libucrt:log10.obj
 0002:0000b400       __real_log10_2_tail        000000018002e400     libucrt:log10.obj
 0002:0000b410       __real_two                 000000018002e410     libucrt:log10.obj
 0002:0000b420       __real_one                 000000018002e420     libucrt:log10.obj
 0002:0000b430       __real_half                000000018002e430     libucrt:log10.obj
 0002:0000b440       __mask_100                 000000018002e440     libucrt:log10.obj
 0002:0000b450       __real_1_over_512          000000018002e450     libucrt:log10.obj
 0002:0000b460       __real_1_over_2            000000018002e460     libucrt:log10.obj
 0002:0000b470       __real_1_over_3            000000018002e470     libucrt:log10.obj
 0002:0000b480       __real_1_over_4            000000018002e480     libucrt:log10.obj
 0002:0000b490       __real_1_over_5            000000018002e490     libucrt:log10.obj
 0002:0000b4a0       __real_1_over_6            000000018002e4a0     libucrt:log10.obj
 0002:0000b4b0       __real_neg_1023            000000018002e4b0     libucrt:log10.obj
 0002:0000b4c0       __mask_2045                000000018002e4c0     libucrt:log10.obj
 0002:0000b4d0       __real_threshold           000000018002e4d0     libucrt:log10.obj
 0002:0000b4e0       __real_near_one_lt         000000018002e4e0     libucrt:log10.obj
 0002:0000b4f0       __real_near_one_gt         000000018002e4f0     libucrt:log10.obj
 0002:0000b500       __real_min_norm            000000018002e500     libucrt:log10.obj
 0002:0000b510       __real_notsign             000000018002e510     libucrt:log10.obj
 0002:0000b520       __real_ca1                 000000018002e520     libucrt:log10.obj
 0002:0000b530       __real_ca2                 000000018002e530     libucrt:log10.obj
 0002:0000b540       __real_ca3                 000000018002e540     libucrt:log10.obj
 0002:0000b550       __real_ca4                 000000018002e550     libucrt:log10.obj
 0002:0000b560       __mask_lower               000000018002e560     libucrt:log10.obj
 0002:0000b570       __flag_x_zero              000000018002e570     libucrt:log10.obj
 0002:0000b574       __flag_x_neg               000000018002e574     libucrt:log10.obj
 0002:0000b578       __flag_x_nan               000000018002e578     libucrt:log10.obj
 0002:0000e168       ?_TlgEvent@?3??__telemetry_main_invoke_trigger@@9@4U<unnamed-type-_TlgEvent>@?3??1@YAXQEAUHINSTANCE__@@@Z@B 0000000180031168     libvcruntime:telemetry.obj
 0002:0000e1a4       ?_TlgEvent@?3??__telemetry_main_return_trigger@@9@4U<unnamed-type-_TlgEvent>@?3??1@YAXQEAUHINSTANCE__@@@Z@B 00000001800311a4     libvcruntime:telemetry.obj
 0002:0000e1df       ?_Tlg_Microsoft_CRTProviderProv_Meta@@3U<unnamed-type-_Tlg_Microsoft_CRTProviderProv_Meta>@@B 00000001800311df     libvcruntime:telemetry.obj
 0002:0000e720       $unwind$?_Facet_Register@std@@YAXPEAV_Facet_base@1@@Z 0000000180031720     libcpmt:locale0.obj
 0002:0000e720       $unwind$__std_exception_destroy 0000000180031720     libvcruntime:std_exception.obj
 0002:0000e720       $unwind$_onexit            0000000180031720     LIBCMT:utility.obj
 0002:0000e720       $unwind$?do_grouping@?$numpunct@D@std@@MEBA?AV?$basic_string@DU?$char_traits@D@std@@V?$allocator@D@2@@2@XZ 0000000180031720     jsmsc.obj
 0002:0000e720       $unwind$??_Gtype_info@@UEAAPEAXI@Z 0000000180031720     LIBCMT:std_type_info_static.obj
 0002:0000e720       $unwind$__std_type_info_destroy_list 0000000180031720     libvcruntime:std_type_info.obj
 0002:0000e720       $unwind$load_exe_hook      0000000180031720     win_delay_load_hook.obj
 0002:0000e720       $unwind$_purecall          0000000180031720     libvcruntime:purevirt.obj
 0002:0000e720       $unwind$??_G?$num_put@DV?$ostreambuf_iterator@DU?$char_traits@D@std@@@std@@@std@@MEAAPEAXI@Z 0000000180031720     jsmsc.obj
 0002:0000e720       $unwind$?_Setgloballocale@locale@std@@CAXPEAX@Z 0000000180031720     libcpmt:locale0.obj
 0002:0000e720       $unwind$__scrt_release_startup_lock 0000000180031720     LIBCMT:utility.obj
 0002:0000e720       $unwind$??2@YAPEAX_K@Z     0000000180031720     LIBCMT:new_scalar.obj
 0002:0000e720       $unwind$__scrt_initialize_crt 0000000180031720     LIBCMT:utility.obj
 0002:0000e720       $unwind$??0exception@std@@QEAA@AEBV01@@Z 0000000180031720     LIBCMT:throw_bad_alloc.obj
 0002:0000e720       $unwind$__scrt_uninitialize_crt 0000000180031720     LIBCMT:utility.obj
 0002:0000e720       $unwind$__raise_securityfailure 0000000180031720     LIBCMT:gs_report.obj
 0002:0000e720       $unwind$??0bad_exception@std@@QEAA@AEBV01@@Z 0000000180031720     libvcruntime:frame.obj
 0002:0000e720       $unwind$?_Ios_base_dtor@ios_base@std@@CAXPEAV12@@Z 0000000180031720     libcpmt:ios.obj
 0002:0000e720       $unwind$??0bad_alloc@std@@QEAA@AEBV01@@Z 0000000180031720     LIBCMT:throw_bad_alloc.obj
 0002:0000e720       $unwind$?exit_or_terminate_process@@YAXI@Z 0000000180031720     libucrt:exit.obj
 0002:0000e720       $unwind$??__Efout@std@@YAXXZ 0000000180031720     libcpmt:cout.obj
 0002:0000e720       $unwind$??_G?$codecvt@DDU_Mbstatet@@@std@@MEAAPEAXI@Z 0000000180031720     libcpmt:cout.obj
 0002:0000e720       $unwind$??0bad_array_new_length@std@@QEAA@AEBV01@@Z 0000000180031720     LIBCMT:throw_bad_alloc.obj
 0002:0000e720       $unwind$_Init_thread_notify 0000000180031720     LIBCMT:thread_safe_statics.obj
 0002:0000e720       $unwind$__vcrt_freeptd     0000000180031720     libvcruntime:per_thread_data.obj
 0002:0000e720       $unwind$__acrt_uninitialize_winapi_thunks 0000000180031720     libucrt:winapi_thunks.obj
 0002:0000e720       $unwind$wcscat_s           0000000180031720     libucrt:wcscat_s.obj
 0002:0000e720       $unwind$?DloadReleaseSectionWriteAccess@@YAXXZ 0000000180031720     DelayImp:delayhlp.obj
 0002:0000e720       $unwind$__acrt_update_locale_info 0000000180031720     libucrt:locale_update.obj
 0002:0000e720       $unwind$fesetenv           0000000180031720     libucrt:fesetenv.obj
 0002:0000e720       $unwind$__acrt_update_multibyte_info 0000000180031720     libucrt:locale_update.obj
 0002:0000e720       $unwind$feholdexcept       0000000180031720     libucrt:feholdexcept.obj
 0002:0000e720       $unwind$__vcrt_uninitialize 0000000180031720     libvcruntime:initialization.obj
 0002:0000e720       $unwind$_fflush_nolock     0000000180031720     libucrt:fflush.obj
 0002:0000e720       $unwind$?imbue@?$basic_filebuf@DU?$char_traits@D@std@@@std@@MEAAXAEBVlocale@2@@Z 0000000180031720     libcpmt:cout.obj
 0002:0000e720       $unwind$_Getctype          0000000180031720     libcpmt:_tolower.obj
 0002:0000e720       $unwind$__acrt_uninitialize_stdio 0000000180031720     libucrt:_file.obj
 0002:0000e720       $unwind$fegetenv           0000000180031720     libucrt:fegetenv.obj
 0002:0000e720       $unwind$?setbuf@?$basic_filebuf@DU?$char_traits@D@std@@@std@@MEAAPEAV?$basic_streambuf@DU?$char_traits@D@std@@@2@PEAD_J@Z 0000000180031720     libcpmt:cout.obj
 0002:0000e720       $unwind$??0_Lockit@std@@QEAA@H@Z 0000000180031720     libcpmt:xlock.obj
 0002:0000e720       $unwind$?__GetUnwindTryBlock@@YAHPEA_KPEAU_xDISPATCHER_CONTEXT@@PEBU_s_FuncInfo@@@Z 0000000180031720     libvcruntime:ehstate.obj
 0002:0000e720       $unwind$?__StateFromIp@@YAHPEBU_s_FuncInfo@@PEAU_xDISPATCHER_CONTEXT@@_J@Z 0000000180031720     libvcruntime:ehstate.obj
 0002:0000e720       $unwind$__acrt_stdio_free_buffer_nolock 0000000180031720     libucrt:_freebuf.obj
 0002:0000e720       $unwind$??_Gexception@stdext@@UEAAPEAXI@Z 0000000180031720     jsmsc.obj
 0002:0000e720       $unwind$__acrt_stdio_allocate_buffer_nolock 0000000180031720     libucrt:_getbuf.obj
 0002:0000e720       $unwind$__vcrt_initialize_locks 0000000180031720     libvcruntime:locks.obj
 0002:0000e720       $unwind$__vcrt_uninitialize_locks 0000000180031720     libvcruntime:locks.obj
 0002:0000e720       $unwind$??_Gruntime_error@std@@UEAAPEAXI@Z 0000000180031720     jsmsc.obj
 0002:0000e720       $unwind$strcpy_s           0000000180031720     libucrt:strcpy_s.obj
 0002:0000e720       $unwind$?do_falsename@?$numpunct@D@std@@MEBA?AV?$basic_string@DU?$char_traits@D@std@@V?$allocator@D@2@@2@XZ 0000000180031720     jsmsc.obj
 0002:0000e720       $unwind$wcscpy_s           0000000180031720     libucrt:wcscpy_s.obj
 0002:0000e720       $unwind$??0logic_error@std@@QEAA@AEBV01@@Z 0000000180031720     libcpmt:xthrow.obj
 0002:0000e720       $unwind$??_G_Facet_base@std@@UEAAPEAXI@Z 0000000180031720     jsmsc.obj
 0002:0000e720       $unwind$__acrt_freeptd     0000000180031720     libucrt:per_thread_data.obj
 0002:0000e720       $unwind$??0length_error@std@@QEAA@AEBV01@@Z 0000000180031720     libcpmt:xthrow.obj
 0002:0000e720       $unwind$__acrt_fp_strflt_to_string 0000000180031720     libucrt:_fptostr.obj
 0002:0000e720       $unwind$_SetImageBase      0000000180031720     libvcruntime:trnsctrl.obj
 0002:0000e720       $unwind$_Init_thread_header 0000000180031720     LIBCMT:thread_safe_statics.obj
 0002:0000e720       $unwind$_SetThrowImageBase 0000000180031720     libvcruntime:trnsctrl.obj
 0002:0000e720       $unwind$?do_truename@?$numpunct@D@std@@MEBA?AV?$basic_string@DU?$char_traits@D@std@@V?$allocator@D@2@@2@XZ 0000000180031720     jsmsc.obj
 0002:0000e720       $unwind$_CreateFrameInfo   0000000180031720     libvcruntime:trnsctrl.obj
 0002:0000e720       $unwind$_IsExceptionObjectToBeDestroyed 0000000180031720     libvcruntime:trnsctrl.obj
 0002:0000e720       $unwind$_setfpstatusword   0000000180031720     libucrt:_fenvutils.obj
 0002:0000e720       $unwind$_calloc_base       0000000180031720     libucrt:calloc_base.obj
 0002:0000e720       $unwind$??0out_of_range@std@@QEAA@AEBV01@@Z 0000000180031720     libcpmt:xthrow.obj
 0002:0000e720       $unwind$??0?$output_processor@DV?$string_output_adapter@D@__crt_stdio_output@@V?$format_validation_base@DV?$string_output_adapter@D@__crt_stdio_output@@@2@@__crt_stdio_output@@QEAA@AEBV?$string_output_adapter@D@1@_KQEBDQEAU__crt_locale_pointers@@QEAD@Z 0000000180031720     libucrt:output.obj
 0002:0000e720       $unwind$?do_widen@?$ctype@D@std@@MEBAPEBDPEBD0PEAD@Z 0000000180031720     jsmsc.obj
 0002:0000e720       $unwind$?do_narrow@?$ctype@D@std@@MEBAPEBDPEBD0DPEAD@Z 0000000180031720     jsmsc.obj
 0002:0000e720       $unwind$_malloc_base       0000000180031720     libucrt:malloc_base.obj
 0002:0000e720       $unwind$_clearfp           0000000180031720     libucrt:ieee.obj
 0002:0000e720       $unwind$??_Gerror_category@std@@UEAAPEAXI@Z 0000000180031720     jsmsc.obj
 0002:0000e720       $unwind$__acrt_initialize_locks 0000000180031720     libucrt:locks.obj
 0002:0000e720       $unwind$__acrt_uninitialize_locks 0000000180031720     libucrt:locks.obj
 0002:0000e720       $unwind$_clrfp             0000000180031720     libucrt:fpctrl.obj
 0002:0000e720       $unwind$??_G_System_error@std@@UEAAPEAXI@Z 0000000180031720     jsmsc.obj
 0002:0000e720       $unwind$?message@_Iostream_error_category@std@@UEBA?AV?$basic_string@DU?$char_traits@D@std@@V?$allocator@D@2@@2@H@Z 0000000180031720     jsmsc.obj
 0002:0000e720       $unwind$??_G_Iostream_error_category@std@@UEAAPEAXI@Z 0000000180031720     jsmsc.obj
 0002:0000e720       $unwind$?state_case_normal@?$output_processor@DV?$string_output_adapter@D@__crt_stdio_output@@V?$format_validation_base@DV?$string_output_adapter@D@__crt_stdio_output@@@2@@__crt_stdio_output@@AEAA_NXZ 0000000180031720     libucrt:output.obj
 0002:0000e720       $unwind$_set_statfp        0000000180031720     libucrt:fpctrl.obj
 0002:0000e720       $unwind$??_Gfailure@ios_base@std@@UEAAPEAXI@Z 0000000180031720     jsmsc.obj
 0002:0000e720       $unwind$_Init_thread_footer 0000000180031720     LIBCMT:thread_safe_statics.obj
 0002:0000e720       $unwind$??1Mat@cv@@QEAA@XZ 0000000180031720     jsmsc.obj
 0002:0000e720       $unwind$?initialize_pointers@@YAHXZ 0000000180031720     libcpmt:winapisupp.obj
 0002:0000e720       $unwind$?type_case_integer@?$output_processor@DV?$string_output_adapter@D@__crt_stdio_output@@V?$format_validation_base@DV?$string_output_adapter@D@__crt_stdio_output@@@2@@__crt_stdio_output@@AEAA_NI_N@Z 0000000180031720     libucrt:output.obj
 0002:0000e720       $unwind$?_Addstd@ios_base@std@@SAXPEAV12@@Z 0000000180031720     libcpmt:ios.obj
 0002:0000e720       $unwind$uninitialize_allocated_memory 0000000180031720     libucrt:initialization.obj
 0002:0000e720       $unwind$??0bad_cast@std@@QEAA@AEBV01@@Z 0000000180031720     libcpmt:cout.obj
 0002:0000e720       $unwind$initialize_pointers 0000000180031720     libucrt:initialization.obj
 0002:0000e720       $unwind$??1?$basic_string@DU?$char_traits@D@std@@V?$allocator@D@2@@std@@QEAA@XZ 0000000180031720     jsmsc.obj
 0002:0000e728       $unwind$sprintf_s          0000000180031728     jsmsc.obj
 0002:0000e738       $unwind$__vcrt_initialize_ptd 0000000180031738     libvcruntime:per_thread_data.obj
 0002:0000e738       $unwind$initialize_c       0000000180031738     libucrt:initialization.obj
 0002:0000e738       $unwind$__acrt_thread_detach 0000000180031738     libucrt:initialization.obj
 0002:0000e738       $unwind$_stricmp           0000000180031738     libucrt:stricmp.obj
 0002:0000e738       $unwind$?__scrt_uninitialize_thread_safe_statics@@YAXXZ 0000000180031738     LIBCMT:thread_safe_statics.obj
 0002:0000e738       $unwind$__acrt_thread_attach 0000000180031738     libucrt:initialization.obj
 0002:0000e738       $unwind$?state_case_size@?$output_processor@DV?$string_output_adapter@D@__crt_stdio_output@@V?$format_validation_base@DV?$string_output_adapter@D@__crt_stdio_output@@@2@@__crt_stdio_output@@AEAA_NXZ 0000000180031738     libucrt:output.obj
 0002:0000e738       $unwind$?initialize_multibyte@@YAHXZ 0000000180031738     libucrt:multibyte_initializer.obj
 0002:0000e738       $unwind$__acrt_uninitialize_critical 0000000180031738     libucrt:initialization.obj
 0002:0000e738       $unwind$__pctype_func      0000000180031738     libucrt:ctype.obj
 0002:0000e738       $unwind$_wcsicmp           0000000180031738     libucrt:wcsicmp.obj
 0002:0000e738       $unwind$__vcrt_thread_detach 0000000180031738     libvcruntime:initialization.obj
 0002:0000e738       $unwind$_wcsnicmp          0000000180031738     libucrt:wcsnicmp.obj
 0002:0000e738       $unwind$__dcrt_uninitialize_environments_nolock 0000000180031738     libucrt:environment_initialization.obj
 0002:0000e738       $unwind$_get_stream_buffer_pointers 0000000180031738     libucrt:_file.obj
 0002:0000e738       $unwind$__vcrt_thread_attach 0000000180031738     libvcruntime:initialization.obj
 0002:0000e738       $unwind$__vcrt_uninitialize_ptd 0000000180031738     libvcruntime:per_thread_data.obj
 0002:0000e738       $unwind$?state_case_normal_tchar@?$output_processor@DV?$string_output_adapter@D@__crt_stdio_output@@V?$format_validation_base@DV?$string_output_adapter@D@__crt_stdio_output@@@2@@__crt_stdio_output@@AEAA_ND@Z 0000000180031738     libucrt:output.obj
 0002:0000e738       $unwind$??$uninitialize_environment_internal@D@@YAXAEAPEAPEAD@Z 0000000180031738     libucrt:environment_initialization.obj
 0002:0000e738       $unwind$_msize             0000000180031738     libucrt:msize.obj
 0002:0000e738       $unwind$_statfp            0000000180031738     libucrt:fpctrl.obj
 0002:0000e738       $unwind$__vcrt_uninitialize_critical 0000000180031738     libvcruntime:initialization.obj
 0002:0000e738       $unwind$??__Einitlocks@@YAXXZ 0000000180031738     libcpmt:cout.obj
 0002:0000e738       $unwind$??$uninitialize_environment_internal@_W@@YAXAEAPEAPEA_W@Z 0000000180031738     libucrt:environment_initialization.obj
 0002:0000e738       $unwind$__acrt_initialize_heap 0000000180031738     libucrt:heap_handle.obj
 0002:0000e738       $unwind$__vcrt_getptd      0000000180031738     libvcruntime:per_thread_data.obj
 0002:0000e738       $unwind$__dcrt_terminate_console_output 0000000180031738     libucrt:initcon.obj
 0002:0000e738       $unwind$_set_errno_from_matherr 0000000180031738     libucrt:fpexcept.obj
 0002:0000e738       $unwind$?_Atexit@@YAXP6AXXZ@Z 0000000180031738     libcpmt:iosptrs.obj
 0002:0000e738       $unwind$??__Einitlocks@std@@YAXXZ 0000000180031738     libcpmt:iosptrs.obj
 0002:0000e738       $unwind$__acrt_DownlevelLocaleNameToLCID 0000000180031738     libucrt:lcidtoname_downlevel.obj
 0002:0000e738       $unwind$__crtDownlevelLocaleNameToLCID 0000000180031738     libcpmt:winapinls.obj
 0002:0000e738       $unwind$__doserrno         0000000180031738     libucrt:errno.obj
 0002:0000e738       $unwind$_errno             0000000180031738     libucrt:errno.obj
 0002:0000e738       $unwind$fsetpos            0000000180031738     libucrt:fsetpos.obj
 0002:0000e738       $unwind$??$_Immortalize@V_Iostream_error_category@std@@@std@@YAAEAV_Iostream_error_category@0@XZ 0000000180031738     jsmsc.obj
 0002:0000e738       $unwind$__vcrt_freefls     0000000180031738     libvcruntime:per_thread_data.obj
 0002:0000e738       $unwind$___mb_cur_max_func 0000000180031738     libucrt:initctype.obj
 0002:0000e738       $unwind$_isatty            0000000180031738     libucrt:isatty.obj
 0002:0000e738       $unwind$_getfpcontrolword  0000000180031738     libucrt:_fenvutils.obj
 0002:0000e738       $unwind$_GetThrowImageBase 0000000180031738     libvcruntime:trnsctrl.obj
 0002:0000e738       $unwind$?_Lock@?$basic_filebuf@DU?$char_traits@D@std@@@std@@UEAAXXZ 0000000180031738     libcpmt:cout.obj
 0002:0000e738       $unwind$__acrt_initialize_multibyte 0000000180031738     libucrt:mbctype.obj
 0002:0000e738       $unwind$?_Unlock@?$basic_filebuf@DU?$char_traits@D@std@@@std@@UEAAXXZ 0000000180031738     libcpmt:cout.obj
 0002:0000e738       $unwind$_getfpstatusword   0000000180031738     libucrt:_fenvutils.obj
 0002:0000e738       $unwind$__vcrt_initialize  0000000180031738     libvcruntime:initialization.obj
 0002:0000e738       $unwind$__acrt_can_use_vista_locale_apis 0000000180031738     libucrt:winapi_thunks.obj
 0002:0000e738       $unwind$_copytlocinfo_nolock 0000000180031738     libucrt:wsetlocale.obj
 0002:0000e738       $unwind$?dllmain_crt_dispatch@@YAHQEAUHINSTANCE__@@KQEAX@Z 0000000180031738     LIBCMT:dll_dllmain.obj
 0002:0000e738       $unwind$??__Einitlocks@std@@YAXXZ 0000000180031738     libcpmt:xlock.obj
 0002:0000e738       $unwind$__scrt_initialize_default_local_stdio_options 0000000180031738     LIBCMT:default_local_stdio_options.obj
 0002:0000e738       $unwind$localeconv         0000000180031738     libucrt:localeconv.obj
 0002:0000e738       $unwind$??__Ecout@std@@YAXXZ 0000000180031738     libcpmt:cout.obj
 0002:0000e738       $unwind$?deallocate@?$_Wrap_alloc@V?$allocator@D@std@@@std@@QEAAXPEAD_K@Z 0000000180031738     jsmsc.obj
 0002:0000e738       $unwind$__acrt_uninitialize_ptd 0000000180031738     libucrt:per_thread_data.obj
 0002:0000e738       $unwind$__report_rangecheckfailure 0000000180031738     LIBCMT:gs_report.obj
 0002:0000e738       $unwind$__acrt_initialize_ptd 0000000180031738     libucrt:per_thread_data.obj
 0002:0000e738       $unwind$?_Deallocate@std@@YAXPEAX_K1@Z 0000000180031738     jsmsc.obj
 0002:0000e738       $unwind$uninitialize_environment 0000000180031738     libucrt:initialization.obj
 0002:0000e738       $unwind$atexit             0000000180031738     LIBCMT:utility.obj
 0002:0000e738       $unwind$??1_Lockit@std@@QEAA@XZ 0000000180031738     libcpmt:xlock.obj
 0002:0000e738       $unwind$_GetImageBase      0000000180031738     libvcruntime:trnsctrl.obj
 0002:0000e738       $unwind$__acrt_initialize_command_line 0000000180031738     libucrt:argv_data.obj
 0002:0000e738       $unwind$___lc_locale_name_func 0000000180031738     libucrt:initctype.obj
 0002:0000e738       $unwind$?__GetCurrentState@@YAHPEA_KPEAU_xDISPATCHER_CONTEXT@@PEBU_s_FuncInfo@@@Z 0000000180031738     libvcruntime:ehstate.obj
 0002:0000e738       $unwind$___lc_codepage_func 0000000180031738     libucrt:initctype.obj
 0002:0000e738       $unwind$__acrt_release_locale_ref 0000000180031738     libucrt:locale_refcounting.obj
 0002:0000e738       $unwind$abort              0000000180031738     libucrt:abort.obj
 0002:0000e738       $unwind$??__F_Fac_tidy_reg@std@@YAXXZ 0000000180031738     libcpmt:locale0.obj
 0002:0000e738       $unwind$?_Locinfo_dtor@_Locinfo@std@@SAXPEAV12@@Z 0000000180031738     libcpmt:locale0.obj
 0002:0000e738       $unwind$__scrt_dllmain_crt_thread_detach 0000000180031738     LIBCMT:utility.obj
 0002:0000e738       $unwind$_fileno            0000000180031738     libucrt:fileno.obj
 0002:0000e738       $unwind$__scrt_dllmain_crt_thread_attach 0000000180031738     LIBCMT:utility.obj
 0002:0000e738       $unwind$__scrt_dllmain_uninitialize_critical 0000000180031738     LIBCMT:utility.obj
 0002:0000e738       $unwind$_get_osfhandle     0000000180031738     libucrt:osfinfo.obj
 0002:0000e738       $unwind$__scrt_dllmain_uninitialize_c 0000000180031738     LIBCMT:utility.obj
 0002:0000e738       $unwind$__vcrt_uninitialize_telemetry_provider 0000000180031738     libvcruntime:telemetry.obj
 0002:0000e738       $unwind$__scrt_dllmain_after_initialize_c 0000000180031738     LIBCMT:utility.obj
 0002:0000e738       $unwind$__GSHandlerCheck   0000000180031738     LIBCMT:_gshandler_.obj
 0002:0000e738       $unwind$_fgetc_nolock      0000000180031738     libucrt:fgetc.obj
 0002:0000e738       $unwind$tidy_global        0000000180031738     libcpmt:locale0.obj
 0002:0000e738       $unwind$__scrt_dllmain_before_initialize_c 0000000180031738     LIBCMT:utility.obj
 0002:0000e738       $unwind$__std_terminate    0000000180031738     libvcruntime:frame.obj
 0002:0000e738       $unwind$__FrameUnwindFilter 0000000180031738     libvcruntime:frame.obj
 0002:0000e738       $unwind$tolower            0000000180031738     libucrt:tolower_toupper.obj
 0002:0000e738       $unwind$__scrt_acquire_startup_lock 0000000180031738     LIBCMT:utility.obj
 0002:0000e738       $unwind$_invoke_watson     0000000180031738     libucrt:invalid_parameter.obj
 0002:0000e740       $unwind$?x_ismbbtype_l@@YAHPEAU__crt_locale_pointers@@IHH@Z 0000000180031740     libucrt:ismbbyte.obj
 0002:0000e740       $unwind$_stricmp_l         0000000180031740     libucrt:stricmp.obj
 0002:0000e740       $unwind$??0_Locinfo@std@@QEAA@PEBD@Z 0000000180031740     jsmsc.obj
 0002:0000e750       $unwind$GetLocaleNameFromLangCountry 0000000180031750     libucrt:get_qualified_locale.obj
 0002:0000e750       $unwind$??_G?$basic_filebuf@DU?$char_traits@D@std@@@std@@UEAAPEAXI@Z 0000000180031750     libcpmt:cout.obj
 0002:0000e750       $unwind$?ExFilterRethrow@@YAHPEAU_EXCEPTION_POINTERS@@PEAUEHExceptionRecord@@PEAH@Z 0000000180031750     libvcruntime:frame.obj
 0002:0000e750       $unwind$?_New_Locimp@_Locimp@locale@std@@CAPEAV123@_N@Z 0000000180031750     libcpmt:locale0.obj
 0002:0000e750       $unwind$fgetpos            0000000180031750     libucrt:fgetpos.obj
 0002:0000e750       $unwind$?internal_isupper_l@@YA_NHQEAU__crt_locale_pointers@@@Z 0000000180031750     libucrt:tolower_toupper.obj
 0002:0000e750       $unwind$?DloadAcquireSectionWriteAccess@@YAXXZ 0000000180031750     DelayImp:delayhlp.obj
 0002:0000e750       $unwind$?_Locinfo_ctor@_Locinfo@std@@SAXPEAV12@PEBD@Z 0000000180031750     libcpmt:locale0.obj
 0002:0000e750       $unwind$??$common_xtox@K_W@@YAHKQEA_W_KI_N@Z 0000000180031750     libucrt:xtoa.obj
 0002:0000e750       $unwind$?DloadGetSRWLockFunctionPointers@@YAEXZ 0000000180031750     DelayImp:delayhlp.obj
 0002:0000e750       $unwind$?__SetUnwindTryBlock@@YAXPEA_KPEAU_xDISPATCHER_CONTEXT@@PEBU_s_FuncInfo@@H@Z 0000000180031750     libvcruntime:ehstate.obj
 0002:0000e750       $unwind$strncpy_s          0000000180031750     libucrt:strncpy_s.obj
 0002:0000e750       $unwind$??1_Init_locks@std@@QEAA@XZ 0000000180031750     libcpmt:xlock.obj
 0002:0000e750       $unwind$__vcrt_FlsGetValue 0000000180031750     libvcruntime:winapi_downlevel.obj
 0002:0000e750       $unwind$__vcrt_FlsFree     0000000180031750     libvcruntime:winapi_downlevel.obj
 0002:0000e750       $unwind$_updatetlocinfoEx_nolock 0000000180031750     libucrt:locale_refcounting.obj
 0002:0000e750       $unwind$??_Gbad_exception@std@@UEAAPEAXI@Z 0000000180031750     libvcruntime:frame.obj
 0002:0000e750       $unwind$?try_cor_exit_process@@YAXI@Z 0000000180031750     libucrt:exit.obj
 0002:0000e750       $unwind$?erase@?$basic_string@DU?$char_traits@D@std@@V?$allocator@D@2@@std@@QEAAAEAV12@_K0@Z 0000000180031750     jsmsc.obj
 0002:0000e750       $unwind$?<helper_func_cdecl>@<lambda_e2bb8337c48846e80c921ea5ddadc92d>@@CAHPEA_W@Z 0000000180031750     libucrt:winapi_thunks.obj
 0002:0000e750       $unwind$__vcrt_FlsAlloc    0000000180031750     libvcruntime:winapi_downlevel.obj
 0002:0000e750       $unwind$?pbackfail@?$basic_filebuf@DU?$char_traits@D@std@@@std@@MEAAHH@Z 0000000180031750     libcpmt:cout.obj
 0002:0000e750       $unwind$__vcrt_EventUnregister 0000000180031750     libvcruntime:winapi_downlevel.obj
 0002:0000e750       $unwind$__acrt_getptd      0000000180031750     libucrt:per_thread_data.obj
 0002:0000e750       $unwind$__acrt_invoke_user_matherr 0000000180031750     libucrt:matherr.obj
 0002:0000e750       $unwind$??1_Locinfo@std@@QEAA@XZ 0000000180031750     jsmsc.obj
 0002:0000e750       $unwind$_fclose_nolock     0000000180031750     libucrt:fclose.obj
 0002:0000e750       $unwind$?assign@?$basic_string@DU?$char_traits@D@std@@V?$allocator@D@2@@std@@QEAAAEAV12@$$QEAV12@@Z 0000000180031750     jsmsc.obj
 0002:0000e750       $unwind$??_Glogic_error@std@@UEAAPEAXI@Z 0000000180031750     libcpmt:xthrow.obj
 0002:0000e750       $unwind$GetLocaleNameFromLanguage 0000000180031750     libucrt:get_qualified_locale.obj
 0002:0000e750       $unwind$??_Gexception@std@@UEAAPEAXI@Z 0000000180031750     LIBCMT:throw_bad_alloc.obj
 0002:0000e750       $unwind$??_Glength_error@std@@UEAAPEAXI@Z 0000000180031750     libcpmt:xthrow.obj
 0002:0000e750       $unwind$??_G?$numpunct@D@std@@MEAAPEAXI@Z 0000000180031750     jsmsc.obj
 0002:0000e750       $unwind$__acrt_IsValidLocaleName 0000000180031750     libucrt:winapi_thunks.obj
 0002:0000e750       $unwind$??_Gbad_alloc@std@@UEAAPEAXI@Z 0000000180031750     LIBCMT:throw_bad_alloc.obj
 0002:0000e750       $unwind$?replace_current_thread_locale_nolock@@YAXQEAU__acrt_ptd@@QEAU__crt_locale_data@@@Z 0000000180031750     libucrt:per_thread_data.obj
 0002:0000e750       $unwind$??_Gbad_array_new_length@std@@UEAAPEAXI@Z 0000000180031750     LIBCMT:throw_bad_alloc.obj
 0002:0000e750       $unwind$??_G?$basic_streambuf@DU?$char_traits@D@std@@@std@@UEAAPEAXI@Z 0000000180031750     libcpmt:cout.obj
 0002:0000e750       $unwind$?uflow@?$basic_streambuf@DU?$char_traits@D@std@@@std@@MEAAHXZ 0000000180031750     libcpmt:cout.obj
 0002:0000e750       $unwind$__acrt_uninitialize_lowio 0000000180031750     libucrt:ioinit.obj
 0002:0000e750       $unwind$GetLcidFromLanguage 0000000180031750     libucrt:getqloc_downlevel.obj
 0002:0000e750       $unwind$?force_decimal_point@__crt_stdio_output@@YAXPEADQEAU__crt_locale_pointers@@@Z 0000000180031750     libucrt:output.obj
 0002:0000e750       $unwind$??_Gout_of_range@std@@UEAAPEAXI@Z 0000000180031750     libcpmt:xthrow.obj
 0002:0000e750       $unwind$_ungetc_nolock     0000000180031750     libucrt:ungetc.obj
 0002:0000e750       $unwind$_FindAndUnlinkFrame 0000000180031750     libvcruntime:trnsctrl.obj
 0002:0000e750       $unwind$??_G?$ctype@D@std@@MEAAPEAXI@Z 0000000180031750     jsmsc.obj
 0002:0000e750       $unwind$??$common_initialize_environment_nolock@D@@YAHXZ 0000000180031750     libucrt:environment_initialization.obj
 0002:0000e750       $unwind$??0Mat@cv@@QEAA@AEBV01@@Z 0000000180031750     jsmsc.obj
 0002:0000e750       $unwind$??4Mat@cv@@QEAAAEAV01@AEBV01@@Z 0000000180031750     jsmsc.obj
 0002:0000e750       $unwind$__acrt_locale_initialize_time 0000000180031750     libucrt:inittime.obj
 0002:0000e750       $unwind$__acrt_FlsGetValue 0000000180031750     libucrt:winapi_thunks.obj
 0002:0000e750       $unwind$wcsncpy_s          0000000180031750     libucrt:wcsncpy_s.obj
 0002:0000e750       $unwind$_callnewh          0000000180031750     libucrt:new_handler.obj
 0002:0000e750       $unwind$__acrt_errno_map_os_error 0000000180031750     libucrt:errno.obj
 0002:0000e750       $unwind$__acrt_stdio_begin_temporary_buffering_nolock 0000000180031750     libucrt:_sftbuf.obj
 0002:0000e750       $unwind$??0sentry@?$basic_ostream@DU?$char_traits@D@std@@@std@@QEAA@AEAV12@@Z 0000000180031750     jsmsc.obj
 0002:0000e750       $unwind$??_Gbad_cast@std@@UEAAPEAXI@Z 0000000180031750     libcpmt:cout.obj
 0002:0000e750       $unwind$??0_LocaleUpdate@@QEAA@QEAU__crt_locale_pointers@@@Z 0000000180031750     libucrt:stricmp.obj
 0002:0000e750       $unwind$__acrt_FlsFree     0000000180031750     libucrt:winapi_thunks.obj
 0002:0000e750       $unwind$_close_nolock      0000000180031750     libucrt:close.obj
 0002:0000e750       $unwind$GetLcidFromLangCountry 0000000180031750     libucrt:getqloc_downlevel.obj
 0002:0000e750       $unwind$?type_case_c_tchar@?$output_processor@DV?$string_output_adapter@D@__crt_stdio_output@@V?$format_validation_base@DV?$string_output_adapter@D@__crt_stdio_output@@@2@@__crt_stdio_output@@AEAA_ND@Z 0000000180031750     libucrt:output.obj
 0002:0000e750       $unwind$__acrt_FlsAlloc    0000000180031750     libucrt:winapi_thunks.obj
 0002:0000e750       $unwind$_Deletegloballocale 0000000180031750     libcpmt:locale0.obj
 0002:0000e750       $unwind$_realloc_base      0000000180031750     libucrt:realloc_base.obj
 0002:0000e75c       $unwind$?_Getcat@?$ctype@D@std@@SA_KPEAPEBVfacet@locale@2@PEBV42@@Z 000000018003175c     jsmsc.obj
 0002:0000e76c       $chain$0$?_Getcat@?$ctype@D@std@@SA_KPEAPEBVfacet@locale@2@PEBV42@@Z 000000018003176c     jsmsc.obj
 0002:0000e780       $chain$1$?_Getcat@?$ctype@D@std@@SA_KPEAPEBVfacet@locale@2@PEBV42@@Z 0000000180031780     jsmsc.obj
 0002:0000e790       $unwind$TestDefaultLanguage 0000000180031790     libucrt:getqloc_downlevel.obj
 0002:0000e790       $unwind$?do_tolower@?$ctype@D@std@@MEBAPEBDPEADPEBD@Z 0000000180031790     jsmsc.obj
 0002:0000e790       $unwind$ProcessCodePage    0000000180031790     libucrt:get_qualified_locale.obj
 0002:0000e790       $unwind$??R<lambda_b721fa326cdb32351d23dfa67958c160>@@QEBAHXZ 0000000180031790     libucrt:setvbuf.obj
 0002:0000e790       $unwind$ProcessCodePage    0000000180031790     libucrt:getqloc_downlevel.obj
 0002:0000e790       $unwind$?do_toupper@?$ctype@D@std@@MEBAPEBDPEADPEBD@Z 0000000180031790     jsmsc.obj
 0002:0000e7a0       $chain$0$?do_tolower@?$ctype@D@std@@MEBAPEBDPEADPEBD@Z 00000001800317a0     jsmsc.obj
 0002:0000e7b4       $chain$1$?do_tolower@?$ctype@D@std@@MEBAPEBDPEADPEBD@Z 00000001800317b4     jsmsc.obj
 0002:0000e7c4       $chain$0$?do_toupper@?$ctype@D@std@@MEBAPEBDPEADPEBD@Z 00000001800317c4     jsmsc.obj
 0002:0000e7d8       $chain$1$?do_toupper@?$ctype@D@std@@MEBAPEBDPEADPEBD@Z 00000001800317d8     jsmsc.obj
 0002:0000e7e8       $unwind$strtol             00000001800317e8     libucrt:strtox.obj
 0002:0000e7e8       $unwind$??$common_xtox_s@K_W@@YAHKQEA_W_KI_N@Z 00000001800317e8     libucrt:xtoa.obj
 0002:0000e7e8       $unwind$??0length_error@std@@QEAA@PEBD@Z 00000001800317e8     libcpmt:xthrow.obj
 0002:0000e7e8       $unwind$?equivalent@error_category@std@@UEBA_NHAEBVerror_condition@2@@Z 00000001800317e8     jsmsc.obj
 0002:0000e7e8       $unwind$??0out_of_range@std@@QEAA@PEBD@Z 00000001800317e8     libcpmt:xthrow.obj
 0002:0000e7e8       $unwind$?flush@?$basic_ostream@DU?$char_traits@D@std@@@std@@QEAAAEAV12@XZ 00000001800317e8     jsmsc.obj
 0002:0000e7e8       $unwind$__stdio_common_vsprintf_s 00000001800317e8     libucrt:output.obj
 0002:0000e7f0       $unwind$?_Makestr@_System_error@std@@CA?AV?$basic_string@DU?$char_traits@D@std@@V?$allocator@D@2@@2@Verror_code@2@V32@@Z 00000001800317f0     jsmsc.obj
 0002:0000e804       $unwind$?clear@ios_base@std@@QEAAXH_N@Z 0000000180031804     jsmsc.obj
 0002:0000e818       $chain$1$?clear@ios_base@std@@QEAAXH_N@Z 0000000180031818     jsmsc.obj
 0002:0000e830       $chain$2$?clear@ios_base@std@@QEAAXH_N@Z 0000000180031830     jsmsc.obj
 0002:0000e840       $chain$3$?clear@ios_base@std@@QEAAXH_N@Z 0000000180031840     jsmsc.obj
 0002:0000e858       $unwind$?CalcReturnVal@@YAXVMat@cv@@PEAVIsolate@v8@@AEAV?$Local@VObject@v8@@@4@@Z 0000000180031858     jsmsc.obj
 0002:0000e884       $unwind$?jsmsc@@YAXAEBV?$FunctionCallbackInfo@VValue@v8@@@v8@@@Z 0000000180031884     jsmsc.obj
 0002:0000e8a8       $unwind$?CreateFunction@@YAXAEBV?$FunctionCallbackInfo@VValue@v8@@@v8@@@Z 00000001800318a8     jsmsc.obj
 0002:0000e8b4       $unwind$?Init@@YAXV?$Local@VObject@v8@@@v8@@0@Z 00000001800318b4     jsmsc.obj
 0002:0000e8bc       $unwind$??6?$basic_ostream@DU?$char_traits@D@std@@@std@@QEAAAEAV01@_K@Z 00000001800318bc     jsmsc.obj
 0002:0000e8c4       $chain$1$??6?$basic_ostream@DU?$char_traits@D@std@@@std@@QEAAAEAV01@_K@Z 00000001800318c4     jsmsc.obj
 0002:0000e8dc       $chain$3$??6?$basic_ostream@DU?$char_traits@D@std@@@std@@QEAAAEAV01@_K@Z 00000001800318dc     jsmsc.obj
 0002:0000e8f4       $chain$4$??6?$basic_ostream@DU?$char_traits@D@std@@@std@@QEAAAEAV01@_K@Z 00000001800318f4     jsmsc.obj
 0002:0000e908       $chain$5$??6?$basic_ostream@DU?$char_traits@D@std@@@std@@QEAAAEAV01@_K@Z 0000000180031908     jsmsc.obj
 0002:0000e918       $chain$6$??6?$basic_ostream@DU?$char_traits@D@std@@@std@@QEAAAEAV01@_K@Z 0000000180031918     jsmsc.obj
 0002:0000e92c       $chain$7$??6?$basic_ostream@DU?$char_traits@D@std@@@std@@QEAAAEAV01@_K@Z 000000018003192c     jsmsc.obj
 0002:0000e93c       $unwind$?do_put@?$num_put@DV?$ostreambuf_iterator@DU?$char_traits@D@std@@@std@@@std@@MEBA?AV?$ostreambuf_iterator@DU?$char_traits@D@std@@@2@V32@AEAVios_base@2@DPEBX@Z 000000018003193c     jsmsc.obj
 0002:0000e954       $unwind$?do_put@?$num_put@DV?$ostreambuf_iterator@DU?$char_traits@D@std@@@std@@@std@@MEBA?AV?$ostreambuf_iterator@DU?$char_traits@D@std@@@2@V32@AEAVios_base@2@DO@Z 0000000180031954     jsmsc.obj
 0002:0000e954       $unwind$?do_put@?$num_put@DV?$ostreambuf_iterator@DU?$char_traits@D@std@@@std@@@std@@MEBA?AV?$ostreambuf_iterator@DU?$char_traits@D@std@@@2@V32@AEAVios_base@2@DN@Z 0000000180031954     jsmsc.obj
 0002:0000e978       $unwind$?do_put@?$num_put@DV?$ostreambuf_iterator@DU?$char_traits@D@std@@@std@@@std@@MEBA?AV?$ostreambuf_iterator@DU?$char_traits@D@std@@@2@V32@AEAVios_base@2@D_K@Z 0000000180031978     jsmsc.obj
 0002:0000e978       $unwind$?do_put@?$num_put@DV?$ostreambuf_iterator@DU?$char_traits@D@std@@@std@@@std@@MEBA?AV?$ostreambuf_iterator@DU?$char_traits@D@std@@@2@V32@AEAVios_base@2@DJ@Z 0000000180031978     jsmsc.obj
 0002:0000e978       $unwind$?do_put@?$num_put@DV?$ostreambuf_iterator@DU?$char_traits@D@std@@@std@@@std@@MEBA?AV?$ostreambuf_iterator@DU?$char_traits@D@std@@@2@V32@AEAVios_base@2@DK@Z 0000000180031978     jsmsc.obj
 0002:0000e978       $unwind$?do_put@?$num_put@DV?$ostreambuf_iterator@DU?$char_traits@D@std@@@std@@@std@@MEBA?AV?$ostreambuf_iterator@DU?$char_traits@D@std@@@2@V32@AEAVios_base@2@D_J@Z 0000000180031978     jsmsc.obj
 0002:0000e990       $unwind$?do_put@?$num_put@DV?$ostreambuf_iterator@DU?$char_traits@D@std@@@std@@@std@@MEBA?AV?$ostreambuf_iterator@DU?$char_traits@D@std@@@2@V32@AEAVios_base@2@D_N@Z 0000000180031990     jsmsc.obj
 0002:0000e9ac       $chain$1$?do_put@?$num_put@DV?$ostreambuf_iterator@DU?$char_traits@D@std@@@std@@@std@@MEBA?AV?$ostreambuf_iterator@DU?$char_traits@D@std@@@2@V32@AEAVios_base@2@D_N@Z 00000001800319ac     jsmsc.obj
 0002:0000e9c4       $chain$2$?do_put@?$num_put@DV?$ostreambuf_iterator@DU?$char_traits@D@std@@@std@@@std@@MEBA?AV?$ostreambuf_iterator@DU?$char_traits@D@std@@@2@V32@AEAVios_base@2@D_N@Z 00000001800319c4     jsmsc.obj
 0002:0000e9d8       $chain$3$?do_put@?$num_put@DV?$ostreambuf_iterator@DU?$char_traits@D@std@@@std@@@std@@MEBA?AV?$ostreambuf_iterator@DU?$char_traits@D@std@@@2@V32@AEAVios_base@2@D_N@Z 00000001800319d8     jsmsc.obj
 0002:0000e9e8       $chain$4$?do_put@?$num_put@DV?$ostreambuf_iterator@DU?$char_traits@D@std@@@std@@@std@@MEBA?AV?$ostreambuf_iterator@DU?$char_traits@D@std@@@2@V32@AEAVios_base@2@D_N@Z 00000001800319e8     jsmsc.obj
 0002:0000e9f8       $chain$5$?do_put@?$num_put@DV?$ostreambuf_iterator@DU?$char_traits@D@std@@@std@@@std@@MEBA?AV?$ostreambuf_iterator@DU?$char_traits@D@std@@@2@V32@AEAVios_base@2@D_N@Z 00000001800319f8     jsmsc.obj
 0002:0000ea10       $unwind$_RTC_Initialize    0000000180031a10     LIBCMT:_initsect_.obj
 0002:0000ea10       $unwind$??R<lambda_ad1ced32f4ac17aa236e5ef05d6b3b7c>@@QEBAXXZ 0000000180031a10     libucrt:mbctype.obj
 0002:0000ea10       $unwind$__vcrt_getptd_noexit 0000000180031a10     libvcruntime:per_thread_data.obj
 0002:0000ea10       $unwind$?underflow@?$basic_filebuf@DU?$char_traits@D@std@@@std@@MEAAHXZ 0000000180031a10     libcpmt:cout.obj
 0002:0000ea10       $unwind$??R<lambda_532e024f4337e6fc7ad266c2bef9f4ed>@@QEBA_KXZ 0000000180031a10     libucrt:fwrite.obj
 0002:0000ea10       $unwind$??0_Init_locks@std@@QEAA@XZ 0000000180031a10     libcpmt:xlock.obj
 0002:0000ea10       $unwind$?__scrt_initialize_thread_safe_statics@@YAHXZ 0000000180031a10     LIBCMT:thread_safe_statics.obj
 0002:0000ea10       $unwind$__acrt_FlsSetValue 0000000180031a10     libucrt:winapi_thunks.obj
 0002:0000ea10       $unwind$_RTC_Terminate     0000000180031a10     LIBCMT:_initsect_.obj
 0002:0000ea10       $unwind$??$common_lseek_nolock@_J@@YA_JH_JH@Z 0000000180031a10     libucrt:lseek.obj
 0002:0000ea10       $unwind$_initterm_e        0000000180031a10     libucrt:initterm.obj
 0002:0000ea10       $unwind$__acrt_GetUserDefaultLocaleName 0000000180031a10     libucrt:winapi_thunks.obj
 0002:0000ea10       $unwind$__acrt_stdio_flush_nolock 0000000180031a10     libucrt:fflush.obj
 0002:0000ea10       $unwind$?free_crt_array_internal@@YAXQEAPEBX_K@Z 0000000180031a10     libucrt:inittime.obj
 0002:0000ea10       $unwind$_Getcvt            0000000180031a10     libcpmt:xwctomb.obj
 0002:0000ea10       $unwind$?TraceLoggingRegister@__vcrt_trace_logging_provider@@YAJPEBU_TlgProvider_t@1@PEBU_GUID@@P6AX1KE_K2PEAU_EVENT_FILTER_DESCRIPTOR@@PEAX@Z4@Z 0000000180031a10     libvcruntime:telemetry.obj
 0002:0000ea10       $unwind$__acrt_execute_uninitializers 0000000180031a10     libucrt:shared_initialization.obj
 0002:0000ea10       $unwind$?sync@?$basic_filebuf@DU?$char_traits@D@std@@@std@@MEAAHXZ 0000000180031a10     libcpmt:cout.obj
 0002:0000ea10       $unwind$?type_case_Z@?$output_processor@DV?$string_output_adapter@D@__crt_stdio_output@@V?$format_validation_base@DV?$string_output_adapter@D@__crt_stdio_output@@@2@@__crt_stdio_output@@AEAA_NXZ 0000000180031a10     libucrt:output.obj
 0002:0000ea10       $unwind$?put@?$basic_ostream@DU?$char_traits@D@std@@@std@@QEAAAEAV12@D@Z 0000000180031a10     jsmsc.obj
 0002:0000ea10       $unwind$_Init_thread_wait  0000000180031a10     LIBCMT:thread_safe_statics.obj
 0002:0000ea10       $unwind$??4?$_Yarn@D@std@@QEAAAEAV01@PEBD@Z 0000000180031a10     libcpmt:locale0.obj
 0002:0000ea10       $unwind$__acrt_getptd_noexit 0000000180031a10     libucrt:per_thread_data.obj
 0002:0000ea10       $unwind$?assign@?$basic_string@DU?$char_traits@D@std@@V?$allocator@D@2@@std@@QEAAAEAV12@_KD@Z 0000000180031a10     jsmsc.obj
 0002:0000ea10       $unwind$memcpy_s           0000000180031a10     libucrt:cfout.obj
 0002:0000ea10       $unwind$?assign@?$basic_string@DU?$char_traits@D@std@@V?$allocator@D@2@@std@@QEAAAEAV12@PEBD_K@Z 0000000180031a10     jsmsc.obj
 0002:0000ea10       $unwind$__vcrt_FlsSetValue 0000000180031a10     libvcruntime:winapi_downlevel.obj
 0002:0000ea10       $unwind$?type_case_n@?$output_processor@DV?$string_output_adapter@D@__crt_stdio_output@@V?$format_validation_base@DV?$string_output_adapter@D@__crt_stdio_output@@@2@@__crt_stdio_output@@AEAA_NXZ 0000000180031a10     libucrt:output.obj
 0002:0000ea10       $unwind$__acrt_LocaleNameToLCID 0000000180031a10     libucrt:winapi_thunks.obj
 0002:0000ea10       $unwind$?type_case_s@?$output_processor@DV?$string_output_adapter@D@__crt_stdio_output@@V?$format_validation_base@DV?$string_output_adapter@D@__crt_stdio_output@@@2@@__crt_stdio_output@@AEAA_NXZ 0000000180031a10     libucrt:output.obj
 0002:0000ea10       $unwind$?_Initcvt@?$basic_filebuf@DU?$char_traits@D@std@@@std@@IEAAXPEBV?$codecvt@DDU_Mbstatet@@@2@@Z 0000000180031a10     libcpmt:cout.obj
 0002:0000ea10       $unwind$_DllMainCRTStartup 0000000180031a10     LIBCMT:dll_dllmain.obj
 0002:0000ea10       $unwind$?_Tidy@ios_base@std@@AEAAXXZ 0000000180031a10     libcpmt:ios.obj
 0002:0000ea10       $unwind$__acrt_stdio_flush_and_write_narrow_nolock 0000000180031a10     libucrt:_flsbuf.obj
 0002:0000ea10       $unwind$_exception_enabled 0000000180031a10     libucrt:libm_error.obj
 0002:0000ea20       $unwind$__scrt_dllmain_exception_filter 0000000180031a20     LIBCMT:utility.obj
 0002:0000ea20       $unwind$__acrt_free_locale 0000000180031a20     libucrt:locale_refcounting.obj
 0002:0000ea20       $unwind$??$ensure_buffer_is_big_enough@D@formatting_buffer@__crt_stdio_output@@QEAA_N_K@Z 0000000180031a20     libucrt:output.obj
 0002:0000ea20       $unwind$?process@?$output_processor@DV?$string_output_adapter@D@__crt_stdio_output@@V?$format_validation_base@DV?$string_output_adapter@D@__crt_stdio_output@@@2@@__crt_stdio_output@@QEAAHXZ 0000000180031a20     libucrt:output.obj
 0002:0000ea20       $unwind$__acrt_lowio_create_handle_array 0000000180031a20     libucrt:osfinfo.obj
 0002:0000ea20       $unwind$?assign@?$basic_string@DU?$char_traits@D@std@@V?$allocator@D@2@@std@@QEAAAEAV12@AEBV12@_K1@Z 0000000180031a20     jsmsc.obj
 0002:0000ea20       $unwind$_recalloc_base     0000000180031a20     libucrt:recalloc.obj
 0002:0000ea20       $unwind$?setSBCS@@YAXPEAU__crt_multibyte_data@@@Z 0000000180031a20     libucrt:mbctype.obj
 0002:0000ea20       $unwind$?dllmain_raw@@YAHQEAUHINSTANCE__@@KQEAX@Z 0000000180031a20     LIBCMT:dll_dllmain.obj
 0002:0000ea20       $unwind$__acrt_execute_initializers 0000000180031a20     libucrt:shared_initialization.obj
 0002:0000ea20       $unwind$__acrt_InitializeCriticalSectionEx 0000000180031a20     libucrt:winapi_thunks.obj
 0002:0000ea20       $unwind$__vcrt_InitializeCriticalSectionEx 0000000180031a20     libvcruntime:winapi_downlevel.obj
 0002:0000ea20       $unwind$_seh_filter_exe    0000000180031a20     libucrt:exception_filter.obj
 0002:0000ea20       $unwind$__crtInitializeCriticalSectionEx 0000000180031a20     libcpmt:winapisupp.obj
 0002:0000ea34       $unwind$?append@?$basic_string@DU?$char_traits@D@std@@V?$allocator@D@2@@std@@QEAAAEAV12@_KD@Z 0000000180031a34     jsmsc.obj
 0002:0000ea34       $unwind$?append@?$basic_string@DU?$char_traits@D@std@@V?$allocator@D@2@@std@@QEAAAEAV12@PEBD_K@Z 0000000180031a34     jsmsc.obj
 0002:0000ea44       $chain$0$?append@?$basic_string@DU?$char_traits@D@std@@V?$allocator@D@2@@std@@QEAAAEAV12@PEBD_K@Z 0000000180031a44     jsmsc.obj
 0002:0000ea58       $chain$1$?append@?$basic_string@DU?$char_traits@D@std@@V?$allocator@D@2@@std@@QEAAAEAV12@PEBD_K@Z 0000000180031a58     jsmsc.obj
 0002:0000ea68       $chain$2$?append@?$basic_string@DU?$char_traits@D@std@@V?$allocator@D@2@@std@@QEAAAEAV12@PEBD_K@Z 0000000180031a68     jsmsc.obj
 0002:0000ea7c       $unwind$?append@?$basic_string@DU?$char_traits@D@std@@V?$allocator@D@2@@std@@QEAAAEAV12@AEBV12@_K1@Z 0000000180031a7c     jsmsc.obj
 0002:0000ea90       $chain$0$?append@?$basic_string@DU?$char_traits@D@std@@V?$allocator@D@2@@std@@QEAAAEAV12@AEBV12@_K1@Z 0000000180031a90     jsmsc.obj
 0002:0000eaa4       $chain$1$?append@?$basic_string@DU?$char_traits@D@std@@V?$allocator@D@2@@std@@QEAAAEAV12@AEBV12@_K1@Z 0000000180031aa4     jsmsc.obj
 0002:0000eab4       $chain$2$?append@?$basic_string@DU?$char_traits@D@std@@V?$allocator@D@2@@std@@QEAAAEAV12@AEBV12@_K1@Z 0000000180031ab4     jsmsc.obj
 0002:0000eac8       $unwind$?_Iput@?$num_put@DV?$ostreambuf_iterator@DU?$char_traits@D@std@@@std@@@std@@AEBA?AV?$ostreambuf_iterator@DU?$char_traits@D@std@@@2@V32@AEAVios_base@2@DPEAD_K@Z 0000000180031ac8     jsmsc.obj
 0002:0000eaec       $unwind$?_Fput@?$num_put@DV?$ostreambuf_iterator@DU?$char_traits@D@std@@@std@@@std@@AEBA?AV?$ostreambuf_iterator@DU?$char_traits@D@std@@@2@V32@AEAVios_base@2@DPEBD_K@Z 0000000180031aec     jsmsc.obj
 0002:0000eb10       $chain$0$?append@?$basic_string@DU?$char_traits@D@std@@V?$allocator@D@2@@std@@QEAAAEAV12@_KD@Z 0000000180031b10     jsmsc.obj
 0002:0000eb24       $chain$1$?append@?$basic_string@DU?$char_traits@D@std@@V?$allocator@D@2@@std@@QEAAAEAV12@_KD@Z 0000000180031b24     jsmsc.obj
 0002:0000eb34       $chain$2$?append@?$basic_string@DU?$char_traits@D@std@@V?$allocator@D@2@@std@@QEAAAEAV12@_KD@Z 0000000180031b34     jsmsc.obj
 0002:0000eb48       $chain$0$?flush@?$basic_ostream@DU?$char_traits@D@std@@@std@@QEAAAEAV12@XZ 0000000180031b48     jsmsc.obj
 0002:0000eb5c       $chain$1$?flush@?$basic_ostream@DU?$char_traits@D@std@@@std@@QEAAAEAV12@XZ 0000000180031b5c     jsmsc.obj
 0002:0000eb6c       $unwind$?_Copy@?$basic_string@DU?$char_traits@D@std@@V?$allocator@D@2@@std@@QEAAX_K0@Z 0000000180031b6c     jsmsc.obj
 0002:0000eb80       $unwind$??$use_facet@V?$numpunct@D@std@@@std@@YAAEBV?$numpunct@D@0@AEBVlocale@0@@Z 0000000180031b80     jsmsc.obj
 0002:0000eb80       $unwind$??$use_facet@V?$ctype@D@std@@@std@@YAAEBV?$ctype@D@0@AEBVlocale@0@@Z 0000000180031b80     jsmsc.obj
 0002:0000eb90       $unwind$??$?6U?$char_traits@D@std@@@std@@YAAEAV?$basic_ostream@DU?$char_traits@D@std@@@0@AEAV10@PEBD@Z 0000000180031b90     jsmsc.obj
 0002:0000eb98       $chain$3$??$?6U?$char_traits@D@std@@@std@@YAAEAV?$basic_ostream@DU?$char_traits@D@std@@@0@AEAV10@PEBD@Z 0000000180031b98     jsmsc.obj
 0002:0000ebb8       $chain$4$??$?6U?$char_traits@D@std@@@std@@YAAEAV?$basic_ostream@DU?$char_traits@D@std@@@0@AEAV10@PEBD@Z 0000000180031bb8     jsmsc.obj
 0002:0000ebcc       $chain$5$??$?6U?$char_traits@D@std@@@std@@YAAEAV?$basic_ostream@DU?$char_traits@D@std@@@0@AEAV10@PEBD@Z 0000000180031bcc     jsmsc.obj
 0002:0000ebdc       $unwind$??$NODE_SET_METHOD@V?$Local@VObject@v8@@@v8@@@node@@YAXAEBV?$Local@VObject@v8@@@v8@@PEBDP6AXAEBV?$FunctionCallbackInfo@VValue@v8@@@2@@Z@Z 0000000180031bdc     jsmsc.obj
 0002:0000ebe8       $unwind$??$use_facet@V?$num_put@DV?$ostreambuf_iterator@DU?$char_traits@D@std@@@std@@@std@@@std@@YAAEBV?$num_put@DV?$ostreambuf_iterator@DU?$char_traits@D@std@@@std@@@0@AEBVlocale@0@@Z 0000000180031be8     jsmsc.obj
 0002:0000ebfc       $unwind$?_Getcat@?$numpunct@D@std@@SA_KPEAPEBVfacet@locale@2@PEBV42@@Z 0000000180031bfc     jsmsc.obj
 0002:0000ec0c       $chain$0$?_Getcat@?$numpunct@D@std@@SA_KPEAPEBVfacet@locale@2@PEBV42@@Z 0000000180031c0c     jsmsc.obj
 0002:0000ec20       $chain$1$?_Getcat@?$numpunct@D@std@@SA_KPEAPEBVfacet@locale@2@PEBV42@@Z 0000000180031c20     jsmsc.obj
 0002:0000ec30       $unwind$__acrt_copy_locale_name 0000000180031c30     libucrt:wsetlocale.obj
 0002:0000ec30       $unwind$?widen@?$basic_ios@DU?$char_traits@D@std@@@std@@QEBADD@Z 0000000180031c30     jsmsc.obj
 0002:0000ec40       $unwind$?_Init@?$numpunct@D@std@@IEAAXAEBV_Locinfo@2@_N@Z 0000000180031c40     jsmsc.obj
 0002:0000ec58       xdata                      0000000180031c58     node:node.exe
 0002:0000ec60       $xdatasym                  0000000180031c60     LIBCMT:_amdsecgs_.obj
 0002:0000ec64       $unwind$__scrt_is_nonwritable_in_current_image 0000000180031c64     LIBCMT:utility.obj
 0002:0000ec84       $unwind$__scrt_is_nonwritable_in_current_image$filt$0 0000000180031c84     LIBCMT:utility.obj
 0002:0000ec8c       $unwind$__scrt_initialize_onexit_tables 0000000180031c8c     LIBCMT:utility.obj
 0002:0000ec98       $unwind$?dllmain_crt_process_attach@@YAHQEAUHINSTANCE__@@QEAX@Z 0000000180031c98     LIBCMT:dll_dllmain.obj
 0002:0000ecc4       $unwind$?dllmain_crt_process_detach@@YAH_N@Z 0000000180031cc4     LIBCMT:dll_dllmain.obj
 0002:0000ecec       $unwind$?dllmain_dispatch@@YAHQEAUHINSTANCE__@@KQEAX@Z 0000000180031cec     LIBCMT:dll_dllmain.obj
 0002:0000ed14       $unwind$__report_securityfailure 0000000180031d14     LIBCMT:gs_report.obj
 0002:0000ed1c       $unwind$__report_gsfailure 0000000180031d1c     LIBCMT:gs_report.obj
 0002:0000ed1c       $unwind$_putwch_nolock     0000000180031d1c     libucrt:putwch.obj
 0002:0000ed24       $unwind$capture_current_context 0000000180031d24     LIBCMT:gs_report.obj
 0002:0000ed30       $unwind$capture_previous_context 0000000180031d30     LIBCMT:gs_report.obj
 0002:0000ed3c       $unwind$__scrt_fastfail    0000000180031d3c     LIBCMT:utility_desktop.obj
 0002:0000ed4c       $unwind$_raise_exc         0000000180031d4c     libucrt:fpexcept.obj
 0002:0000ed4c       $unwind$?_Xlength_error@std@@YAXPEBD@Z 0000000180031d4c     libcpmt:xthrow.obj
 0002:0000ed4c       $unwind$?__scrt_throw_std_bad_alloc@@YAXXZ 0000000180031d4c     LIBCMT:throw_bad_alloc.obj
 0002:0000ed4c       $unwind$?_Xout_of_range@std@@YAXPEBD@Z 0000000180031d4c     libcpmt:xthrow.obj
 0002:0000ed4c       $unwind$?__scrt_throw_std_bad_array_new_length@@YAXXZ 0000000180031d4c     LIBCMT:throw_bad_alloc.obj
 0002:0000ed4c       $unwind$?_Xbad_alloc@std@@YAXXZ 0000000180031d4c     libcpmt:xthrow.obj
 0002:0000ed4c       $unwind$__dcrt_lowio_initialize_console_output 0000000180031d4c     libucrt:initcon.obj
 0002:0000ed54       $unwind$__isa_available_init 0000000180031d54     LIBCMT:_cpu_disp_.obj
 0002:0000ed60       $unwind$__security_init_cookie 0000000180031d60     LIBCMT:gs_support.obj
 0002:0000ed70       $xdatasym                  0000000180031d70     LIBCMT:_guard_dispatch_.obj
 0002:0000ed74       $unwind$??_Glocale@std@@QEAAPEAXI@Z 0000000180031d74     libcpmt:cout.obj
 0002:0000ed90       $stateUnwindMap$??_Glocale@std@@QEAAPEAXI@Z 0000000180031d90     libcpmt:cout.obj
 0002:0000ed90       $stateUnwindMap$??0?$basic_streambuf@DU?$char_traits@D@std@@@std@@IEAA@XZ 0000000180031d90     libcpmt:cout.obj
 0002:0000ed90       $stateUnwindMap$?_Init@ios_base@std@@IEAAXXZ 0000000180031d90     libcpmt:cout.obj
 0002:0000ed90       $stateUnwindMap$??_G_Fac_node@std@@QEAAPEAXI@Z 0000000180031d90     libcpmt:locale0.obj
 0002:0000ed90       $stateUnwindMap$??1?$basic_ios@DU?$char_traits@D@std@@@std@@UEAA@XZ 0000000180031d90     libcpmt:cout.obj
 0002:0000ed90       $stateUnwindMap$??_G_Locimp@locale@std@@MEAAPEAXI@Z 0000000180031d90     libcpmt:locale0.obj
 0002:0000ed90       $stateUnwindMap$??__Fclassic_locale@std@@YAXXZ 0000000180031d90     libcpmt:locale0.obj
 0002:0000ed90       $stateUnwindMap$??__Finit_atexit@@YAXXZ 0000000180031d90     libcpmt:iosptrs.obj
 0002:0000ed90       $stateUnwindMap$??_Gios_base@std@@UEAAPEAXI@Z 0000000180031d90     libcpmt:cout.obj
 0002:0000ed98       $ip2state$??_Glocale@std@@QEAAPEAXI@Z 0000000180031d98     libcpmt:cout.obj
 0002:0000edb0       $unwind$?_Init@ios_base@std@@IEAAXXZ 0000000180031db0     libcpmt:cout.obj
 0002:0000edc8       $ip2state$?_Init@ios_base@std@@IEAAXXZ 0000000180031dc8     libcpmt:cout.obj
 0002:0000ede0       $unwind$??_Gios_base@std@@UEAAPEAXI@Z 0000000180031de0     libcpmt:cout.obj
 0002:0000edf8       $ip2state$??_Gios_base@std@@UEAAPEAXI@Z 0000000180031df8     libcpmt:cout.obj
 0002:0000ee10       $unwind$??0?$basic_streambuf@DU?$char_traits@D@std@@@std@@IEAA@XZ 0000000180031e10     libcpmt:cout.obj
 0002:0000ee28       $ip2state$??0?$basic_streambuf@DU?$char_traits@D@std@@@std@@IEAA@XZ 0000000180031e28     libcpmt:cout.obj
 0002:0000ee40       $unwind$?xsputn@?$basic_streambuf@DU?$char_traits@D@std@@@std@@MEAA_JPEBD_J@Z 0000000180031e40     libcpmt:cout.obj
 0002:0000ee58       $unwind$??1?$basic_filebuf@DU?$char_traits@D@std@@@std@@UEAA@XZ 0000000180031e58     libcpmt:cout.obj
 0002:0000ee68       $ip2state$??1?$basic_filebuf@DU?$char_traits@D@std@@@std@@UEAA@XZ 0000000180031e68     libcpmt:cout.obj
 0002:0000ee70       $unwind$?overflow@?$basic_filebuf@DU?$char_traits@D@std@@@std@@MEAAHH@Z 0000000180031e70     libcpmt:cout.obj
 0002:0000ee98       $stateUnwindMap$?uflow@?$basic_filebuf@DU?$char_traits@D@std@@@std@@MEAAHXZ 0000000180031e98     libcpmt:cout.obj
 0002:0000ee98       $stateUnwindMap$?overflow@?$basic_filebuf@DU?$char_traits@D@std@@@std@@MEAAHH@Z 0000000180031e98     libcpmt:cout.obj
 0002:0000eea0       $ip2state$?overflow@?$basic_filebuf@DU?$char_traits@D@std@@@std@@MEAAHH@Z 0000000180031ea0     libcpmt:cout.obj
 0002:0000eeb8       $unwind$?uflow@?$basic_filebuf@DU?$char_traits@D@std@@@std@@MEAAHXZ 0000000180031eb8     libcpmt:cout.obj
 0002:0000eee8       $ip2state$?uflow@?$basic_filebuf@DU?$char_traits@D@std@@@std@@MEAAHXZ 0000000180031ee8     libcpmt:cout.obj
 0002:0000ef00       $unwind$?seekoff@?$basic_filebuf@DU?$char_traits@D@std@@@std@@MEAA?AV?$fpos@U_Mbstatet@@@2@_JHH@Z 0000000180031f00     libcpmt:cout.obj
 0002:0000ef14       $unwind$?seekpos@?$basic_filebuf@DU?$char_traits@D@std@@@std@@MEAA?AV?$fpos@U_Mbstatet@@@2@V32@H@Z 0000000180031f14     libcpmt:cout.obj
 0002:0000ef28       $unwind$?_Init@?$basic_filebuf@DU?$char_traits@D@std@@@std@@IEAAXPEAU_iobuf@@W4_Initfl@12@@Z 0000000180031f28     libcpmt:cout.obj
 0002:0000ef34       $unwind$?_Endwrite@?$basic_filebuf@DU?$char_traits@D@std@@@std@@IEAA_NXZ 0000000180031f34     libcpmt:cout.obj
 0002:0000ef5c       $stateUnwindMap$?_Endwrite@?$basic_filebuf@DU?$char_traits@D@std@@@std@@IEAA_NXZ 0000000180031f5c     libcpmt:cout.obj
 0002:0000ef68       $ip2state$?_Endwrite@?$basic_filebuf@DU?$char_traits@D@std@@@std@@IEAA_NXZ 0000000180031f68     libcpmt:cout.obj
 0002:0000ef80       $unwind$??1?$basic_ios@DU?$char_traits@D@std@@@std@@UEAA@XZ 0000000180031f80     libcpmt:cout.obj
 0002:0000ef90       $ip2state$??1?$basic_ios@DU?$char_traits@D@std@@@std@@UEAA@XZ 0000000180031f90     libcpmt:cout.obj
 0002:0000efa8       $unwind$??_G?$basic_ios@DU?$char_traits@D@std@@@std@@UEAAPEAXI@Z 0000000180031fa8     libcpmt:cout.obj
 0002:0000efbc       $stateUnwindMap$??_G?$basic_ios@DU?$char_traits@D@std@@@std@@UEAAPEAXI@Z 0000000180031fbc     libcpmt:cout.obj
 0002:0000efd0       $ip2state$??_G?$basic_ios@DU?$char_traits@D@std@@@std@@UEAAPEAXI@Z 0000000180031fd0     libcpmt:cout.obj
 0002:0000efe8       $unwind$??0?$basic_ostream@DU?$char_traits@D@std@@@std@@QEAA@PEAV?$basic_streambuf@DU?$char_traits@D@std@@@1@_N@Z 0000000180031fe8     libcpmt:cout.obj
 0002:0000f000       $stateUnwindMap$??0?$basic_ostream@DU?$char_traits@D@std@@@std@@QEAA@PEAV?$basic_streambuf@DU?$char_traits@D@std@@@1@_N@Z 0000000180032000     libcpmt:cout.obj
 0002:0000f008       $ip2state$??0?$basic_ostream@DU?$char_traits@D@std@@@std@@QEAA@PEAV?$basic_streambuf@DU?$char_traits@D@std@@@1@_N@Z 0000000180032008     libcpmt:cout.obj
 0002:0000f020       $unwind$??_G?$basic_ostream@DU?$char_traits@D@std@@@std@@UEAAPEAXI@Z 0000000180032020     libcpmt:cout.obj
 0002:0000f034       $stateUnwindMap$??_G?$basic_ostream@DU?$char_traits@D@std@@@std@@UEAAPEAXI@Z 0000000180032034     libcpmt:cout.obj
 0002:0000f034       $stateUnwindMap$??__Fcout@std@@YAXXZ 0000000180032034     libcpmt:cout.obj
 0002:0000f050       $ip2state$??_G?$basic_ostream@DU?$char_traits@D@std@@@std@@UEAAPEAXI@Z 0000000180032050     libcpmt:cout.obj
 0002:0000f070       $unwind$??__Fcout@std@@YAXXZ 0000000180032070     libcpmt:cout.obj
 0002:0000f080       $ip2state$??__Fcout@std@@YAXXZ 0000000180032080     libcpmt:cout.obj
 0002:0000f0a0       $unwind$??$use_facet@V?$codecvt@DDU_Mbstatet@@@std@@@std@@YAAEBV?$codecvt@DDU_Mbstatet@@@0@AEBVlocale@0@@Z 00000001800320a0     libcpmt:cout.obj
 0002:0000f0b8       $stateUnwindMap$??$use_facet@V?$codecvt@DDU_Mbstatet@@@std@@@std@@YAAEBV?$codecvt@DDU_Mbstatet@@@0@AEBVlocale@0@@Z 00000001800320b8     libcpmt:cout.obj
 0002:0000f0c0       $ip2state$??$use_facet@V?$codecvt@DDU_Mbstatet@@@std@@@std@@YAAEBV?$codecvt@DDU_Mbstatet@@@0@AEBVlocale@0@@Z 00000001800320c0     libcpmt:cout.obj
 0002:0000f0d8       $unwind$?_Getcat@?$codecvt@DDU_Mbstatet@@@std@@SA_KPEAPEBVfacet@locale@2@PEBV42@@Z 00000001800320d8     libcpmt:cout.obj
 0002:0000f0f8       $stateUnwindMap$?_Getcat@?$codecvt@DDU_Mbstatet@@@std@@SA_KPEAPEBVfacet@locale@2@PEBV42@@Z 00000001800320f8     libcpmt:cout.obj
 0002:0000f100       $ip2state$?_Getcat@?$codecvt@DDU_Mbstatet@@@std@@SA_KPEAPEBVfacet@locale@2@PEBV42@@Z 0000000180032100     libcpmt:cout.obj
 0002:0000f118       $unwind$??_G_Fac_node@std@@QEAAPEAXI@Z 0000000180032118     libcpmt:locale0.obj
 0002:0000f138       $ip2state$??_G_Fac_node@std@@QEAAPEAXI@Z 0000000180032138     libcpmt:locale0.obj
 0002:0000f150       $unwind$?_Locimp_dtor@_Locimp@locale@std@@CAXPEAV123@@Z 0000000180032150     libcpmt:locale0.obj
 0002:0000f16c       $stateUnwindMap$?_Locimp_dtor@_Locimp@locale@std@@CAXPEAV123@@Z 000000018003216c     libcpmt:locale0.obj
 0002:0000f16c       $stateUnwindMap$?_Init@locale@std@@CAPEAV_Locimp@12@_N@Z 000000018003216c     libcpmt:locale0.obj
 0002:0000f178       $ip2state$?_Locimp_dtor@_Locimp@locale@std@@CAXPEAV123@@Z 0000000180032178     libcpmt:locale0.obj
 0002:0000f190       $unwind$??_G_Locimp@locale@std@@MEAAPEAXI@Z 0000000180032190     libcpmt:locale0.obj
 0002:0000f1a8       $ip2state$??_G_Locimp@locale@std@@MEAAPEAXI@Z 00000001800321a8     libcpmt:locale0.obj
 0002:0000f1c0       $unwind$?_Init@locale@std@@CAPEAV_Locimp@12@_N@Z 00000001800321c0     libcpmt:locale0.obj
 0002:0000f1d8       $ip2state$?_Init@locale@std@@CAPEAV_Locimp@12@_N@Z 00000001800321d8     libcpmt:locale0.obj
 0002:0000f1f0       $unwind$??__Fclassic_locale@std@@YAXXZ 00000001800321f0     libcpmt:locale0.obj
 0002:0000f208       $ip2state$??__Fclassic_locale@std@@YAXXZ 0000000180032208     libcpmt:locale0.obj
 0002:0000f220       $unwind$_Tolower           0000000180032220     libcpmt:_tolower.obj
 0002:0000f230       $unwind$_Toupper           0000000180032230     libcpmt:_toupper.obj
 0002:0000f244       $unwind$??__Finit_atexit@@YAXXZ 0000000180032244     libcpmt:iosptrs.obj
 0002:0000f258       $ip2state$??__Finit_atexit@@YAXXZ 0000000180032258     libcpmt:iosptrs.obj
 0002:0000f270       $unwind$__crtLCMapStringA  0000000180032270     libcpmt:StlLCMapStringA.obj
 0002:0000f298       $xdatasym                  0000000180032298     libvcruntime:memcpy.obj
 0002:0000f29c       $unwind$?xsgetn@?$basic_streambuf@DU?$char_traits@D@std@@@std@@MEAA_JPEAD_J@Z 000000018003229c     libcpmt:cout.obj
 0002:0000f29c       $unwind$__vcrt_EventRegister 000000018003229c     libvcruntime:winapi_downlevel.obj
 0002:0000f29c       $unwind$__TypeMatch        000000018003229c     libvcruntime:frame.obj
 0002:0000f29c       $unwind$__GSHandlerCheck_EH 000000018003229c     LIBCMT:gshandlereh.obj
 0002:0000f29c       $unwind$_initterm          000000018003229c     libucrt:initterm.obj
 0002:0000f29c       $unwind$__vcrt_EventSetInformation 000000018003229c     libvcruntime:winapi_downlevel.obj
 0002:0000f29c       $unwind$TranslateName      000000018003229c     libucrt:getqloc_downlevel.obj
 0002:0000f29c       $unwind$__acrt_initialize_stdio 000000018003229c     libucrt:_file.obj
 0002:0000f29c       $unwind$__acrt_GetLocaleInfoEx 000000018003229c     libucrt:winapi_thunks.obj
 0002:0000f29c       $unwind$__acrt_LCIDToLocaleName 000000018003229c     libucrt:winapi_thunks.obj
 0002:0000f29c       $unwind$GetTableIndexFromLocaleName 000000018003229c     libcpmt:winapinls.obj
 0002:0000f2b4       $unwind$__acrt_initialize_winapi_thunks 00000001800322b4     libucrt:winapi_thunks.obj
 0002:0000f2b4       $unwind$__vcrt_initialize_winapi_thunks 00000001800322b4     libvcruntime:winapi_downlevel.obj
 0002:0000f2bc       $unwind$__vcrt_uninitialize_winapi_thunks 00000001800322bc     libvcruntime:winapi_downlevel.obj
 0002:0000f2bc       $unwind$__acrt_stdio_end_temporary_buffering_nolock 00000001800322bc     libucrt:_sftbuf.obj
 0002:0000f2c4       $unwind$__telemetry_main_invoke_trigger 00000001800322c4     libvcruntime:telemetry.obj
 0002:0000f2c4       $unwind$__telemetry_main_return_trigger 00000001800322c4     libvcruntime:telemetry.obj
 0002:0000f2dc       $unwind$?_TlgEnableCallback@__vcrt_trace_logging_provider@@YAXPEBU_GUID@@KE_K1PEAU_EVENT_FILTER_DESCRIPTOR@@PEAX@Z 00000001800322dc     libvcruntime:telemetry.obj
 0002:0000f2f8       $xdatasym                  00000001800322f8     libvcruntime:memset.obj
 0002:0000f2fc       $unwind$_CxxThrowException 00000001800322fc     libvcruntime:throw.obj
 0002:0000f310       $unwind$__CxxCallCatchBlock 0000000180032310     libvcruntime:frame.obj
 0002:0000f34c       $unwind$__CxxCallCatchBlock$fin$1 000000018003234c     libvcruntime:frame.obj
 0002:0000f358       $unwind$__FrameUnwindToState 0000000180032358     libvcruntime:frame.obj
 0002:0000f394       $unwind$?FindHandler@@YAXPEAUEHExceptionRecord@@PEA_KPEAU_CONTEXT@@PEAU_xDISPATCHER_CONTEXT@@PEBU_s_FuncInfo@@EH1@Z 0000000180032394     libvcruntime:frame.obj
 0002:0000f3b4       $unwind$?CatchIt@@YAXPEAUEHExceptionRecord@@PEA_KPEAU_CONTEXT@@PEAU_xDISPATCHER_CONTEXT@@PEBU_s_FuncInfo@@PEBU_s_HandlerType@@PEBU_s_CatchableType@@PEBU_s_TryBlockMapEntry@@H1EE@Z 00000001800323b4     libvcruntime:frame.obj
 0002:0000f3cc       $unwind$__BuildCatchObject 00000001800323cc     libvcruntime:frame.obj
 0002:0000f3f8       $unwind$?FindHandlerForForeignException@@YAXPEAUEHExceptionRecord@@PEA_KPEAU_CONTEXT@@PEAU_xDISPATCHER_CONTEXT@@PEBU_s_FuncInfo@@HH1@Z 00000001800323f8     libvcruntime:frame.obj
 0002:0000f410       $unwind$__DestructExceptionObject 0000000180032410     libvcruntime:frame.obj
 0002:0000f434       $unwind$__BuildCatchObjectHelper 0000000180032434     libvcruntime:frame.obj
 0002:0000f474       $unwind$?_GetEstablisherFrame@@YAPEA_KPEA_KPEAU_xDISPATCHER_CONTEXT@@PEBU_s_FuncInfo@@0@Z 0000000180032474     libvcruntime:trnsctrl.obj
 0002:0000f48c       $unwind$?__FrameUnwindToEmptyState@@YAXPEA_KPEAU_xDISPATCHER_CONTEXT@@PEBU_s_FuncInfo@@@Z 000000018003248c     libvcruntime:trnsctrl.obj
 0002:0000f4a0       $unwind$_CallSETranslator  00000001800324a0     libvcruntime:trnsctrl.obj
 0002:0000f4c4       $unwind$_CallSETranslator$filt$0 00000001800324c4     libvcruntime:trnsctrl.obj
 0002:0000f4cc       $unwind$_UnwindNestedFrames 00000001800324cc     libvcruntime:trnsctrl.obj
 0002:0000f4e0       $unwind$__CxxFrameHandler3 00000001800324e0     libvcruntime:trnsctrl.obj
 0002:0000f4f0       $unwind$?__SehTransFilter@@YAHPEAU_EXCEPTION_POINTERS@@PEAUEHExceptionRecord@@PEA_KPEAU_CONTEXT@@PEAU_xDISPATCHER_CONTEXT@@PEBU_s_FuncInfo@@PEAH@Z 00000001800324f0     libvcruntime:trnsctrl.obj
 0002:0000f4f0       $unwind$_wcsicmp_l         00000001800324f0     libucrt:wcsicmp.obj
 0002:0000f508       $xdatasym                  0000000180032508     libvcruntime:memcmp.obj
 0002:0000f510       $xdatasym                  0000000180032510     libvcruntime:_jmpuwind_.obj
 0002:0000f528       $xdatasym                  0000000180032528     libvcruntime:handlers.obj
 0002:0000f530       $unwind$_invalid_parameter_noinfo_noreturn 0000000180032530     libucrt:invalid_parameter.obj
 0002:0000f530       $unwind$wctomb_s           0000000180032530     libucrt:wctomb.obj
 0002:0000f530       $unwind$_wtol              0000000180032530     libucrt:atox.obj
 0002:0000f530       $unwind$_itow_s            0000000180032530     libucrt:xtoa.obj
 0002:0000f530       $unwind$_log10_special     0000000180032530     libucrt:log_special.obj
 0002:0000f530       $unwind$_invalid_parameter_noinfo 0000000180032530     libucrt:invalid_parameter.obj
 0002:0000f530       $unwind$mbstowcs_s         0000000180032530     libucrt:mbstowcs.obj
 0002:0000f538       $unwind$__acrt_call_reportfault 0000000180032538     libucrt:invalid_parameter.obj
 0002:0000f558       $unwind$_invalid_parameter 0000000180032558     libucrt:invalid_parameter.obj
 0002:0000f558       $unwind$__vcrt_EventWriteTransfer 0000000180032558     libvcruntime:winapi_downlevel.obj
 0002:0000f570       $unwind$strcspn            0000000180032570     libucrt:strcspn.obj
 0002:0000f580       $unwind$??$common_vsprintf@Vformat_validation_base@__crt_stdio_output@@D@@YAH_KQEAD0QEBDQEAU__crt_locale_pointers@@1@Z 0000000180032580     libucrt:output.obj
 0002:0000f5a0       $unwind$?parse_int_from_format_string@?$output_processor@DV?$string_output_adapter@D@__crt_stdio_output@@V?$format_validation_base@DV?$string_output_adapter@D@__crt_stdio_output@@@2@@__crt_stdio_output@@AEAA_NQEAH@Z 00000001800325a0     libucrt:output.obj
 0002:0000f5b4       $unwind$?state_case_type@?$output_processor@DV?$string_output_adapter@D@__crt_stdio_output@@V?$format_validation_base@DV?$string_output_adapter@D@__crt_stdio_output@@@2@@__crt_stdio_output@@AEAA_NXZ 00000001800325b4     libucrt:output.obj
 0002:0000f5cc       $unwind$?type_case_a@?$output_processor@DV?$string_output_adapter@D@__crt_stdio_output@@V?$format_validation_base@DV?$string_output_adapter@D@__crt_stdio_output@@@2@@__crt_stdio_output@@AEAA_NXZ 00000001800325cc     libucrt:output.obj
 0002:0000f5d8       $unwind$?write_stored_string_tchar@?$output_processor@DV?$string_output_adapter@D@__crt_stdio_output@@V?$format_validation_base@DV?$string_output_adapter@D@__crt_stdio_output@@@2@@__crt_stdio_output@@AEAA_ND@Z 00000001800325d8     libucrt:output.obj
 0002:0000f5f0       $unwind$??$type_case_integer_parse_into_buffer@I@?$output_processor@DV?$string_output_adapter@D@__crt_stdio_output@@V?$format_validation_base@DV?$string_output_adapter@D@__crt_stdio_output@@@2@@__crt_stdio_output@@AEAAXII_N@Z 00000001800325f0     libucrt:output.obj
 0002:0000f5f0       $unwind$??$type_case_integer_parse_into_buffer@_K@?$output_processor@DV?$string_output_adapter@D@__crt_stdio_output@@V?$format_validation_base@DV?$string_output_adapter@D@__crt_stdio_output@@@2@@__crt_stdio_output@@AEAAX_KI_N@Z 00000001800325f0     libucrt:output.obj
 0002:0000f5f0       $unwind$??$write_multiple_characters@V?$string_output_adapter@D@__crt_stdio_output@@D@__crt_stdio_output@@YAXAEBV?$string_output_adapter@D@0@DHQEAH@Z 00000001800325f0     libucrt:output.obj
 0002:0000f5f8       $unwind$frexp              00000001800325f8     libucrt:frexp.obj
 0002:0000f60c       $unwind$round              000000018003260c     libucrt:round.obj
 0002:0000f614       $unwind$_query_new_handler 0000000180032614     libucrt:new_handler.obj
 0002:0000f634       $unwind$?common_exit@@YAXHW4_crt_exit_cleanup_mode@@W4_crt_exit_return_mode@@@Z 0000000180032634     libucrt:exit.obj
 0002:0000f674       $unwind$??$free_environment@D@@YAXQEAPEAD@Z 0000000180032674     libucrt:environment_initialization.obj
 0002:0000f674       $unwind$??$free_environment@_W@@YAXQEAPEA_W@Z 0000000180032674     libucrt:environment_initialization.obj
 0002:0000f680       $unwind$_register_onexit_function 0000000180032680     libucrt:onexit.obj
 0002:0000f688       $unwind$_execute_onexit_table 0000000180032688     libucrt:onexit.obj
 0002:0000f690       $unwind$?_GetRangeOfTrysToCheck@@YAPEBU_s_TryBlockMapEntry@@PEA_KPEBU_s_FuncInfo@@HHPEAI2PEAU_xDISPATCHER_CONTEXT@@@Z 0000000180032690     libvcruntime:trnsctrl.obj
 0002:0000f690       $unwind$?write_string@?$string_output_adapter@D@__crt_stdio_output@@QEBAXQEBDHQEAH1@Z 0000000180032690     libucrt:output.obj
 0002:0000f690       $unwind$TranslateName      0000000180032690     libucrt:get_qualified_locale.obj
 0002:0000f690       $unwind$??R<lambda_4e60a939b0d047cfe11ddc22648dfba9>@@QEBAHXZ 0000000180032690     libucrt:onexit.obj
 0002:0000f6ac       $unwind$??$?RV<lambda_b8c45f8f788dd370798f47cfe8ac3a86>@@AEAV<lambda_4e60a939b0d047cfe11ddc22648dfba9>@@V<lambda_332c3edc96d0294ec56c57d38c1cdfd5>@@@?$__crt_seh_guarded_call@H@@QEAAH$$QEAV<lambda_b8c45f8f788dd370798f47cfe8ac3a86>@@AEAV<lambda_4e60a939b0d047cfe11ddc22648dfba9>@@$$QEAV<lambda_332c3edc96d0294ec56c57d38c1cdfd5>@@@Z 00000001800326ac     libucrt:onexit.obj
 0002:0000f6d0       $unwind$??$?RV<lambda_e24bbb7b643b32fcea6fa61b31d4c984>@@AEAV<lambda_275893d493268fdec8709772e3fcec0e>@@V<lambda_9d71df4d7cf3f480f8d633942495c3b0>@@@?$__crt_seh_guarded_call@H@@QEAAH$$QEAV<lambda_e24bbb7b643b32fcea6fa61b31d4c984>@@AEAV<lambda_275893d493268fdec8709772e3fcec0e>@@$$QEAV<lambda_9d71df4d7cf3f480f8d633942495c3b0>@@@Z 00000001800326d0     libucrt:onexit.obj
 0002:0000f700       $unwind$terminate          0000000180032700     libucrt:terminate.obj
 0002:0000f720       $unwind$fclose             0000000180032720     libucrt:fclose.obj
 0002:0000f744       $unwind$fflush             0000000180032744     libucrt:fflush.obj
 0002:0000f768       $unwind$common_flush_all   0000000180032768     libucrt:fflush.obj
 0002:0000f7a4       $unwind$fgetc              00000001800327a4     libucrt:fgetc.obj
 0002:0000f7d8       $unwind$fputc              00000001800327d8     libucrt:fputc.obj
 0002:0000f80c       $unwind$?common_fseek_binary_mode_read_only_fast_track_nolock@@YA_NV__crt_stdio_stream@@_JH@Z 000000018003280c     libucrt:fseek.obj
 0002:0000f818       $unwind$_raise_exc_ex      0000000180032818     libucrt:fpexcept.obj
 0002:0000f818       $unwind$??$common_refill_and_read_nolock@D@@YAHV__crt_stdio_stream@@@Z 0000000180032818     libucrt:_filbuf.obj
 0002:0000f818       $unwind$?common_fseek_nolock@@YAHV__crt_stdio_stream@@_JH@Z 0000000180032818     libucrt:fseek.obj
 0002:0000f82c       $unwind$?common_fseek@@YAHV__crt_stdio_stream@@_JH@Z 000000018003282c     libucrt:fseek.obj
 0002:0000f850       $unwind$fwrite             0000000180032850     libucrt:fwrite.obj
 0002:0000f858       $unwind$??$?RV<lambda_5d4c3fee44080f75d5d9762853974fe0>@@AEAV<lambda_532e024f4337e6fc7ad266c2bef9f4ed>@@V<lambda_c87bdc10097eb2402edb8ba9bdf0697b>@@@?$__crt_seh_guarded_call@_K@@QEAA_K$$QEAV<lambda_5d4c3fee44080f75d5d9762853974fe0>@@AEAV<lambda_532e024f4337e6fc7ad266c2bef9f4ed>@@$$QEAV<lambda_c87bdc10097eb2402edb8ba9bdf0697b>@@@Z 0000000180032858     libucrt:fwrite.obj
 0002:0000f87c       $unwind$setvbuf            000000018003287c     libucrt:setvbuf.obj
 0002:0000f884       $unwind$??$?RV<lambda_7a5ef57ff966f610505f1d28a3d40618>@@AEAV<lambda_b721fa326cdb32351d23dfa67958c160>@@V<lambda_5e0fb27672408a07956fe59e48ccb2aa>@@@?$__crt_seh_guarded_call@H@@QEAAH$$QEAV<lambda_7a5ef57ff966f610505f1d28a3d40618>@@AEAV<lambda_b721fa326cdb32351d23dfa67958c160>@@$$QEAV<lambda_5e0fb27672408a07956fe59e48ccb2aa>@@@Z 0000000180032884     libucrt:setvbuf.obj
 0002:0000f8a8       $unwind$ungetc             00000001800328a8     libucrt:ungetc.obj
 0002:0000f8cc       $unwind$setlocale          00000001800328cc     libucrt:setlocale.obj
 0002:0000f8fc       $unwind$?filt$0@?0??dllmain_dispatch@@YAHQEAUHINSTANCE__@@KQEAX@Z@4HA 00000001800328fc     LIBCMT:dll_dllmain.obj
 0002:0000f8fc       $unwind$setlocale$fin$0    00000001800328fc     libucrt:setlocale.obj
 0002:0000f904       $unwind$call_wsetlocale    0000000180032904     libucrt:setlocale.obj
 0002:0000f918       $unwind$_isleadbyte_l      0000000180032918     libucrt:_wctype.obj
 0002:0000f918       $unwind$?getSystemCP@@YAHH@Z 0000000180032918     libucrt:mbctype.obj
 0002:0000f918       $unwind$islower            0000000180032918     libucrt:_ctype.obj
 0002:0000f918       $unwind$isdigit            0000000180032918     libucrt:_ctype.obj
 0002:0000f918       $unwind$isupper            0000000180032918     libucrt:_ctype.obj
 0002:0000f918       $unwind$?_TlgWrite@__vcrt_trace_logging_provider@@YAJPEBU_TlgProvider_t@1@PEFBXPEBU_GUID@@2IPEAU_EVENT_DATA_DESCRIPTOR@@@Z 0000000180032918     libvcruntime:telemetry.obj
 0002:0000f920       $unwind$__acrt_locale_initialize_ctype 0000000180032920     libucrt:initctype.obj
 0002:0000f948       $unwind$_free_base         0000000180032948     libucrt:free_base.obj
 0002:0000f948       $unwind$__acrt_locale_free_numeric 0000000180032948     libucrt:initnum.obj
 0002:0000f948       $unwind$__acrt_locale_free_lc_time_if_unreferenced 0000000180032948     libucrt:locale_refcounting.obj
 0002:0000f948       $unwind$?destroy_fls@@YAXPEAX@Z 0000000180032948     libucrt:per_thread_data.obj
 0002:0000f950       $unwind$_tolower_l         0000000180032950     libucrt:tolower_toupper.obj
 0002:0000f960       $unwind$wcsnlen            0000000180032960     libucrt:strnlen.obj
 0002:0000f960       $unwind$strnlen            0000000180032960     libucrt:strnlen.obj
 0002:0000f968       $unwind$??$parse_integer@KV?$c_string_character_source@D@__crt_strtox@@@__crt_strtox@@YAKQEAU__crt_locale_pointers@@V?$c_string_character_source@D@0@H_N@Z 0000000180032968     libucrt:atox.obj
 0002:0000f984       $unwind$??$parse_integer@KV?$c_string_character_source@_W@__crt_strtox@@@__crt_strtox@@YAKQEAU__crt_locale_pointers@@V?$c_string_character_source@_W@0@H_N@Z 0000000180032984     libucrt:atox.obj
 0002:0000f9a0       $unwind$?construct_ptd_array@@YAXQEAU__acrt_ptd@@@Z 00000001800329a0     libucrt:per_thread_data.obj
 0002:0000f9a8       $unwind$?destroy_ptd_array@@YAXQEAU__acrt_ptd@@@Z 00000001800329a8     libucrt:per_thread_data.obj
 0002:0000f9b0       $unwind$??$?RV<lambda_72d1df2b273a38828b1ce30cbf4cdab5>@@AEAV<lambda_876a65b173b8412d3a47c70a915b0cf4>@@V<lambda_41932305e351933ebe8f8be3ed8bb5dc>@@@?$__crt_seh_guarded_call@X@@QEAAX$$QEAV<lambda_72d1df2b273a38828b1ce30cbf4cdab5>@@AEAV<lambda_876a65b173b8412d3a47c70a915b0cf4>@@$$QEAV<lambda_41932305e351933ebe8f8be3ed8bb5dc>@@@Z 00000001800329b0     libucrt:per_thread_data.obj
 0002:0000f9d4       $unwind$??$?RV<lambda_5e887d1dcbef67a5eb4283622ba103bf>@@AEAV<lambda_4466841279450cc726390878d4a41900>@@V<lambda_341c25c0346d94847f1f3c463c57e077>@@@?$__crt_seh_guarded_call@X@@QEAAX$$QEAV<lambda_5e887d1dcbef67a5eb4283622ba103bf>@@AEAV<lambda_4466841279450cc726390878d4a41900>@@$$QEAV<lambda_341c25c0346d94847f1f3c463c57e077>@@@Z 00000001800329d4     libucrt:per_thread_data.obj
 0002:0000f9f8       $unwind$??$?RV<lambda_46352004c1216016012b18bd6f87e700>@@AEAV<lambda_3bd07e1a1191394380780325891bf33f>@@V<lambda_334532d3f185bcaa59b5be82d7d22bff>@@@?$__crt_seh_guarded_call@X@@QEAAX$$QEAV<lambda_46352004c1216016012b18bd6f87e700>@@AEAV<lambda_3bd07e1a1191394380780325891bf33f>@@$$QEAV<lambda_334532d3f185bcaa59b5be82d7d22bff>@@@Z 00000001800329f8     libucrt:per_thread_data.obj
 0002:0000fa1c       $unwind$??$?RV<lambda_fb3a7dec4e47f37f22dae91bb15c9095>@@AEAV<lambda_698284760c8add0bfb0756c19673e34b>@@V<lambda_dfb8eca1e75fef3034a8fb18dd509707>@@@?$__crt_seh_guarded_call@X@@QEAAX$$QEAV<lambda_fb3a7dec4e47f37f22dae91bb15c9095>@@AEAV<lambda_698284760c8add0bfb0756c19673e34b>@@$$QEAV<lambda_dfb8eca1e75fef3034a8fb18dd509707>@@@Z 0000000180032a1c     libucrt:per_thread_data.obj
 0002:0000fa40       $unwind$_wsetlocale        0000000180032a40     libucrt:wsetlocale.obj
 0002:0000fa48       $unwind$_expandlocale      0000000180032a48     libucrt:wsetlocale.obj
 0002:0000fa68       $unwind$_wcscats           0000000180032a68     libucrt:wsetlocale.obj
 0002:0000fa78       $unwind$__acrt_DownlevelLCIDToLocaleName 0000000180032a78     libucrt:lcidtoname_downlevel.obj
 0002:0000fa78       $unwind$__lc_lctowcs       0000000180032a78     libucrt:wsetlocale.obj
 0002:0000fa78       $unwind$_wcsdup            0000000180032a78     libucrt:wcsdup.obj
 0002:0000fa8c       $unwind$??$create_environment@D@@YAQEAPEADQEAD@Z 0000000180032a8c     libucrt:environment_initialization.obj
 0002:0000fa8c       $unwind$__lc_wcstolc       0000000180032a8c     libucrt:wsetlocale.obj
 0002:0000faa4       $unwind$_wsetlocale_set_cat 0000000180032aa4     libucrt:wsetlocale.obj
 0002:0000fac8       $unwind$_wsetlocale_get_all 0000000180032ac8     libucrt:wsetlocale.obj
 0002:0000fae4       $unwind$_wsetlocale_nolock 0000000180032ae4     libucrt:wsetlocale.obj
 0002:0000fb08       $unwind$__acrt_uninitialize_locale 0000000180032b08     libucrt:wsetlocale.obj
 0002:0000fb28       $unwind$??R<lambda_2af78c5f5901b1372d98f9ab3177dfa6>@@QEBAXXZ 0000000180032b28     libucrt:wsetlocale.obj
 0002:0000fb34       $unwind$??$?RV<lambda_5df02c53a8f32f81fd64e5bbb78039f1>@@AEAV<lambda_2af78c5f5901b1372d98f9ab3177dfa6>@@AEAV<lambda_f51fe5fd7c79a33db34fc9310f277369>@@@?$__crt_seh_guarded_call@X@@QEAAX$$QEAV<lambda_5df02c53a8f32f81fd64e5bbb78039f1>@@AEAV<lambda_2af78c5f5901b1372d98f9ab3177dfa6>@@AEAV<lambda_f51fe5fd7c79a33db34fc9310f277369>@@@Z 0000000180032b34     libucrt:wsetlocale.obj
 0002:0000fb54       $unwind$??$?RV<lambda_d67e8342c384adda8f857579ab50b2ae>@@AEAV<lambda_30712929f77e709619002f448b6a9510>@@V<lambda_4525336fd7e478d965fb7ca7a337cad8>@@@?$__crt_seh_guarded_call@X@@QEAAX$$QEAV<lambda_d67e8342c384adda8f857579ab50b2ae>@@AEAV<lambda_30712929f77e709619002f448b6a9510>@@$$QEAV<lambda_4525336fd7e478d965fb7ca7a337cad8>@@@Z 0000000180032b54     libucrt:wsetlocale.obj
 0002:0000fb78       $unwind$__acrt_get_sigabrt_handler 0000000180032b78     libucrt:signal.obj
 0002:0000fb80       $unwind$raise              0000000180032b80     libucrt:signal.obj
 0002:0000fbac       $unwind$??$?RV<lambda_c36588078e9f5dfd39652860aa6b3aaf>@@AEAV<lambda_ec61778202f4f5fc7e7711acc23c3bca>@@V<lambda_dc9d2797ccde5d239b4a0efae8ebd7db>@@@?$__crt_seh_guarded_call@P6AXH@Z@@QEAAP6AXH@Z$$QEAV<lambda_c36588078e9f5dfd39652860aa6b3aaf>@@AEAV<lambda_ec61778202f4f5fc7e7711acc23c3bca>@@$$QEAV<lambda_dc9d2797ccde5d239b4a0efae8ebd7db>@@@Z 0000000180032bac     libucrt:signal.obj
 0002:0000fbd0       $unwind$__crtLCMapStringEx 0000000180032bd0     libcpmt:winapinls.obj
 0002:0000fbd0       $unwind$__acrt_LCMapStringEx 0000000180032bd0     libucrt:winapi_thunks.obj
 0002:0000fbd0       $unwind$_mbtowc_l          0000000180032bd0     libucrt:mbtowc.obj
 0002:0000fbe8       $unwind$_wctomb_s_l        0000000180032be8     libucrt:wctomb.obj
 0002:0000fbf8       $unwind$__acrt_fp_format   0000000180032bf8     libucrt:cvt.obj
 0002:0000fc14       $unwind$?fp_format_nan_or_infinity@@YAHW4__acrt_fp_class@@_NPEAD_K1@Z 0000000180032c14     libucrt:cvt.obj
 0002:0000fc28       $unwind$?fp_format_e_internal@@YAHQEAD_KH_NIQEAU_strflt@@2QEAU__crt_locale_pointers@@@Z 0000000180032c28     libucrt:cvt.obj
 0002:0000fc40       $unwind$?fp_format_e@@YAHQEBNQEAD_K12H_NIQEAU__crt_locale_pointers@@@Z 0000000180032c40     libucrt:cvt.obj
 0002:0000fc40       $unwind$__acrt_LCMapStringW 0000000180032c40     libucrt:lcmapstringw.obj
 0002:0000fc54       $unwind$?fp_format_a@@YAHQEBNPEAD_KQEAD2H_NIQEAU__crt_locale_pointers@@@Z 0000000180032c54     libucrt:cvt.obj
 0002:0000fc70       $unwind$?fp_format_g@@YAHQEBNQEAD_K12H_NIQEAU__crt_locale_pointers@@@Z 0000000180032c70     libucrt:cvt.obj
 0002:0000fc84       $unwind$__acrt_initialize_lowio 0000000180032c84     libucrt:ioinit.obj
 0002:0000fca4       $unwind$?initialize_inherited_file_handles_nolock@@YAXXZ 0000000180032ca4     libucrt:ioinit.obj
 0002:0000fcc0       $unwind$_except1           0000000180032cc0     libucrt:fpexcept.obj
 0002:0000fce0       $unwind$_handle_exc        0000000180032ce0     libucrt:fpexcept.obj
 0002:0000fcfc       $unwind$_umatherr          0000000180032cfc     libucrt:fpexcept.obj
 0002:0000fd04       $unwind$_ctrlfp            0000000180032d04     libucrt:fpctrl.obj
 0002:0000fd2c       $unwind$__acrt_EnumSystemLocalesEx 0000000180032d2c     libucrt:winapi_thunks.obj
 0002:0000fd40       $unwind$iswctype           0000000180032d40     libucrt:iswctype.obj
 0002:0000fd40       $unwind$__acrt_is_packaged_app 0000000180032d40     libucrt:winapi_thunks.obj
 0002:0000fd4c       $unwind$?IsInExceptionSpec@@YAEPEAUEHExceptionRecord@@PEBU_s_ESTypeList@@@Z 0000000180032d4c     libvcruntime:frame.obj
 0002:0000fd4c       $unwind$?try_get_function@@YAPEAXW4function_id@?A0x63058377@@QEBDQEBW4module_id@2@2@Z 0000000180032d4c     libucrt:winapi_thunks.obj
 0002:0000fd4c       $unwind$_fwrite_nolock     0000000180032d4c     libucrt:fwrite.obj
 0002:0000fd4c       $unwind$?try_get_function@@YAPEAXW4function_id@?A0x61ce2399@@QEBDQEBW4module_id@2@2@Z 0000000180032d4c     libvcruntime:winapi_downlevel.obj
 0002:0000fd68       $unwind$??$?RV<lambda_630b2aca97f6d20d5b5ea6529ea6b6af>@@AEAV<lambda_af91936f1d075d609f72d9d8cba980af>@@V<lambda_e82fa975f615b5c7c7b0e4d178fdae67>@@@?$__crt_seh_guarded_call@H@@QEAAH$$QEAV<lambda_630b2aca97f6d20d5b5ea6529ea6b6af>@@AEAV<lambda_af91936f1d075d609f72d9d8cba980af>@@$$QEAV<lambda_e82fa975f615b5c7c7b0e4d178fdae67>@@@Z 0000000180032d68     libucrt:winapi_thunks.obj
 0002:0000fd90       $unwind$__acrt_update_thread_multibyte_data 0000000180032d90     libucrt:mbctype.obj
 0002:0000fdb4       $unwind$_setmbcp_nolock    0000000180032db4     libucrt:mbctype.obj
 0002:0000fdd4       $unwind$?setSBUpLow@@YAXPEAU__crt_multibyte_data@@@Z 0000000180032dd4     libucrt:mbctype.obj
 0002:0000fdf0       $unwind$?setmbcp_internal@@YAHH_N@Z 0000000180032df0     libucrt:mbctype.obj
 0002:0000fe00       $unwind$??$?RV<lambda_99476a1ad63dd22509b5d3e65b0ffc95>@@AEAV<lambda_ad1ced32f4ac17aa236e5ef05d6b3b7c>@@V<lambda_f7424dd8d45958661754dc4f2697e9c3>@@@?$__crt_seh_guarded_call@X@@QEAAX$$QEAV<lambda_99476a1ad63dd22509b5d3e65b0ffc95>@@AEAV<lambda_ad1ced32f4ac17aa236e5ef05d6b3b7c>@@$$QEAV<lambda_f7424dd8d45958661754dc4f2697e9c3>@@@Z 0000000180032e00     libucrt:mbctype.obj
 0002:0000fe24       $unwind$_fcloseall         0000000180032e24     libucrt:closeall.obj
 0002:0000fe48       $unwind$??$?RV<lambda_bfedae4ebbf01fab1bb6dcc6a9e276e0>@@AEAV<lambda_2fe9b910cf3cbf4a0ab98a02ba45b3ec>@@V<lambda_237c231691f317818eb88cc1d5d642d6>@@@?$__crt_seh_guarded_call@H@@QEAAH$$QEAV<lambda_bfedae4ebbf01fab1bb6dcc6a9e276e0>@@AEAV<lambda_2fe9b910cf3cbf4a0ab98a02ba45b3ec>@@$$QEAV<lambda_237c231691f317818eb88cc1d5d642d6>@@@Z 0000000180032e48     libucrt:close.obj
 0002:0000fe6c       $unwind$_close             0000000180032e6c     libucrt:close.obj
 0002:0000fe6c       $unwind$_commit            0000000180032e6c     libucrt:commit.obj
 0002:0000fe74       $unwind$??$?RV<lambda_b521505b218e5242e90febf6bfebc422>@@AEAV<lambda_6978c1fb23f02e42e1d9e99668cc68aa>@@V<lambda_314360699dd331753a4119843814e9a7>@@@?$__crt_seh_guarded_call@H@@QEAAH$$QEAV<lambda_b521505b218e5242e90febf6bfebc422>@@AEAV<lambda_6978c1fb23f02e42e1d9e99668cc68aa>@@$$QEAV<lambda_314360699dd331753a4119843814e9a7>@@@Z 0000000180032e74     libucrt:commit.obj
 0002:0000fe98       $unwind$?dtor$0@?0???0?$basic_ostream@DU?$char_traits@D@std@@@std@@QEAA@PEAV?$basic_streambuf@DU?$char_traits@D@std@@@1@_N@Z@4HA 0000000180032e98     libcpmt:cout.obj
 0002:0000fe98       $unwind$?fin$0@?0???$?RV<lambda_5df02c53a8f32f81fd64e5bbb78039f1>@@AEAV<lambda_2af78c5f5901b1372d98f9ab3177dfa6>@@AEAV<lambda_f51fe5fd7c79a33db34fc9310f277369>@@@?$__crt_seh_guarded_call@X@@QEAAX$$QEAV<lambda_5df02c53a8f32f81fd64e5bbb78039f1>@@AEAV<lambda_2af78c5f5901b1372d98f9ab3177dfa6>@@AEAV<lambda_f51fe5fd7c79a33db34fc9310f277369>@@@Z@4HA 0000000180032e98     libucrt:wsetlocale.obj
 0002:0000fe98       $unwind$__CxxCallCatchBlock$filt$0 0000000180032e98     libvcruntime:frame.obj
 0002:0000fe98       $unwind$_ctrlfp$filt$0     0000000180032e98     libucrt:fpctrl.obj
 0002:0000fe98       $unwind$__acrt_lowio_ensure_fh_exists$fin$0 0000000180032e98     libucrt:osfinfo.obj
 0002:0000fe98       $unwind$__FrameUnwindToState$filt$0 0000000180032e98     libvcruntime:frame.obj
 0002:0000fe98       $unwind$__FrameUnwindToState$fin$1 0000000180032e98     libvcruntime:frame.obj
 0002:0000fe98       $unwind$common_control87$filt$0 0000000180032e98     libucrt:ieee.obj
 0002:0000fe98       $unwind$?fin$0@?0???$?RV<lambda_d67e8342c384adda8f857579ab50b2ae>@@AEAV<lambda_30712929f77e709619002f448b6a9510>@@V<lambda_4525336fd7e478d965fb7ca7a337cad8>@@@?$__crt_seh_guarded_call@X@@QEAAX$$QEAV<lambda_d67e8342c384adda8f857579ab50b2ae>@@AEAV<lambda_30712929f77e709619002f448b6a9510>@@$$QEAV<lambda_4525336fd7e478d965fb7ca7a337cad8>@@@Z@4HA 0000000180032e98     libucrt:wsetlocale.obj
 0002:0000fe98       $unwind$_read$fin$0        0000000180032e98     libucrt:read.obj
 0002:0000fe98       $unwind$?fin$0@?0???$?RV<lambda_c36588078e9f5dfd39652860aa6b3aaf>@@AEAV<lambda_ec61778202f4f5fc7e7711acc23c3bca>@@V<lambda_dc9d2797ccde5d239b4a0efae8ebd7db>@@@?$__crt_seh_guarded_call@P6AXH@Z@@QEAAP6AXH@Z$$QEAV<lambda_c36588078e9f5dfd39652860aa6b3aaf>@@AEAV<lambda_ec61778202f4f5fc7e7711acc23c3bca>@@$$QEAV<lambda_dc9d2797ccde5d239b4a0efae8ebd7db>@@@Z@4HA 0000000180032e98     libucrt:signal.obj
 0002:0000fe98       $unwind$?fin$0@?0???$?RV<lambda_fb3a7dec4e47f37f22dae91bb15c9095>@@AEAV<lambda_698284760c8add0bfb0756c19673e34b>@@V<lambda_dfb8eca1e75fef3034a8fb18dd509707>@@@?$__crt_seh_guarded_call@X@@QEAAX$$QEAV<lambda_fb3a7dec4e47f37f22dae91bb15c9095>@@AEAV<lambda_698284760c8add0bfb0756c19673e34b>@@$$QEAV<lambda_dfb8eca1e75fef3034a8fb18dd509707>@@@Z@4HA 0000000180032e98     libucrt:per_thread_data.obj
 0002:0000fe98       $unwind$?fin$0@?0???$?RV<lambda_46352004c1216016012b18bd6f87e700>@@AEAV<lambda_3bd07e1a1191394380780325891bf33f>@@V<lambda_334532d3f185bcaa59b5be82d7d22bff>@@@?$__crt_seh_guarded_call@X@@QEAAX$$QEAV<lambda_46352004c1216016012b18bd6f87e700>@@AEAV<lambda_3bd07e1a1191394380780325891bf33f>@@$$QEAV<lambda_334532d3f185bcaa59b5be82d7d22bff>@@@Z@4HA 0000000180032e98     libucrt:per_thread_data.obj
 0002:0000fe98       $unwind$__acrt_uninitialize_locale$fin$0 0000000180032e98     libucrt:wsetlocale.obj
 0002:0000fe98       $unwind$?fin$0@?0???$?RV<lambda_5d4c3fee44080f75d5d9762853974fe0>@@AEAV<lambda_532e024f4337e6fc7ad266c2bef9f4ed>@@V<lambda_c87bdc10097eb2402edb8ba9bdf0697b>@@@?$__crt_seh_guarded_call@_K@@QEAA_K$$QEAV<lambda_5d4c3fee44080f75d5d9762853974fe0>@@AEAV<lambda_532e024f4337e6fc7ad266c2bef9f4ed>@@$$QEAV<lambda_c87bdc10097eb2402edb8ba9bdf0697b>@@@Z@4HA 0000000180032e98     libucrt:fwrite.obj
 0002:0000fe98       $unwind$_IsNonwritableInCurrentImage$filt$0 0000000180032e98     LIBCMT:pesect.obj
 0002:0000fe98       $unwind$raise$fin$0        0000000180032e98     libucrt:signal.obj
 0002:0000fe98       $unwind$_write$fin$0       0000000180032e98     libucrt:write.obj
 0002:0000fe98       $unwind$?fin$0@?0???$?RV<lambda_5e887d1dcbef67a5eb4283622ba103bf>@@AEAV<lambda_4466841279450cc726390878d4a41900>@@V<lambda_341c25c0346d94847f1f3c463c57e077>@@@?$__crt_seh_guarded_call@X@@QEAAX$$QEAV<lambda_5e887d1dcbef67a5eb4283622ba103bf>@@AEAV<lambda_4466841279450cc726390878d4a41900>@@$$QEAV<lambda_341c25c0346d94847f1f3c463c57e077>@@@Z@4HA 0000000180032e98     libucrt:per_thread_data.obj
 0002:0000fe98       $unwind$__DestructExceptionObject$filt$0 0000000180032e98     libvcruntime:frame.obj
 0002:0000fe98       $unwind$?fin$0@?0???$common_lseek@_J@@YA_JH_JH@Z@4HA 0000000180032e98     libucrt:lseek.obj
 0002:0000fe98       $unwind$?fin$0@?0???$common_ftell@_J@@YA_JV__crt_stdio_stream@@@Z@4HA 0000000180032e98     libucrt:ftell.obj
 0002:0000fe98       $unwind$?fin$1@?0??common_exit@@YAXHW4_crt_exit_cleanup_mode@@W4_crt_exit_return_mode@@@Z@4HA 0000000180032e98     libucrt:exit.obj
 0002:0000fe98       $unwind$?filt$0@?0??common_exit@@YAXHW4_crt_exit_cleanup_mode@@W4_crt_exit_return_mode@@@Z@4HA 0000000180032e98     libucrt:exit.obj
 0002:0000fe98       $unwind$?dtor$0@?0??_Getcat@?$codecvt@DDU_Mbstatet@@@std@@SA_KPEAPEBVfacet@locale@2@PEBV42@@Z@4HA 0000000180032e98     libcpmt:cout.obj
 0002:0000fe98       $unwind$?fin$0@?0??dllmain_crt_process_detach@@YAH_N@Z@4HA 0000000180032e98     LIBCMT:dll_dllmain.obj
 0002:0000fe98       $unwind$_query_new_handler$fin$0 0000000180032e98     libucrt:new_handler.obj
 0002:0000fe98       $unwind$?fin$0@?0???$?RV<lambda_7a5ef57ff966f610505f1d28a3d40618>@@AEAV<lambda_b721fa326cdb32351d23dfa67958c160>@@V<lambda_5e0fb27672408a07956fe59e48ccb2aa>@@@?$__crt_seh_guarded_call@H@@QEAAH$$QEAV<lambda_7a5ef57ff966f610505f1d28a3d40618>@@AEAV<lambda_b721fa326cdb32351d23dfa67958c160>@@$$QEAV<lambda_5e0fb27672408a07956fe59e48ccb2aa>@@@Z@4HA 0000000180032e98     libucrt:setvbuf.obj
 0002:0000fe98       $unwind$ungetc$fin$0       0000000180032e98     libucrt:ungetc.obj
 0002:0000fe98       $unwind$__acrt_update_thread_multibyte_data$fin$0 0000000180032e98     libucrt:mbctype.obj
 0002:0000fe98       $unwind$?fin$0@?0??common_fseek@@YAHV__crt_stdio_stream@@_JH@Z@4HA 0000000180032e98     libucrt:fseek.obj
 0002:0000fe98       $unwind$__acrt_initialize_lowio$fin$0 0000000180032e98     libucrt:ioinit.obj
 0002:0000fe98       $unwind$fputc$fin$0        0000000180032e98     libucrt:fputc.obj
 0002:0000fe98       $unwind$?fin$0@?0??dllmain_crt_process_attach@@YAHQEAUHINSTANCE__@@QEAX@Z@4HA 0000000180032e98     LIBCMT:dll_dllmain.obj
 0002:0000fe98       $unwind$fgetc$fin$0        0000000180032e98     libucrt:fgetc.obj
 0002:0000fe98       $unwind$?fin$0@?0???$?RV<lambda_bfedae4ebbf01fab1bb6dcc6a9e276e0>@@AEAV<lambda_2fe9b910cf3cbf4a0ab98a02ba45b3ec>@@V<lambda_237c231691f317818eb88cc1d5d642d6>@@@?$__crt_seh_guarded_call@H@@QEAAH$$QEAV<lambda_bfedae4ebbf01fab1bb6dcc6a9e276e0>@@AEAV<lambda_2fe9b910cf3cbf4a0ab98a02ba45b3ec>@@$$QEAV<lambda_237c231691f317818eb88cc1d5d642d6>@@@Z@4HA 0000000180032e98     libucrt:close.obj
 0002:0000fe98       $unwind$?fin$0@?0???$?RV<lambda_e24bbb7b643b32fcea6fa61b31d4c984>@@AEAV<lambda_275893d493268fdec8709772e3fcec0e>@@V<lambda_9d71df4d7cf3f480f8d633942495c3b0>@@@?$__crt_seh_guarded_call@H@@QEAAH$$QEAV<lambda_e24bbb7b643b32fcea6fa61b31d4c984>@@AEAV<lambda_275893d493268fdec8709772e3fcec0e>@@$$QEAV<lambda_9d71df4d7cf3f480f8d633942495c3b0>@@@Z@4HA 0000000180032e98     libucrt:onexit.obj
 0002:0000fe98       $unwind$?fin$0@?0???$?RV<lambda_b521505b218e5242e90febf6bfebc422>@@AEAV<lambda_6978c1fb23f02e42e1d9e99668cc68aa>@@V<lambda_314360699dd331753a4119843814e9a7>@@@?$__crt_seh_guarded_call@H@@QEAAH$$QEAV<lambda_b521505b218e5242e90febf6bfebc422>@@AEAV<lambda_6978c1fb23f02e42e1d9e99668cc68aa>@@$$QEAV<lambda_314360699dd331753a4119843814e9a7>@@@Z@4HA 0000000180032e98     libucrt:commit.obj
 0002:0000fe98       $unwind$?fin$0@?0???$?RV<lambda_b8c45f8f788dd370798f47cfe8ac3a86>@@AEAV<lambda_4e60a939b0d047cfe11ddc22648dfba9>@@V<lambda_332c3edc96d0294ec56c57d38c1cdfd5>@@@?$__crt_seh_guarded_call@H@@QEAAH$$QEAV<lambda_b8c45f8f788dd370798f47cfe8ac3a86>@@AEAV<lambda_4e60a939b0d047cfe11ddc22648dfba9>@@$$QEAV<lambda_332c3edc96d0294ec56c57d38c1cdfd5>@@@Z@4HA 0000000180032e98     libucrt:onexit.obj
 0002:0000fe98       $unwind$_fcloseall$fin$0   0000000180032e98     libucrt:closeall.obj
 0002:0000fe98       $unwind$?fin$0@?0???$?RV<lambda_630b2aca97f6d20d5b5ea6529ea6b6af>@@AEAV<lambda_af91936f1d075d609f72d9d8cba980af>@@V<lambda_e82fa975f615b5c7c7b0e4d178fdae67>@@@?$__crt_seh_guarded_call@H@@QEAAH$$QEAV<lambda_630b2aca97f6d20d5b5ea6529ea6b6af>@@AEAV<lambda_af91936f1d075d609f72d9d8cba980af>@@$$QEAV<lambda_e82fa975f615b5c7c7b0e4d178fdae67>@@@Z@4HA 0000000180032e98     libucrt:winapi_thunks.obj
 0002:0000fe98       $unwind$fflush$fin$0       0000000180032e98     libucrt:fflush.obj
 0002:0000fe98       $unwind$fclose$fin$0       0000000180032e98     libucrt:fclose.obj
 0002:0000fe98       $unwind$common_flush_all$fin$0 0000000180032e98     libucrt:fflush.obj
 0002:0000fe98       $unwind$common_flush_all$fin$1 0000000180032e98     libucrt:fflush.obj
 0002:0000fe98       $unwind$?fin$0@?0???$?RV<lambda_99476a1ad63dd22509b5d3e65b0ffc95>@@AEAV<lambda_ad1ced32f4ac17aa236e5ef05d6b3b7c>@@V<lambda_f7424dd8d45958661754dc4f2697e9c3>@@@?$__crt_seh_guarded_call@X@@QEAAX$$QEAV<lambda_99476a1ad63dd22509b5d3e65b0ffc95>@@AEAV<lambda_ad1ced32f4ac17aa236e5ef05d6b3b7c>@@$$QEAV<lambda_f7424dd8d45958661754dc4f2697e9c3>@@@Z@4HA 0000000180032e98     libucrt:mbctype.obj
 0002:0000fe98       $unwind$__acrt_update_thread_locale_data$fin$0 0000000180032e98     libucrt:locale_refcounting.obj
 0002:0000fe98       $unwind$?fin$0@?0???$?RV<lambda_72d1df2b273a38828b1ce30cbf4cdab5>@@AEAV<lambda_876a65b173b8412d3a47c70a915b0cf4>@@V<lambda_41932305e351933ebe8f8be3ed8bb5dc>@@@?$__crt_seh_guarded_call@X@@QEAAX$$QEAV<lambda_72d1df2b273a38828b1ce30cbf4cdab5>@@AEAV<lambda_876a65b173b8412d3a47c70a915b0cf4>@@$$QEAV<lambda_41932305e351933ebe8f8be3ed8bb5dc>@@@Z@4HA 0000000180032e98     libucrt:per_thread_data.obj
 0002:0000fea0       $unwind$_write             0000000180032ea0     libucrt:write.obj
 0002:0000fed0       $unwind$_write_nolock      0000000180032ed0     libucrt:write.obj
 0002:0000fee8       $unwind$?write_double_translated_ansi_nolock@@YA?AUwrite_result@?A0x9c548279@@HQEBDI@Z 0000000180032ee8     libucrt:write.obj
 0002:0000ff08       $unwind$?write_text_ansi_nolock@@YA?AUwrite_result@?A0x9c548279@@HQEBDI@Z 0000000180032f08     libucrt:write.obj
 0002:0000ff08       $unwind$?write_text_utf16le_nolock@@YA?AUwrite_result@?A0x9c548279@@HQEBDI@Z 0000000180032f08     libucrt:write.obj
 0002:0000ff28       $unwind$?write_text_utf8_nolock@@YA?AUwrite_result@?A0x9c548279@@HQEBDI@Z 0000000180032f28     libucrt:write.obj
 0002:0000ff4c       $unwind$?common_ftell_translated_utf8_nolock@@YA_JV__crt_stdio_stream@@_J@Z 0000000180032f4c     libucrt:ftell.obj
 0002:0000ff70       $unwind$?common_ftell_read_mode_nolock@@YA_JV__crt_stdio_stream@@_J1@Z 0000000180032f70     libucrt:ftell.obj
 0002:0000ff8c       $unwind$??$common_ftell_nolock@_J@@YA_JV__crt_stdio_stream@@@Z 0000000180032f8c     libucrt:ftell.obj
 0002:0000ff98       $unwind$??$common_ftell@_J@@YA_JV__crt_stdio_stream@@@Z 0000000180032f98     libucrt:ftell.obj
 0002:0000ffb8       $unwind$??$write_buffer_nolock@D@@YA_NDV__crt_stdio_stream@@@Z 0000000180032fb8     libucrt:_flsbuf.obj
 0002:0000ffc8       $unwind$??$common_lseek@_J@@YA_JH_JH@Z 0000000180032fc8     libucrt:lseek.obj
 0002:0000fff8       $unwind$_mbstowcs_s_l      0000000180032ff8     libucrt:mbstowcs.obj
 0002:00010010       $unwind$?_mbstowcs_l_helper@@YA_KPEA_WPEBD_KPEAU__crt_locale_pointers@@@Z 0000000180033010     libucrt:mbstowcs.obj
 0002:0001002c       $unwind$__std_exception_copy 000000018003302c     libvcruntime:std_exception.obj
 0002:0001002c       $unwind$_wcstombs_s_l      000000018003302c     libucrt:wcstombs.obj
 0002:0001002c       $unwind$_free_osfhnd       000000018003302c     libucrt:osfinfo.obj
 0002:0001002c       $unwind$?initialize_stdio_handles_nolock@@YAXXZ 000000018003302c     libucrt:ioinit.obj
 0002:00010040       $unwind$?_wcstombs_l_helper@@YA_KPEADPEB_W_KPEAU__crt_locale_pointers@@@Z 0000000180033040     libucrt:wcstombs.obj
 0002:00010060       $unwind$_isctype_l         0000000180033060     libucrt:isctype.obj
 0002:0001007c       $unwind$__acrt_GetLocaleInfoA 000000018003307c     libucrt:getlocaleinfoa.obj
 0002:0001009c       $unwind$?InternalGetLocaleInfoA@@YAHQEAU__crt_locale_pointers@@QEB_WKQEADH@Z 000000018003309c     libucrt:getlocaleinfoa.obj
 0002:000100c4       $unwind$__acrt_GetStringTypeA 00000001800330c4     libucrt:getstringtypea.obj
 0002:000100ec       $unwind$__acrt_LCMapStringA 00000001800330ec     libucrt:lcmapstringa.obj
 0002:000100fc       $unwind$?__acrt_LCMapStringA_stat@@YAHPEAU__crt_locale_pointers@@PEB_WKPEBDHPEADHHH@Z 00000001800330fc     libucrt:lcmapstringa.obj
 0002:00010124       $unwind$_call_matherr      0000000180033124     libucrt:libm_error.obj
 0002:0001012c       $unwind$_handle_error      000000018003312c     libucrt:libm_error.obj
 0002:0001014c       $unwind$__acrt_update_thread_locale_data 000000018003314c     libucrt:locale_refcounting.obj
 0002:00010170       $unwind$__acrt_locale_initialize_monetary 0000000180033170     libucrt:initmon.obj
 0002:0001018c       $unwind$__acrt_locale_free_monetary 000000018003318c     libucrt:initmon.obj
 0002:00010194       $unwind$__InternalCxxFrameHandler 0000000180033194     libvcruntime:frame.obj
 0002:00010194       $unwind$__acrt_locale_initialize_numeric 0000000180033194     libucrt:initnum.obj
 0002:00010194       $unwind$__C_specific_handler 0000000180033194     libvcruntime:_chandler_.obj
 0002:000101b0       $unwind$__acrt_locale_free_time 00000001800331b0     libucrt:inittime.obj
 0002:000101c0       $unwind$?initialize_lc_time@@YA_NQEAU__crt_lc_time_data@@QEAU__crt_locale_data@@@Z 00000001800331c0     libucrt:inittime.obj
 0002:000101dc       $unwind$__acrt_get_qualified_locale 00000001800331dc     libucrt:get_qualified_locale.obj
 0002:000101f8       $unwind$LangCountryEnumProcEx 00000001800331f8     libucrt:get_qualified_locale.obj
 0002:00010218       $unwind$LanguageEnumProcEx 0000000180033218     libucrt:get_qualified_locale.obj
 0002:00010234       $unwind$GetLocaleNameFromDefault 0000000180033234     libucrt:get_qualified_locale.obj
 0002:0001024c       $unwind$TestDefaultCountry 000000018003324c     libucrt:get_qualified_locale.obj
 0002:00010260       $unwind$__acrt_get_qualified_locale_downlevel 0000000180033260     libucrt:getqloc_downlevel.obj
 0002:0001027c       $unwind$LangCountryEnumProc 000000018003327c     libucrt:getqloc_downlevel.obj
 0002:0001029c       $unwind$LanguageEnumProc   000000018003329c     libucrt:getqloc_downlevel.obj
 0002:000102b8       $unwind$CountryEnumProc    00000001800332b8     libucrt:getqloc_downlevel.obj
 0002:000102d8       $unwind$__acrt_fltout      00000001800332d8     libucrt:cfout.obj
 0002:000102f8       $unwind$?divide@__crt_strtox@@YA_KAEAUbig_integer@1@AEBU21@@Z 00000001800332f8     libucrt:cfout.obj
 0002:00010318       $chain$5$?divide@__crt_strtox@@YA_KAEAUbig_integer@1@AEBU21@@Z 0000000180033318     libucrt:cfout.obj
 0002:0001032c       $chain$6$?divide@__crt_strtox@@YA_KAEAUbig_integer@1@AEBU21@@Z 000000018003332c     libucrt:cfout.obj
 0002:0001033c       $unwind$__acrt_lowio_destroy_handle_array 000000018003333c     libucrt:osfinfo.obj
 0002:0001034c       $unwind$__acrt_lowio_ensure_fh_exists 000000018003334c     libucrt:osfinfo.obj
 0002:00010378       $xdatasym                  0000000180033378     libucrt:fpsr.obj
 0002:00010380       $unwind$?GetTableIndexFromLocaleName@@YAHPEB_W@Z 0000000180033380     libucrt:lcidtoname_downlevel.obj
 0002:00010398       $unwind$_read              0000000180033398     libucrt:read.obj
 0002:000103c4       $unwind$_read_nolock       00000001800333c4     libucrt:read.obj
 0002:000103dc       $unwind$?translate_ansi_or_utf8_nolock@@YAHHQEAD_KQEA_W1@Z 00000001800333dc     libucrt:read.obj
 0002:000103f4       $unwind$??$translate_text_mode_nolock@_W@@YAHHQEA_W_K@Z 00000001800333f4     libucrt:read.obj
 0002:0001040c       $unwind$_towlower_l        000000018003340c     libucrt:towlower.obj
 0002:00010414       $unwind$__dcrt_get_narrow_environment_from_os 0000000180033414     libucrt:get_environment_from_os.obj
 0002:00010414       $unwind$_wcsnicmp_l        0000000180033414     libucrt:wcsnicmp.obj
 0002:00010414       $unwind$?fp_format_f_internal@@YAHQEAD_KHQEAU_strflt@@_NQEAU__crt_locale_pointers@@@Z 0000000180033414     libucrt:cvt.obj
 0002:00010430       $xdatasym                  0000000180033430     libucrt:log10.obj
 0002:0001043c       $unwind$common_control87   000000018003343c     libucrt:ieee.obj
 0002:0001046c       $unwind$__acrt_initialize_fma3 000000018003346c     libucrt:fma3_available.obj
 0002:00010474       $unwind$_log_special_common 0000000180033474     libucrt:log_special.obj
 0002:00010480       $unwind$?DloadObtainSection@@YAPEAXPEAK0@Z 0000000180033480     DelayImp:delayhlp.obj
 0002:00010490       $unwind$?DloadMakePermanentImageCommit@@YAXPEAX_K@Z 0000000180033490     DelayImp:delayhlp.obj
 0002:0001049c       $unwind$?DloadProtectSection@@YAXKPEAK@Z 000000018003349c     DelayImp:delayhlp.obj
 0002:000104ac       $unwind$__delayLoadHelper2 00000001800334ac     DelayImp:delayhlp.obj
 0002:000104c4       $unwind$__GSHandlerCheckCommon 00000001800334c4     LIBCMT:_gshandler_.obj
 0002:000104d0       $xdatasym                  00000001800334d0     LIBCMT:_chkstk_.obj
 0002:000104d8       $unwind$_IsNonwritableInCurrentImage 00000001800334d8     LIBCMT:pesect.obj
 0002:000104fc       $unwind$strrchr            00000001800334fc     libvcruntime:strrchr.obj
 0002:000104fc       $unwind$wcschr             00000001800334fc     libvcruntime:wcschr.obj
 0002:00010c90       .edata                     0000000180033c90     addon.exp
 0002:00010cb8       rgpv                       0000000180033cb8     addon.exp
 0002:00010cbc       rgszName                   0000000180033cbc     addon.exp
 0002:00010cc0       rgwOrd                     0000000180033cc0     addon.exp
 0002:00010cc2       szName                     0000000180033cc2     addon.exp
 0002:00010ccd       $N00001                    0000000180033ccd     addon.exp
 0002:0001107c       .idata$6                   000000018003407c     kernel32:KERNEL32.dll
 0002:000111d6       .idata$6                   00000001800341d6     opencv_core2411:opencv_core2411.dll
 0002:0001121c       .idata$6                   000000018003421c     opencv_highgui2411:opencv_highgui2411.dll
 0002:00011274       .idata$6                   0000000180034274     opencv_imgproc2411:opencv_imgproc2411.dll
 0002:00011824       .idata$6                   0000000180034824     advapi32:ADVAPI32.dll
 0003:00000030       ?init@std@@3JA             0000000180035030     libcpmt:xlock.obj
 0003:00000040       ?atcount_cdecl@@3_KA       0000000180035040     libcpmt:iosptrs.obj
 0003:000001f0       ?_Tlg_Microsoft_CRTProviderProv@@3U_TlgProvider_t@__vcrt_trace_logging_provider@@A 00000001800351f0     libvcruntime:telemetry.obj
 0003:00000240       ?__vcrt_flsindex@@3KA      0000000180035240     libvcruntime:per_thread_data.obj
 0003:00000308       errno_no_memory            0000000180035308     libucrt:errno.obj
 0003:0000030c       doserrno_no_memory         000000018003530c     libucrt:errno.obj
 0003:00000428       __acrt_flsindex            0000000180035428     libucrt:per_thread_data.obj
 0003:00000430       _ctype_loc_style           0000000180035430     libucrt:wsetlocale.obj
 0003:000005f0       ?dazSupported@?1??_ctrlfp@@9@9 00000001800355f0     libucrt:fpctrl.obj
 0003:00000830       __rgctypeflag              0000000180035830     libucrt:mbctype.obj
 0003:00000840       __rgcode_page_info         0000000180035840     libucrt:mbctype.obj
 0003:00000b50       tzstd_program              0000000180035b50     libucrt:timeset.obj
 0003:00000b90       tzdst_program              0000000180035b90     libucrt:timeset.obj
 0003:00000bd0       tzname_states              0000000180035bd0     libucrt:timeset.obj
 0003:00000ce0       ?dazSupported@?1??common_control87@@9@9 0000000180035ce0     libucrt:ieee.obj
 0003:00000d10       _module                    0000000180035d10     jsmsc.obj
 0003:000013e8       ?_Tss_mutex@@3U_RTL_CRITICAL_SECTION@@A 00000001800363e8     LIBCMT:thread_safe_statics.obj
 0003:00001410       ?_Tss_cv@@3U_RTL_CONDITION_VARIABLE@@A 0000000180036410     LIBCMT:thread_safe_statics.obj
 0003:00001418       ?_Tss_event@@3PEAXEA       0000000180036418     LIBCMT:thread_safe_statics.obj
 0003:00001420       ?encoded_sleep_condition_variable_cs@@3P6AHPEAU_RTL_CONDITION_VARIABLE@@PEAU_RTL_CRITICAL_SECTION@@K@ZEA 0000000180036420     LIBCMT:thread_safe_statics.obj
 0003:00001428       ?encoded_wake_all_condition_variable@@3P6AXPEAU_RTL_CONDITION_VARIABLE@@@ZEA 0000000180036428     LIBCMT:thread_safe_statics.obj
 0003:00001440       ?module_local_atexit_table@@3U_onexit_table_t@@A 0000000180036440     LIBCMT:utility.obj
 0003:00001458       ?module_local_at_quick_exit_table@@3U_onexit_table_t@@A 0000000180036458     LIBCMT:utility.obj
 0003:00001470       ?is_initialized_as_dll@@3_NA 0000000180036470     LIBCMT:utility.obj
 0003:00001474       ?__proc_attached@@3HA      0000000180036474     LIBCMT:dll_dllmain.obj
 0003:00001480       GS_ExceptionRecord         0000000180036480     LIBCMT:gs_report.obj
 0003:00001520       GS_ContextRecord           0000000180036520     LIBCMT:gs_report.obj
 0003:00001a20       ?initlocks@std@@3V_Init_locks@1@A 0000000180036a20     libcpmt:xlock.obj
 0003:00001a30       ?mtx@std@@3PAU_RTL_CRITICAL_SECTION@@A 0000000180036a30     libcpmt:xlock.obj
 0003:00001b70       ?initlocks@@3V_Init_locks@std@@A 0000000180036b70     libcpmt:cout.obj
 0003:00001b71       ?init_cout@std@@3U_Init_cout@1@A 0000000180036b71     libcpmt:cout.obj
 0003:00001bf0       ?fout@std@@3V?$basic_filebuf@DU?$char_traits@D@std@@@1@A 0000000180036bf0     libcpmt:cout.obj
 0003:00001ca8       global_locale              0000000180036ca8     libcpmt:locale0.obj
 0003:00001cb8       ?_Fac_head@std@@3PEAU_Fac_node@1@EA 0000000180036cb8     libcpmt:locale0.obj
 0003:00001ce0       ?classic_locale@std@@3Vlocale@1@A 0000000180036ce0     libcpmt:locale0.obj
 0003:00001cf8       ?_Fac_tidy_reg@std@@3U_Fac_tidy_reg_t@1@B 0000000180036cf8     libcpmt:locale0.obj
 0003:00001cf9       ?registered@?1??_Setgloballocale@locale@std@@CAXPEAX@Z@4_NA 0000000180036cf9     libcpmt:locale0.obj
 0003:00001d10       ?stdstr@std@@3PAPEAVios_base@1@A 0000000180036d10     libcpmt:ios.obj
 0003:00001d60       ?stdopens@std@@3PADA       0000000180036d60     libcpmt:ios.obj
 0003:00001d70       ?atfuns_cdecl@@3PAP6AXXZA  0000000180036d70     libcpmt:iosptrs.obj
 0003:00001e00       ?initlocks@std@@3V_Init_locks@1@A 0000000180036e00     libcpmt:iosptrs.obj
 0003:00001e01       ?init_atexit@@3U_Init_atexit@@A 0000000180036e01     libcpmt:iosptrs.obj
 0003:00002060       ?module_handles@@3PAPEAUHINSTANCE__@@A 0000000180037060     libvcruntime:winapi_downlevel.obj
 0003:00002080       ?encoded_function_pointers@@3PAPEAXA 0000000180037080     libvcruntime:winapi_downlevel.obj
 0003:000020e0       ?__vcrt_startup_thread_ptd@@3U__vcrt_ptd@@A 00000001800370e0     libvcruntime:per_thread_data.obj
 0003:00002158       __vcrt_lock_table          0000000180037158     libvcruntime:locks.obj
 0003:00002180       __vcrt_locks_initialized   0000000180037180     libvcruntime:locks.obj
 0003:000021d0       ?heap@@3V_HeapManager@@A   00000001800371d0     libvcruntime:undname.obj
 0003:000021f8       __acrt_invalid_parameter_handler 00000001800371f8     libucrt:invalid_parameter.obj
 0003:00002208       __acrt_new_handler         0000000180037208     libucrt:new_handler.obj
 0003:00002210       c_termination_complete     0000000180037210     libucrt:exit.obj
 0003:00002218       thread_local_exit_callback_func 0000000180037218     libucrt:exit.obj
 0003:00002220       ?c_exit_complete@?5??common_exit@@YAXHW4_crt_exit_cleanup_mode@@W4_crt_exit_return_mode@@@Z@4_NA 0000000180037220     libucrt:exit.obj
 0003:00002280       __acrt_lock_table          0000000180037280     libucrt:locks.obj
 0003:00002488       __acrt_locks_initialized   0000000180037488     libucrt:locks.obj
 0003:000024b0       ctrlc_action               00000001800374b0     libucrt:signal.obj
 0003:000024b8       ctrlbreak_action           00000001800374b8     libucrt:signal.obj
 0003:000024c0       abort_action               00000001800374c0     libucrt:signal.obj
 0003:000024c8       term_action                00000001800374c8     libucrt:signal.obj
 0003:000024d0       enable_percent_n           00000001800374d0     libucrt:printf_count_output.obj
 0003:00002900       module_handles             0000000180037900     libucrt:winapi_thunks.obj
 0003:000029a0       encoded_function_pointers  00000001800379a0     libucrt:winapi_thunks.obj
 0003:00002aa0       ?static_enum_proc@?1??enum_system_locales_ex_nolock@@YAHQ6AHPEA_WK_J@Z@Z@4P6AH0K1@ZEA 0000000180037aa0     libucrt:winapi_thunks.obj
 0003:00002aa8       ?state_cache@?1??__acrt_is_packaged_app@@9@4JA 0000000180037aa8     libucrt:winapi_thunks.obj
 0003:00002ac4       fSystemSet                 0000000180037ac4     libucrt:mbctype.obj
 0003:00002ad0       ?initialized@?1??__acrt_initialize_multibyte@@9@4_NA 0000000180037ad0     libucrt:mbctype.obj
 0003:00002b00       user_matherr               0000000180037b00     libucrt:matherr.obj
 0003:00002b08       __acrt_global_new_mode     0000000180037b08     libucrt:new_mode.obj
 0003:00002b20       _tzname                    0000000180037b20     libucrt:timeset.obj
 0003:00002b30       tz_api_used                0000000180037b30     libucrt:tzset.obj
 0003:00002b40       tz_info                    0000000180037b40     libucrt:tzset.obj
 0003:00002bec       __acrt_app_type            0000000180037bec     libucrt:report_runtime_error.obj
 0004:00000000       $pdata$?TraceLoggingRegister@__vcrt_trace_logging_provider@@YAJPEBU_TlgProvider_t@1@PEBU_GUID@@P6AX1KE_K2PEAU_EVENT_FILTER_DESCRIPTOR@@PEAX@Z4@Z 0000000180038000     libvcruntime:telemetry.obj
 0004:0000000c       $pdata$?_TlgEnableCallback@__vcrt_trace_logging_provider@@YAXPEBU_GUID@@KE_K1PEAU_EVENT_FILTER_DESCRIPTOR@@PEAX@Z 000000018003800c     libvcruntime:telemetry.obj
 0004:00000018       $pdata$?_TlgWrite@__vcrt_trace_logging_provider@@YAJPEBU_TlgProvider_t@1@PEFBXPEBU_GUID@@2IPEAU_EVENT_DATA_DESCRIPTOR@@@Z 0000000180038018     libvcruntime:telemetry.obj
 0004:00000024       $pdata$??__Einitlocks@std@@YAXXZ 0000000180038024     libcpmt:xlock.obj
 0004:00000030       $pdata$??__Ecout@std@@YAXXZ 0000000180038030     libcpmt:cout.obj
 0004:0000003c       $pdata$??__Efout@std@@YAXXZ 000000018003803c     libcpmt:cout.obj
 0004:00000048       $pdata$??__Einitlocks@@YAXXZ 0000000180038048     libcpmt:cout.obj
 0004:00000054       $pdata$??__Einitlocks@std@@YAXXZ 0000000180038054     libcpmt:iosptrs.obj
 0004:00000060       $pdata$load_exe_hook       0000000180038060     win_delay_load_hook.obj
 0004:0000006c       $pdata$??_Gexception@stdext@@UEAAPEAXI@Z 000000018003806c     jsmsc.obj
 0004:0000006c       $pdata$??_Gruntime_error@std@@UEAAPEAXI@Z 000000018003806c     jsmsc.obj
 0004:00000078       $pdata$sprintf_s           0000000180038078     jsmsc.obj
 0004:00000084       $pdata$?_Deallocate@std@@YAXPEAX_K1@Z 0000000180038084     jsmsc.obj
 0004:00000090       $pdata$??0_Locinfo@std@@QEAA@PEBD@Z 0000000180038090     jsmsc.obj
 0004:0000009c       $pdata$??1_Locinfo@std@@QEAA@XZ 000000018003809c     jsmsc.obj
 0004:000000a8       $pdata$??_G_Facet_base@std@@UEAAPEAXI@Z 00000001800380a8     jsmsc.obj
 0004:000000b4       $pdata$?_Getcat@?$ctype@D@std@@SA_KPEAPEBVfacet@locale@2@PEBV42@@Z 00000001800380b4     jsmsc.obj
 0004:000000c0       $pdata$0$?_Getcat@?$ctype@D@std@@SA_KPEAPEBVfacet@locale@2@PEBV42@@Z 00000001800380c0     jsmsc.obj
 0004:000000cc       $pdata$1$?_Getcat@?$ctype@D@std@@SA_KPEAPEBVfacet@locale@2@PEBV42@@Z 00000001800380cc     jsmsc.obj
 0004:000000d8       $pdata$?do_tolower@?$ctype@D@std@@MEBAPEBDPEADPEBD@Z 00000001800380d8     jsmsc.obj
 0004:000000e4       $pdata$0$?do_tolower@?$ctype@D@std@@MEBAPEBDPEADPEBD@Z 00000001800380e4     jsmsc.obj
 0004:000000f0       $pdata$1$?do_tolower@?$ctype@D@std@@MEBAPEBDPEADPEBD@Z 00000001800380f0     jsmsc.obj
 0004:000000fc       $pdata$?do_toupper@?$ctype@D@std@@MEBAPEBDPEADPEBD@Z 00000001800380fc     jsmsc.obj
 0004:00000108       $pdata$0$?do_toupper@?$ctype@D@std@@MEBAPEBDPEADPEBD@Z 0000000180038108     jsmsc.obj
 0004:00000114       $pdata$1$?do_toupper@?$ctype@D@std@@MEBAPEBDPEADPEBD@Z 0000000180038114     jsmsc.obj
 0004:00000120       $pdata$?do_widen@?$ctype@D@std@@MEBAPEBDPEBD0PEAD@Z 0000000180038120     jsmsc.obj
 0004:0000012c       $pdata$?do_narrow@?$ctype@D@std@@MEBAPEBDPEBD0DPEAD@Z 000000018003812c     jsmsc.obj
 0004:00000138       $pdata$??_G?$ctype@D@std@@MEAAPEAXI@Z 0000000180038138     jsmsc.obj
 0004:00000144       $pdata$??_Gerror_category@std@@UEAAPEAXI@Z 0000000180038144     jsmsc.obj
 0004:00000144       $pdata$??_G_Iostream_error_category@std@@UEAAPEAXI@Z 0000000180038144     jsmsc.obj
 0004:00000150       $pdata$?equivalent@error_category@std@@UEBA_NHAEBVerror_condition@2@@Z 0000000180038150     jsmsc.obj
 0004:0000015c       $pdata$?_Makestr@_System_error@std@@CA?AV?$basic_string@DU?$char_traits@D@std@@V?$allocator@D@2@@2@Verror_code@2@V32@@Z 000000018003815c     jsmsc.obj
 0004:00000168       $pdata$??_G_System_error@std@@UEAAPEAXI@Z 0000000180038168     jsmsc.obj
 0004:00000168       $pdata$??_Gfailure@ios_base@std@@UEAAPEAXI@Z 0000000180038168     jsmsc.obj
 0004:00000174       $pdata$?message@_Iostream_error_category@std@@UEBA?AV?$basic_string@DU?$char_traits@D@std@@V?$allocator@D@2@@2@H@Z 0000000180038174     jsmsc.obj
 0004:00000180       $pdata$?clear@ios_base@std@@QEAAXH_N@Z 0000000180038180     jsmsc.obj
 0004:0000018c       $pdata$1$?clear@ios_base@std@@QEAAXH_N@Z 000000018003818c     jsmsc.obj
 0004:00000198       $pdata$2$?clear@ios_base@std@@QEAAXH_N@Z 0000000180038198     jsmsc.obj
 0004:000001a4       $pdata$3$?clear@ios_base@std@@QEAAXH_N@Z 00000001800381a4     jsmsc.obj
 0004:000001b0       $pdata$??0Mat@cv@@QEAA@AEBV01@@Z 00000001800381b0     jsmsc.obj
 0004:000001bc       $pdata$??1Mat@cv@@QEAA@XZ  00000001800381bc     jsmsc.obj
 0004:000001c8       $pdata$??4Mat@cv@@QEAAAEAV01@AEBV01@@Z 00000001800381c8     jsmsc.obj
 0004:000001d4       $pdata$?CalcReturnVal@@YAXVMat@cv@@PEAVIsolate@v8@@AEAV?$Local@VObject@v8@@@4@@Z 00000001800381d4     jsmsc.obj
 0004:000001e0       $pdata$?jsmsc@@YAXAEBV?$FunctionCallbackInfo@VValue@v8@@@v8@@@Z 00000001800381e0     jsmsc.obj
 0004:000001ec       $pdata$?CreateFunction@@YAXAEBV?$FunctionCallbackInfo@VValue@v8@@@v8@@@Z 00000001800381ec     jsmsc.obj
 0004:000001f8       $pdata$?Init@@YAXV?$Local@VObject@v8@@@v8@@0@Z 00000001800381f8     jsmsc.obj
 0004:00000204       $pdata$??1?$basic_string@DU?$char_traits@D@std@@V?$allocator@D@2@@std@@QEAA@XZ 0000000180038204     jsmsc.obj
 0004:00000210       $pdata$??6?$basic_ostream@DU?$char_traits@D@std@@@std@@QEAAAEAV01@_K@Z 0000000180038210     jsmsc.obj
 0004:0000021c       $pdata$1$??6?$basic_ostream@DU?$char_traits@D@std@@@std@@QEAAAEAV01@_K@Z 000000018003821c     jsmsc.obj
 0004:00000228       $pdata$3$??6?$basic_ostream@DU?$char_traits@D@std@@@std@@QEAAAEAV01@_K@Z 0000000180038228     jsmsc.obj
 0004:00000234       $pdata$4$??6?$basic_ostream@DU?$char_traits@D@std@@@std@@QEAAAEAV01@_K@Z 0000000180038234     jsmsc.obj
 0004:00000240       $pdata$5$??6?$basic_ostream@DU?$char_traits@D@std@@@std@@QEAAAEAV01@_K@Z 0000000180038240     jsmsc.obj
 0004:0000024c       $pdata$6$??6?$basic_ostream@DU?$char_traits@D@std@@@std@@QEAAAEAV01@_K@Z 000000018003824c     jsmsc.obj
 0004:00000258       $pdata$7$??6?$basic_ostream@DU?$char_traits@D@std@@@std@@QEAAAEAV01@_K@Z 0000000180038258     jsmsc.obj
 0004:00000264       $pdata$??0sentry@?$basic_ostream@DU?$char_traits@D@std@@@std@@QEAA@AEAV12@@Z 0000000180038264     jsmsc.obj
 0004:00000270       $pdata$?do_put@?$num_put@DV?$ostreambuf_iterator@DU?$char_traits@D@std@@@std@@@std@@MEBA?AV?$ostreambuf_iterator@DU?$char_traits@D@std@@@2@V32@AEAVios_base@2@DPEBX@Z 0000000180038270     jsmsc.obj
 0004:0000027c       $pdata$?do_put@?$num_put@DV?$ostreambuf_iterator@DU?$char_traits@D@std@@@std@@@std@@MEBA?AV?$ostreambuf_iterator@DU?$char_traits@D@std@@@2@V32@AEAVios_base@2@DO@Z 000000018003827c     jsmsc.obj
 0004:00000288       $pdata$?do_put@?$num_put@DV?$ostreambuf_iterator@DU?$char_traits@D@std@@@std@@@std@@MEBA?AV?$ostreambuf_iterator@DU?$char_traits@D@std@@@2@V32@AEAVios_base@2@DN@Z 0000000180038288     jsmsc.obj
 0004:00000294       $pdata$?do_put@?$num_put@DV?$ostreambuf_iterator@DU?$char_traits@D@std@@@std@@@std@@MEBA?AV?$ostreambuf_iterator@DU?$char_traits@D@std@@@2@V32@AEAVios_base@2@D_K@Z 0000000180038294     jsmsc.obj
 0004:000002a0       $pdata$?do_put@?$num_put@DV?$ostreambuf_iterator@DU?$char_traits@D@std@@@std@@@std@@MEBA?AV?$ostreambuf_iterator@DU?$char_traits@D@std@@@2@V32@AEAVios_base@2@D_J@Z 00000001800382a0     jsmsc.obj
 0004:000002ac       $pdata$?do_put@?$num_put@DV?$ostreambuf_iterator@DU?$char_traits@D@std@@@std@@@std@@MEBA?AV?$ostreambuf_iterator@DU?$char_traits@D@std@@@2@V32@AEAVios_base@2@DK@Z 00000001800382ac     jsmsc.obj
 0004:000002b8       $pdata$?do_put@?$num_put@DV?$ostreambuf_iterator@DU?$char_traits@D@std@@@std@@@std@@MEBA?AV?$ostreambuf_iterator@DU?$char_traits@D@std@@@2@V32@AEAVios_base@2@DJ@Z 00000001800382b8     jsmsc.obj
 0004:000002c4       $pdata$?do_put@?$num_put@DV?$ostreambuf_iterator@DU?$char_traits@D@std@@@std@@@std@@MEBA?AV?$ostreambuf_iterator@DU?$char_traits@D@std@@@2@V32@AEAVios_base@2@D_N@Z 00000001800382c4     jsmsc.obj
 0004:000002d0       $pdata$1$?do_put@?$num_put@DV?$ostreambuf_iterator@DU?$char_traits@D@std@@@std@@@std@@MEBA?AV?$ostreambuf_iterator@DU?$char_traits@D@std@@@2@V32@AEAVios_base@2@D_N@Z 00000001800382d0     jsmsc.obj
 0004:000002dc       $pdata$2$?do_put@?$num_put@DV?$ostreambuf_iterator@DU?$char_traits@D@std@@@std@@@std@@MEBA?AV?$ostreambuf_iterator@DU?$char_traits@D@std@@@2@V32@AEAVios_base@2@D_N@Z 00000001800382dc     jsmsc.obj
 0004:000002e8       $pdata$3$?do_put@?$num_put@DV?$ostreambuf_iterator@DU?$char_traits@D@std@@@std@@@std@@MEBA?AV?$ostreambuf_iterator@DU?$char_traits@D@std@@@2@V32@AEAVios_base@2@D_N@Z 00000001800382e8     jsmsc.obj
 0004:000002f4       $pdata$4$?do_put@?$num_put@DV?$ostreambuf_iterator@DU?$char_traits@D@std@@@std@@@std@@MEBA?AV?$ostreambuf_iterator@DU?$char_traits@D@std@@@2@V32@AEAVios_base@2@D_N@Z 00000001800382f4     jsmsc.obj
 0004:00000300       $pdata$5$?do_put@?$num_put@DV?$ostreambuf_iterator@DU?$char_traits@D@std@@@std@@@std@@MEBA?AV?$ostreambuf_iterator@DU?$char_traits@D@std@@@2@V32@AEAVios_base@2@D_N@Z 0000000180038300     jsmsc.obj
 0004:0000030c       $pdata$?assign@?$basic_string@DU?$char_traits@D@std@@V?$allocator@D@2@@std@@QEAAAEAV12@_KD@Z 000000018003830c     jsmsc.obj
 0004:00000318       $pdata$?assign@?$basic_string@DU?$char_traits@D@std@@V?$allocator@D@2@@std@@QEAAAEAV12@PEBD_K@Z 0000000180038318     jsmsc.obj
 0004:00000324       $pdata$?assign@?$basic_string@DU?$char_traits@D@std@@V?$allocator@D@2@@std@@QEAAAEAV12@AEBV12@_K1@Z 0000000180038324     jsmsc.obj
 0004:00000330       $pdata$?append@?$basic_string@DU?$char_traits@D@std@@V?$allocator@D@2@@std@@QEAAAEAV12@PEBD_K@Z 0000000180038330     jsmsc.obj
 0004:0000033c       $pdata$0$?append@?$basic_string@DU?$char_traits@D@std@@V?$allocator@D@2@@std@@QEAAAEAV12@PEBD_K@Z 000000018003833c     jsmsc.obj
 0004:00000348       $pdata$1$?append@?$basic_string@DU?$char_traits@D@std@@V?$allocator@D@2@@std@@QEAAAEAV12@PEBD_K@Z 0000000180038348     jsmsc.obj
 0004:00000354       $pdata$2$?append@?$basic_string@DU?$char_traits@D@std@@V?$allocator@D@2@@std@@QEAAAEAV12@PEBD_K@Z 0000000180038354     jsmsc.obj
 0004:00000360       $pdata$?append@?$basic_string@DU?$char_traits@D@std@@V?$allocator@D@2@@std@@QEAAAEAV12@AEBV12@_K1@Z 0000000180038360     jsmsc.obj
 0004:0000036c       $pdata$0$?append@?$basic_string@DU?$char_traits@D@std@@V?$allocator@D@2@@std@@QEAAAEAV12@AEBV12@_K1@Z 000000018003836c     jsmsc.obj
 0004:00000378       $pdata$1$?append@?$basic_string@DU?$char_traits@D@std@@V?$allocator@D@2@@std@@QEAAAEAV12@AEBV12@_K1@Z 0000000180038378     jsmsc.obj
 0004:00000384       $pdata$2$?append@?$basic_string@DU?$char_traits@D@std@@V?$allocator@D@2@@std@@QEAAAEAV12@AEBV12@_K1@Z 0000000180038384     jsmsc.obj
 0004:00000390       $pdata$??_G?$num_put@DV?$ostreambuf_iterator@DU?$char_traits@D@std@@@std@@@std@@MEAAPEAXI@Z 0000000180038390     jsmsc.obj
 0004:00000390       $pdata$??_G?$codecvt@DDU_Mbstatet@@@std@@MEAAPEAXI@Z 0000000180038390     libcpmt:cout.obj
 0004:0000039c       $pdata$?do_truename@?$numpunct@D@std@@MEBA?AV?$basic_string@DU?$char_traits@D@std@@V?$allocator@D@2@@2@XZ 000000018003839c     jsmsc.obj
 0004:000003a8       $pdata$?do_falsename@?$numpunct@D@std@@MEBA?AV?$basic_string@DU?$char_traits@D@std@@V?$allocator@D@2@@2@XZ 00000001800383a8     jsmsc.obj
 0004:000003b4       $pdata$?do_grouping@?$numpunct@D@std@@MEBA?AV?$basic_string@DU?$char_traits@D@std@@V?$allocator@D@2@@2@XZ 00000001800383b4     jsmsc.obj
 0004:000003c0       $pdata$?_Iput@?$num_put@DV?$ostreambuf_iterator@DU?$char_traits@D@std@@@std@@@std@@AEBA?AV?$ostreambuf_iterator@DU?$char_traits@D@std@@@2@V32@AEAVios_base@2@DPEAD_K@Z 00000001800383c0     jsmsc.obj
 0004:000003cc       $pdata$?_Fput@?$num_put@DV?$ostreambuf_iterator@DU?$char_traits@D@std@@@std@@@std@@AEBA?AV?$ostreambuf_iterator@DU?$char_traits@D@std@@@2@V32@AEAVios_base@2@DPEBD_K@Z 00000001800383cc     jsmsc.obj
 0004:000003d8       $pdata$?deallocate@?$_Wrap_alloc@V?$allocator@D@std@@@std@@QEAAXPEAD_K@Z 00000001800383d8     jsmsc.obj
 0004:000003e4       $pdata$?erase@?$basic_string@DU?$char_traits@D@std@@V?$allocator@D@2@@std@@QEAAAEAV12@_K0@Z 00000001800383e4     jsmsc.obj
 0004:000003f0       $pdata$?append@?$basic_string@DU?$char_traits@D@std@@V?$allocator@D@2@@std@@QEAAAEAV12@_KD@Z 00000001800383f0     jsmsc.obj
 0004:000003fc       $pdata$0$?append@?$basic_string@DU?$char_traits@D@std@@V?$allocator@D@2@@std@@QEAAAEAV12@_KD@Z 00000001800383fc     jsmsc.obj
 0004:00000408       $pdata$1$?append@?$basic_string@DU?$char_traits@D@std@@V?$allocator@D@2@@std@@QEAAAEAV12@_KD@Z 0000000180038408     jsmsc.obj
 0004:00000414       $pdata$2$?append@?$basic_string@DU?$char_traits@D@std@@V?$allocator@D@2@@std@@QEAAAEAV12@_KD@Z 0000000180038414     jsmsc.obj
 0004:00000420       $pdata$?assign@?$basic_string@DU?$char_traits@D@std@@V?$allocator@D@2@@std@@QEAAAEAV12@$$QEAV12@@Z 0000000180038420     jsmsc.obj
 0004:0000042c       $pdata$?flush@?$basic_ostream@DU?$char_traits@D@std@@@std@@QEAAAEAV12@XZ 000000018003842c     jsmsc.obj
 0004:00000438       $pdata$0$?flush@?$basic_ostream@DU?$char_traits@D@std@@@std@@QEAAAEAV12@XZ 0000000180038438     jsmsc.obj
 0004:00000444       $pdata$1$?flush@?$basic_ostream@DU?$char_traits@D@std@@@std@@QEAAAEAV12@XZ 0000000180038444     jsmsc.obj
 0004:00000450       $pdata$??_G?$numpunct@D@std@@MEAAPEAXI@Z 0000000180038450     jsmsc.obj
 0004:0000045c       $pdata$?_Copy@?$basic_string@DU?$char_traits@D@std@@V?$allocator@D@2@@std@@QEAAX_K0@Z 000000018003845c     jsmsc.obj
 0004:00000468       $pdata$??$use_facet@V?$ctype@D@std@@@std@@YAAEBV?$ctype@D@0@AEBVlocale@0@@Z 0000000180038468     jsmsc.obj
 0004:00000474       $pdata$??$_Immortalize@V_Iostream_error_category@std@@@std@@YAAEAV_Iostream_error_category@0@XZ 0000000180038474     jsmsc.obj
 0004:00000480       $pdata$??$?6U?$char_traits@D@std@@@std@@YAAEAV?$basic_ostream@DU?$char_traits@D@std@@@0@AEAV10@PEBD@Z 0000000180038480     jsmsc.obj
 0004:0000048c       $pdata$3$??$?6U?$char_traits@D@std@@@std@@YAAEAV?$basic_ostream@DU?$char_traits@D@std@@@0@AEAV10@PEBD@Z 000000018003848c     jsmsc.obj
 0004:00000498       $pdata$4$??$?6U?$char_traits@D@std@@@std@@YAAEAV?$basic_ostream@DU?$char_traits@D@std@@@0@AEAV10@PEBD@Z 0000000180038498     jsmsc.obj
 0004:000004a4       $pdata$5$??$?6U?$char_traits@D@std@@@std@@YAAEAV?$basic_ostream@DU?$char_traits@D@std@@@0@AEAV10@PEBD@Z 00000001800384a4     jsmsc.obj
 0004:000004b0       $pdata$??$NODE_SET_METHOD@V?$Local@VObject@v8@@@v8@@@node@@YAXAEBV?$Local@VObject@v8@@@v8@@PEBDP6AXAEBV?$FunctionCallbackInfo@VValue@v8@@@2@@Z@Z 00000001800384b0     jsmsc.obj
 0004:000004bc       $pdata$??$use_facet@V?$num_put@DV?$ostreambuf_iterator@DU?$char_traits@D@std@@@std@@@std@@@std@@YAAEBV?$num_put@DV?$ostreambuf_iterator@DU?$char_traits@D@std@@@std@@@0@AEBVlocale@0@@Z 00000001800384bc     jsmsc.obj
 0004:000004c8       $pdata$??$use_facet@V?$numpunct@D@std@@@std@@YAAEBV?$numpunct@D@0@AEBVlocale@0@@Z 00000001800384c8     jsmsc.obj
 0004:000004d4       $pdata$?_Getcat@?$numpunct@D@std@@SA_KPEAPEBVfacet@locale@2@PEBV42@@Z 00000001800384d4     jsmsc.obj
 0004:000004e0       $pdata$0$?_Getcat@?$numpunct@D@std@@SA_KPEAPEBVfacet@locale@2@PEBV42@@Z 00000001800384e0     jsmsc.obj
 0004:000004ec       $pdata$1$?_Getcat@?$numpunct@D@std@@SA_KPEAPEBVfacet@locale@2@PEBV42@@Z 00000001800384ec     jsmsc.obj
 0004:000004f8       $pdata$?put@?$basic_ostream@DU?$char_traits@D@std@@@std@@QEAAAEAV12@D@Z 00000001800384f8     jsmsc.obj
 0004:00000504       $pdata$?widen@?$basic_ios@DU?$char_traits@D@std@@@std@@QEBADD@Z 0000000180038504     jsmsc.obj
 0004:00000510       $pdata$?_Init@?$numpunct@D@std@@IEAAXAEBV_Locinfo@2@_N@Z 0000000180038510     jsmsc.obj
 0004:00000534       $pdata$?__scrt_initialize_thread_safe_statics@@YAHXZ 0000000180038534     LIBCMT:thread_safe_statics.obj
 0004:00000540       $pdata$?__scrt_uninitialize_thread_safe_statics@@YAXXZ 0000000180038540     LIBCMT:thread_safe_statics.obj
 0004:0000054c       $pdata$_Init_thread_footer 000000018003854c     LIBCMT:thread_safe_statics.obj
 0004:00000558       $pdata$_Init_thread_header 0000000180038558     LIBCMT:thread_safe_statics.obj
 0004:00000564       $pdata$_Init_thread_notify 0000000180038564     LIBCMT:thread_safe_statics.obj
 0004:00000570       $pdata$_Init_thread_wait   0000000180038570     LIBCMT:thread_safe_statics.obj
 0004:0000057c       $pdata$??2@YAPEAX_K@Z      000000018003857c     LIBCMT:new_scalar.obj
 0004:00000588       $pdata$__scrt_acquire_startup_lock 0000000180038588     LIBCMT:utility.obj
 0004:00000594       $pdata$__scrt_dllmain_after_initialize_c 0000000180038594     LIBCMT:utility.obj
 0004:000005a0       $pdata$__scrt_dllmain_before_initialize_c 00000001800385a0     LIBCMT:utility.obj
 0004:000005ac       $pdata$__scrt_dllmain_crt_thread_attach 00000001800385ac     LIBCMT:utility.obj
 0004:000005b8       $pdata$__scrt_dllmain_crt_thread_detach 00000001800385b8     LIBCMT:utility.obj
 0004:000005c4       $pdata$__scrt_dllmain_exception_filter 00000001800385c4     LIBCMT:utility.obj
 0004:000005d0       $pdata$__scrt_dllmain_uninitialize_c 00000001800385d0     LIBCMT:utility.obj
 0004:000005dc       $pdata$__scrt_dllmain_uninitialize_critical 00000001800385dc     LIBCMT:utility.obj
 0004:000005e8       $pdata$__scrt_initialize_crt 00000001800385e8     LIBCMT:utility.obj
 0004:000005f4       $pdata$__scrt_initialize_onexit_tables 00000001800385f4     LIBCMT:utility.obj
 0004:00000600       $pdata$__scrt_is_nonwritable_in_current_image 0000000180038600     LIBCMT:utility.obj
 0004:0000060c       $pdata$__scrt_release_startup_lock 000000018003860c     LIBCMT:utility.obj
 0004:00000618       $pdata$__scrt_uninitialize_crt 0000000180038618     LIBCMT:utility.obj
 0004:00000624       $pdata$_onexit             0000000180038624     LIBCMT:utility.obj
 0004:00000630       $pdata$atexit              0000000180038630     LIBCMT:utility.obj
 0004:0000063c       $pdata$?dllmain_crt_dispatch@@YAHQEAUHINSTANCE__@@KQEAX@Z 000000018003863c     LIBCMT:dll_dllmain.obj
 0004:00000648       $pdata$?dllmain_crt_process_attach@@YAHQEAUHINSTANCE__@@QEAX@Z 0000000180038648     LIBCMT:dll_dllmain.obj
 0004:00000654       $pdata$?dllmain_crt_process_detach@@YAH_N@Z 0000000180038654     LIBCMT:dll_dllmain.obj
 0004:00000660       $pdata$?dllmain_dispatch@@YAHQEAUHINSTANCE__@@KQEAX@Z 0000000180038660     LIBCMT:dll_dllmain.obj
 0004:0000066c       $pdata$?dllmain_raw@@YAHQEAUHINSTANCE__@@KQEAX@Z 000000018003866c     LIBCMT:dll_dllmain.obj
 0004:00000678       $pdata$_DllMainCRTStartup  0000000180038678     LIBCMT:dll_dllmain.obj
 0004:00000684       $pdata$__raise_securityfailure 0000000180038684     LIBCMT:gs_report.obj
 0004:00000690       $pdata$__report_gsfailure  0000000180038690     LIBCMT:gs_report.obj
 0004:0000069c       $pdata$__report_rangecheckfailure 000000018003869c     LIBCMT:gs_report.obj
 0004:000006a8       $pdata$__report_securityfailure 00000001800386a8     LIBCMT:gs_report.obj
 0004:000006b4       $pdata$capture_current_context 00000001800386b4     LIBCMT:gs_report.obj
 0004:000006c0       $pdata$capture_previous_context 00000001800386c0     LIBCMT:gs_report.obj
 0004:000006cc       $pdata$__scrt_fastfail     00000001800386cc     LIBCMT:utility_desktop.obj
 0004:000006d8       $pdata$??0bad_alloc@std@@QEAA@AEBV01@@Z 00000001800386d8     LIBCMT:throw_bad_alloc.obj
 0004:000006e4       $pdata$??0bad_array_new_length@std@@QEAA@AEBV01@@Z 00000001800386e4     LIBCMT:throw_bad_alloc.obj
 0004:000006f0       $pdata$??0exception@std@@QEAA@AEBV01@@Z 00000001800386f0     LIBCMT:throw_bad_alloc.obj
 0004:000006fc       $pdata$??_Gbad_cast@std@@UEAAPEAXI@Z 00000001800386fc     libcpmt:cout.obj
 0004:000006fc       $pdata$??_Glength_error@std@@UEAAPEAXI@Z 00000001800386fc     libcpmt:xthrow.obj
 0004:000006fc       $pdata$??_Gout_of_range@std@@UEAAPEAXI@Z 00000001800386fc     libcpmt:xthrow.obj
 0004:000006fc       $pdata$??_Gbad_alloc@std@@UEAAPEAXI@Z 00000001800386fc     LIBCMT:throw_bad_alloc.obj
 0004:000006fc       $pdata$??_Gbad_exception@std@@UEAAPEAXI@Z 00000001800386fc     libvcruntime:frame.obj
 0004:000006fc       $pdata$??_Gexception@std@@UEAAPEAXI@Z 00000001800386fc     LIBCMT:throw_bad_alloc.obj
 0004:000006fc       $pdata$??_Glogic_error@std@@UEAAPEAXI@Z 00000001800386fc     libcpmt:xthrow.obj
 0004:000006fc       $pdata$??_Gbad_array_new_length@std@@UEAAPEAXI@Z 00000001800386fc     LIBCMT:throw_bad_alloc.obj
 0004:00000708       $pdata$?_Xbad_alloc@std@@YAXXZ 0000000180038708     libcpmt:xthrow.obj
 0004:00000708       $pdata$?__scrt_throw_std_bad_alloc@@YAXXZ 0000000180038708     LIBCMT:throw_bad_alloc.obj
 0004:00000714       $pdata$?__scrt_throw_std_bad_array_new_length@@YAXXZ 0000000180038714     LIBCMT:throw_bad_alloc.obj
 0004:00000720       $pdata$__isa_available_init 0000000180038720     LIBCMT:_cpu_disp_.obj
 0004:0000072c       $pdata$__security_init_cookie 000000018003872c     LIBCMT:gs_support.obj
 0004:00000738       $pdata$__scrt_initialize_default_local_stdio_options 0000000180038738     LIBCMT:default_local_stdio_options.obj
 0004:00000744       $pdata$_RTC_Initialize     0000000180038744     LIBCMT:_initsect_.obj
 0004:00000750       $pdata$_RTC_Terminate      0000000180038750     LIBCMT:_initsect_.obj
 0004:0000075c       $pdata$??_Gtype_info@@UEAAPEAXI@Z 000000018003875c     LIBCMT:std_type_info_static.obj
 0004:00000768       $pdata$??0_Init_locks@std@@QEAA@XZ 0000000180038768     libcpmt:xlock.obj
 0004:00000774       $pdata$??0_Lockit@std@@QEAA@H@Z 0000000180038774     libcpmt:xlock.obj
 0004:00000780       $pdata$??1_Init_locks@std@@QEAA@XZ 0000000180038780     libcpmt:xlock.obj
 0004:0000078c       $pdata$??1_Lockit@std@@QEAA@XZ 000000018003878c     libcpmt:xlock.obj
 0004:00000798       $pdata$??$use_facet@V?$codecvt@DDU_Mbstatet@@@std@@@std@@YAAEBV?$codecvt@DDU_Mbstatet@@@0@AEBVlocale@0@@Z 0000000180038798     libcpmt:cout.obj
 0004:000007a4       $pdata$??0?$basic_ostream@DU?$char_traits@D@std@@@std@@QEAA@PEAV?$basic_streambuf@DU?$char_traits@D@std@@@1@_N@Z 00000001800387a4     libcpmt:cout.obj
 0004:000007b0       $pdata$??0?$basic_streambuf@DU?$char_traits@D@std@@@std@@IEAA@XZ 00000001800387b0     libcpmt:cout.obj
 0004:000007bc       $pdata$??0bad_cast@std@@QEAA@AEBV01@@Z 00000001800387bc     libcpmt:cout.obj
 0004:000007c8       $pdata$??1?$basic_filebuf@DU?$char_traits@D@std@@@std@@UEAA@XZ 00000001800387c8     libcpmt:cout.obj
 0004:000007d4       $pdata$??1?$basic_ios@DU?$char_traits@D@std@@@std@@UEAA@XZ 00000001800387d4     libcpmt:cout.obj
 0004:000007e0       $pdata$??_G?$basic_filebuf@DU?$char_traits@D@std@@@std@@UEAAPEAXI@Z 00000001800387e0     libcpmt:cout.obj
 0004:000007ec       $pdata$??_G?$basic_ios@DU?$char_traits@D@std@@@std@@UEAAPEAXI@Z 00000001800387ec     libcpmt:cout.obj
 0004:000007f8       $pdata$??_G?$basic_ostream@DU?$char_traits@D@std@@@std@@UEAAPEAXI@Z 00000001800387f8     libcpmt:cout.obj
 0004:00000804       $pdata$??_G?$basic_streambuf@DU?$char_traits@D@std@@@std@@UEAAPEAXI@Z 0000000180038804     libcpmt:cout.obj
 0004:00000810       $pdata$??_Gios_base@std@@UEAAPEAXI@Z 0000000180038810     libcpmt:cout.obj
 0004:0000081c       $pdata$??_Glocale@std@@QEAAPEAXI@Z 000000018003881c     libcpmt:cout.obj
 0004:00000828       $pdata$?_Endwrite@?$basic_filebuf@DU?$char_traits@D@std@@@std@@IEAA_NXZ 0000000180038828     libcpmt:cout.obj
 0004:00000834       $pdata$?_Getcat@?$codecvt@DDU_Mbstatet@@@std@@SA_KPEAPEBVfacet@locale@2@PEBV42@@Z 0000000180038834     libcpmt:cout.obj
 0004:00000840       $pdata$?_Init@?$basic_filebuf@DU?$char_traits@D@std@@@std@@IEAAXPEAU_iobuf@@W4_Initfl@12@@Z 0000000180038840     libcpmt:cout.obj
 0004:0000084c       $pdata$?_Init@ios_base@std@@IEAAXXZ 000000018003884c     libcpmt:cout.obj
 0004:00000858       $pdata$?_Initcvt@?$basic_filebuf@DU?$char_traits@D@std@@@std@@IEAAXPEBV?$codecvt@DDU_Mbstatet@@@2@@Z 0000000180038858     libcpmt:cout.obj
 0004:00000864       $pdata$?_Lock@?$basic_filebuf@DU?$char_traits@D@std@@@std@@UEAAXXZ 0000000180038864     libcpmt:cout.obj
 0004:00000870       $pdata$?_Unlock@?$basic_filebuf@DU?$char_traits@D@std@@@std@@UEAAXXZ 0000000180038870     libcpmt:cout.obj
 0004:0000087c       $pdata$?imbue@?$basic_filebuf@DU?$char_traits@D@std@@@std@@MEAAXAEBVlocale@2@@Z 000000018003887c     libcpmt:cout.obj
 0004:00000888       $pdata$?overflow@?$basic_filebuf@DU?$char_traits@D@std@@@std@@MEAAHH@Z 0000000180038888     libcpmt:cout.obj
 0004:00000894       $pdata$?pbackfail@?$basic_filebuf@DU?$char_traits@D@std@@@std@@MEAAHH@Z 0000000180038894     libcpmt:cout.obj
 0004:000008a0       $pdata$?seekoff@?$basic_filebuf@DU?$char_traits@D@std@@@std@@MEAA?AV?$fpos@U_Mbstatet@@@2@_JHH@Z 00000001800388a0     libcpmt:cout.obj
 0004:000008ac       $pdata$?seekpos@?$basic_filebuf@DU?$char_traits@D@std@@@std@@MEAA?AV?$fpos@U_Mbstatet@@@2@V32@H@Z 00000001800388ac     libcpmt:cout.obj
 0004:000008b8       $pdata$?setbuf@?$basic_filebuf@DU?$char_traits@D@std@@@std@@MEAAPEAV?$basic_streambuf@DU?$char_traits@D@std@@@2@PEAD_J@Z 00000001800388b8     libcpmt:cout.obj
 0004:000008c4       $pdata$?sync@?$basic_filebuf@DU?$char_traits@D@std@@@std@@MEAAHXZ 00000001800388c4     libcpmt:cout.obj
 0004:000008d0       $pdata$?uflow@?$basic_filebuf@DU?$char_traits@D@std@@@std@@MEAAHXZ 00000001800388d0     libcpmt:cout.obj
 0004:000008dc       $pdata$?uflow@?$basic_streambuf@DU?$char_traits@D@std@@@std@@MEAAHXZ 00000001800388dc     libcpmt:cout.obj
 0004:000008e8       $pdata$?underflow@?$basic_filebuf@DU?$char_traits@D@std@@@std@@MEAAHXZ 00000001800388e8     libcpmt:cout.obj
 0004:000008f4       $pdata$?xsgetn@?$basic_streambuf@DU?$char_traits@D@std@@@std@@MEAA_JPEAD_J@Z 00000001800388f4     libcpmt:cout.obj
 0004:00000900       $pdata$?xsputn@?$basic_streambuf@DU?$char_traits@D@std@@@std@@MEAA_JPEBD_J@Z 0000000180038900     libcpmt:cout.obj
 0004:0000090c       $pdata$??4?$_Yarn@D@std@@QEAAAEAV01@PEBD@Z 000000018003890c     libcpmt:locale0.obj
 0004:00000918       $pdata$??_G_Fac_node@std@@QEAAPEAXI@Z 0000000180038918     libcpmt:locale0.obj
 0004:00000924       $pdata$??_G_Locimp@locale@std@@MEAAPEAXI@Z 0000000180038924     libcpmt:locale0.obj
 0004:00000930       $pdata$?_Facet_Register@std@@YAXPEAV_Facet_base@1@@Z 0000000180038930     libcpmt:locale0.obj
 0004:0000093c       $pdata$?_Init@locale@std@@CAPEAV_Locimp@12@_N@Z 000000018003893c     libcpmt:locale0.obj
 0004:00000948       $pdata$?_Locimp_dtor@_Locimp@locale@std@@CAXPEAV123@@Z 0000000180038948     libcpmt:locale0.obj
 0004:00000954       $pdata$?_Locinfo_ctor@_Locinfo@std@@SAXPEAV12@PEBD@Z 0000000180038954     libcpmt:locale0.obj
 0004:00000960       $pdata$?_Locinfo_dtor@_Locinfo@std@@SAXPEAV12@@Z 0000000180038960     libcpmt:locale0.obj
 0004:0000096c       $pdata$?_New_Locimp@_Locimp@locale@std@@CAPEAV123@_N@Z 000000018003896c     libcpmt:locale0.obj
 0004:00000978       $pdata$?_Setgloballocale@locale@std@@CAXPEAX@Z 0000000180038978     libcpmt:locale0.obj
 0004:00000984       $pdata$_Deletegloballocale 0000000180038984     libcpmt:locale0.obj
 0004:00000990       $pdata$tidy_global         0000000180038990     libcpmt:locale0.obj
 0004:0000099c       $pdata$??0length_error@std@@QEAA@AEBV01@@Z 000000018003899c     libcpmt:xthrow.obj
 0004:000009a8       $pdata$??0length_error@std@@QEAA@PEBD@Z 00000001800389a8     libcpmt:xthrow.obj
 0004:000009b4       $pdata$??0logic_error@std@@QEAA@AEBV01@@Z 00000001800389b4     libcpmt:xthrow.obj
 0004:000009c0       $pdata$??0out_of_range@std@@QEAA@AEBV01@@Z 00000001800389c0     libcpmt:xthrow.obj
 0004:000009cc       $pdata$??0out_of_range@std@@QEAA@PEBD@Z 00000001800389cc     libcpmt:xthrow.obj
 0004:000009d8       $pdata$?_Xlength_error@std@@YAXPEBD@Z 00000001800389d8     libcpmt:xthrow.obj
 0004:000009e4       $pdata$?_Xout_of_range@std@@YAXPEBD@Z 00000001800389e4     libcpmt:xthrow.obj
 0004:000009f0       $pdata$_Getctype           00000001800389f0     libcpmt:_tolower.obj
 0004:000009fc       $pdata$_Tolower            00000001800389fc     libcpmt:_tolower.obj
 0004:00000a08       $pdata$_Getcvt             0000000180038a08     libcpmt:xwctomb.obj
 0004:00000a14       $pdata$_Toupper            0000000180038a14     libcpmt:_toupper.obj
 0004:00000a20       $pdata$?_Addstd@ios_base@std@@SAXPEAV12@@Z 0000000180038a20     libcpmt:ios.obj
 0004:00000a2c       $pdata$?_Ios_base_dtor@ios_base@std@@CAXPEAV12@@Z 0000000180038a2c     libcpmt:ios.obj
 0004:00000a38       $pdata$?_Tidy@ios_base@std@@AEAAXXZ 0000000180038a38     libcpmt:ios.obj
 0004:00000a44       $pdata$?_Atexit@@YAXP6AXXZ@Z 0000000180038a44     libcpmt:iosptrs.obj
 0004:00000a50       $pdata$__crtLCMapStringA   0000000180038a50     libcpmt:StlLCMapStringA.obj
 0004:00000a5c       $pdata$?initialize_pointers@@YAHXZ 0000000180038a5c     libcpmt:winapisupp.obj
 0004:00000a68       $pdata$__crtInitializeCriticalSectionEx 0000000180038a68     libcpmt:winapisupp.obj
 0004:00000a74       $pdata$GetTableIndexFromLocaleName 0000000180038a74     libcpmt:winapinls.obj
 0004:00000a80       $pdata$__crtDownlevelLocaleNameToLCID 0000000180038a80     libcpmt:winapinls.obj
 0004:00000a8c       $pdata$__crtLCMapStringEx  0000000180038a8c     libcpmt:winapinls.obj
 0004:00000aa4       $pdata$_purecall           0000000180038aa4     libvcruntime:purevirt.obj
 0004:00000ab0       $pdata$?try_get_function@@YAPEAXW4function_id@?A0x61ce2399@@QEBDQEBW4module_id@2@2@Z 0000000180038ab0     libvcruntime:winapi_downlevel.obj
 0004:00000abc       $pdata$__vcrt_EventRegister 0000000180038abc     libvcruntime:winapi_downlevel.obj
 0004:00000ac8       $pdata$__vcrt_EventSetInformation 0000000180038ac8     libvcruntime:winapi_downlevel.obj
 0004:00000ad4       $pdata$__vcrt_EventUnregister 0000000180038ad4     libvcruntime:winapi_downlevel.obj
 0004:00000ae0       $pdata$__vcrt_EventWriteTransfer 0000000180038ae0     libvcruntime:winapi_downlevel.obj
 0004:00000aec       $pdata$__vcrt_FlsAlloc     0000000180038aec     libvcruntime:winapi_downlevel.obj
 0004:00000af8       $pdata$__vcrt_FlsFree      0000000180038af8     libvcruntime:winapi_downlevel.obj
 0004:00000b04       $pdata$__vcrt_FlsGetValue  0000000180038b04     libvcruntime:winapi_downlevel.obj
 0004:00000b10       $pdata$__vcrt_FlsSetValue  0000000180038b10     libvcruntime:winapi_downlevel.obj
 0004:00000b1c       $pdata$__vcrt_InitializeCriticalSectionEx 0000000180038b1c     libvcruntime:winapi_downlevel.obj
 0004:00000b28       $pdata$__vcrt_initialize_winapi_thunks 0000000180038b28     libvcruntime:winapi_downlevel.obj
 0004:00000b34       $pdata$__vcrt_uninitialize_winapi_thunks 0000000180038b34     libvcruntime:winapi_downlevel.obj
 0004:00000b40       $pdata$__vcrt_initialize   0000000180038b40     libvcruntime:initialization.obj
 0004:00000b4c       $pdata$__vcrt_thread_attach 0000000180038b4c     libvcruntime:initialization.obj
 0004:00000b58       $pdata$__vcrt_thread_detach 0000000180038b58     libvcruntime:initialization.obj
 0004:00000b64       $pdata$__vcrt_uninitialize 0000000180038b64     libvcruntime:initialization.obj
 0004:00000b70       $pdata$__vcrt_uninitialize_critical 0000000180038b70     libvcruntime:initialization.obj
 0004:00000b7c       $pdata$__C_specific_handler 0000000180038b7c     libvcruntime:_chandler_.obj
 0004:00000b88       $pdata$__telemetry_main_invoke_trigger 0000000180038b88     libvcruntime:telemetry.obj
 0004:00000b94       $pdata$__telemetry_main_return_trigger 0000000180038b94     libvcruntime:telemetry.obj
 0004:00000ba0       $pdata$__vcrt_uninitialize_telemetry_provider 0000000180038ba0     libvcruntime:telemetry.obj
 0004:00000bb8       $pdata$__std_exception_copy 0000000180038bb8     libvcruntime:std_exception.obj
 0004:00000bc4       $pdata$__std_exception_destroy 0000000180038bc4     libvcruntime:std_exception.obj
 0004:00000bd0       $pdata$_CxxThrowException  0000000180038bd0     libvcruntime:throw.obj
 0004:00000bdc       $pdata$__std_type_info_destroy_list 0000000180038bdc     libvcruntime:std_type_info.obj
 0004:00000be8       $pdata$__DestructExceptionObject 0000000180038be8     libvcruntime:frame.obj
 0004:00000bf4       $pdata$??0bad_exception@std@@QEAA@AEBV01@@Z 0000000180038bf4     libvcruntime:frame.obj
 0004:00000c00       $pdata$?CatchIt@@YAXPEAUEHExceptionRecord@@PEA_KPEAU_CONTEXT@@PEAU_xDISPATCHER_CONTEXT@@PEBU_s_FuncInfo@@PEBU_s_HandlerType@@PEBU_s_CatchableType@@PEBU_s_TryBlockMapEntry@@H1EE@Z 0000000180038c00     libvcruntime:frame.obj
 0004:00000c0c       $pdata$?ExFilterRethrow@@YAHPEAU_EXCEPTION_POINTERS@@PEAUEHExceptionRecord@@PEAH@Z 0000000180038c0c     libvcruntime:frame.obj
 0004:00000c18       $pdata$?FindHandler@@YAXPEAUEHExceptionRecord@@PEA_KPEAU_CONTEXT@@PEAU_xDISPATCHER_CONTEXT@@PEBU_s_FuncInfo@@EH1@Z 0000000180038c18     libvcruntime:frame.obj
 0004:00000c24       $pdata$?FindHandlerForForeignException@@YAXPEAUEHExceptionRecord@@PEA_KPEAU_CONTEXT@@PEAU_xDISPATCHER_CONTEXT@@PEBU_s_FuncInfo@@HH1@Z 0000000180038c24     libvcruntime:frame.obj
 0004:00000c30       $pdata$?IsInExceptionSpec@@YAEPEAUEHExceptionRecord@@PEBU_s_ESTypeList@@@Z 0000000180038c30     libvcruntime:frame.obj
 0004:00000c3c       $pdata$__BuildCatchObject  0000000180038c3c     libvcruntime:frame.obj
 0004:00000c48       $pdata$__BuildCatchObjectHelper 0000000180038c48     libvcruntime:frame.obj
 0004:00000c54       $pdata$__CxxCallCatchBlock 0000000180038c54     libvcruntime:frame.obj
 0004:00000c60       $pdata$__FrameUnwindFilter 0000000180038c60     libvcruntime:frame.obj
 0004:00000c6c       $pdata$__FrameUnwindToState 0000000180038c6c     libvcruntime:frame.obj
 0004:00000c78       $pdata$__InternalCxxFrameHandler 0000000180038c78     libvcruntime:frame.obj
 0004:00000c84       $pdata$__TypeMatch         0000000180038c84     libvcruntime:frame.obj
 0004:00000c90       $pdata$__std_terminate     0000000180038c90     libvcruntime:frame.obj
 0004:00000c9c       $pdata$?_GetEstablisherFrame@@YAPEA_KPEA_KPEAU_xDISPATCHER_CONTEXT@@PEBU_s_FuncInfo@@0@Z 0000000180038c9c     libvcruntime:trnsctrl.obj
 0004:00000ca8       $pdata$?_GetRangeOfTrysToCheck@@YAPEBU_s_TryBlockMapEntry@@PEA_KPEBU_s_FuncInfo@@HHPEAI2PEAU_xDISPATCHER_CONTEXT@@@Z 0000000180038ca8     libvcruntime:trnsctrl.obj
 0004:00000cb4       $pdata$?__FrameUnwindToEmptyState@@YAXPEA_KPEAU_xDISPATCHER_CONTEXT@@PEBU_s_FuncInfo@@@Z 0000000180038cb4     libvcruntime:trnsctrl.obj
 0004:00000cc0       $pdata$?__SehTransFilter@@YAHPEAU_EXCEPTION_POINTERS@@PEAUEHExceptionRecord@@PEA_KPEAU_CONTEXT@@PEAU_xDISPATCHER_CONTEXT@@PEBU_s_FuncInfo@@PEAH@Z 0000000180038cc0     libvcruntime:trnsctrl.obj
 0004:00000ccc       $pdata$_CallSETranslator   0000000180038ccc     libvcruntime:trnsctrl.obj
 0004:00000cd8       $pdata$_CreateFrameInfo    0000000180038cd8     libvcruntime:trnsctrl.obj
 0004:00000ce4       $pdata$_FindAndUnlinkFrame 0000000180038ce4     libvcruntime:trnsctrl.obj
 0004:00000cf0       $pdata$_GetImageBase       0000000180038cf0     libvcruntime:trnsctrl.obj
 0004:00000cfc       $pdata$_GetThrowImageBase  0000000180038cfc     libvcruntime:trnsctrl.obj
 0004:00000d08       $pdata$_IsExceptionObjectToBeDestroyed 0000000180038d08     libvcruntime:trnsctrl.obj
 0004:00000d14       $pdata$_SetImageBase       0000000180038d14     libvcruntime:trnsctrl.obj
 0004:00000d20       $pdata$_SetThrowImageBase  0000000180038d20     libvcruntime:trnsctrl.obj
 0004:00000d2c       $pdata$_UnwindNestedFrames 0000000180038d2c     libvcruntime:trnsctrl.obj
 0004:00000d38       $pdata$__CxxFrameHandler3  0000000180038d38     libvcruntime:trnsctrl.obj
 0004:00000d50       $pdata$__vcrt_freefls      0000000180038d50     libvcruntime:per_thread_data.obj
 0004:00000d5c       $pdata$__vcrt_freeptd      0000000180038d5c     libvcruntime:per_thread_data.obj
 0004:00000d68       $pdata$__vcrt_getptd       0000000180038d68     libvcruntime:per_thread_data.obj
 0004:00000d74       $pdata$__vcrt_getptd_noexit 0000000180038d74     libvcruntime:per_thread_data.obj
 0004:00000d80       $pdata$__vcrt_initialize_ptd 0000000180038d80     libvcruntime:per_thread_data.obj
 0004:00000d8c       $pdata$__vcrt_uninitialize_ptd 0000000180038d8c     libvcruntime:per_thread_data.obj
 0004:00000d98       $pdata$__vcrt_initialize_locks 0000000180038d98     libvcruntime:locks.obj
 0004:00000da4       $pdata$__vcrt_uninitialize_locks 0000000180038da4     libvcruntime:locks.obj
 0004:00000de0       $pdata$?__GetCurrentState@@YAHPEA_KPEAU_xDISPATCHER_CONTEXT@@PEBU_s_FuncInfo@@@Z 0000000180038de0     libvcruntime:ehstate.obj
 0004:00000dec       $pdata$?__GetUnwindTryBlock@@YAHPEA_KPEAU_xDISPATCHER_CONTEXT@@PEBU_s_FuncInfo@@@Z 0000000180038dec     libvcruntime:ehstate.obj
 0004:00000df8       $pdata$?__SetUnwindTryBlock@@YAXPEA_KPEAU_xDISPATCHER_CONTEXT@@PEBU_s_FuncInfo@@H@Z 0000000180038df8     libvcruntime:ehstate.obj
 0004:00000e04       $pdata$?__StateFromIp@@YAHPEBU_s_FuncInfo@@PEAU_xDISPATCHER_CONTEXT@@_J@Z 0000000180038e04     libvcruntime:ehstate.obj
 0004:00000e1c       $pdata$??0_LocaleUpdate@@QEAA@QEAU__crt_locale_pointers@@@Z 0000000180038e1c     libucrt:stricmp.obj
 0004:00000e28       $pdata$_stricmp            0000000180038e28     libucrt:stricmp.obj
 0004:00000e34       $pdata$_stricmp_l          0000000180038e34     libucrt:stricmp.obj
 0004:00000e40       $pdata$abort               0000000180038e40     libucrt:abort.obj
 0004:00000e4c       $pdata$__acrt_call_reportfault 0000000180038e4c     libucrt:invalid_parameter.obj
 0004:00000e58       $pdata$_invalid_parameter  0000000180038e58     libucrt:invalid_parameter.obj
 0004:00000e64       $pdata$_invalid_parameter_noinfo 0000000180038e64     libucrt:invalid_parameter.obj
 0004:00000e70       $pdata$_invalid_parameter_noinfo_noreturn 0000000180038e70     libucrt:invalid_parameter.obj
 0004:00000e7c       $pdata$_invoke_watson      0000000180038e7c     libucrt:invalid_parameter.obj
 0004:00000e88       $pdata$strcspn             0000000180038e88     libucrt:strcspn.obj
 0004:00000e94       $pdata$??$common_vsprintf@Vformat_validation_base@__crt_stdio_output@@D@@YAH_KQEAD0QEBDQEAU__crt_locale_pointers@@1@Z 0000000180038e94     libucrt:output.obj
 0004:00000ea0       $pdata$??$ensure_buffer_is_big_enough@D@formatting_buffer@__crt_stdio_output@@QEAA_N_K@Z 0000000180038ea0     libucrt:output.obj
 0004:00000eac       $pdata$??$type_case_integer_parse_into_buffer@I@?$output_processor@DV?$string_output_adapter@D@__crt_stdio_output@@V?$format_validation_base@DV?$string_output_adapter@D@__crt_stdio_output@@@2@@__crt_stdio_output@@AEAAXII_N@Z 0000000180038eac     libucrt:output.obj
 0004:00000eb8       $pdata$??$type_case_integer_parse_into_buffer@_K@?$output_processor@DV?$string_output_adapter@D@__crt_stdio_output@@V?$format_validation_base@DV?$string_output_adapter@D@__crt_stdio_output@@@2@@__crt_stdio_output@@AEAAX_KI_N@Z 0000000180038eb8     libucrt:output.obj
 0004:00000ec4       $pdata$??$write_multiple_characters@V?$string_output_adapter@D@__crt_stdio_output@@D@__crt_stdio_output@@YAXAEBV?$string_output_adapter@D@0@DHQEAH@Z 0000000180038ec4     libucrt:output.obj
 0004:00000ed0       $pdata$??0?$output_processor@DV?$string_output_adapter@D@__crt_stdio_output@@V?$format_validation_base@DV?$string_output_adapter@D@__crt_stdio_output@@@2@@__crt_stdio_output@@QEAA@AEBV?$string_output_adapter@D@1@_KQEBDQEAU__crt_locale_pointers@@QEAD@Z 0000000180038ed0     libucrt:output.obj
 0004:00000edc       $pdata$?force_decimal_point@__crt_stdio_output@@YAXPEADQEAU__crt_locale_pointers@@@Z 0000000180038edc     libucrt:output.obj
 0004:00000ee8       $pdata$?parse_int_from_format_string@?$output_processor@DV?$string_output_adapter@D@__crt_stdio_output@@V?$format_validation_base@DV?$string_output_adapter@D@__crt_stdio_output@@@2@@__crt_stdio_output@@AEAA_NQEAH@Z 0000000180038ee8     libucrt:output.obj
 0004:00000ef4       $pdata$?process@?$output_processor@DV?$string_output_adapter@D@__crt_stdio_output@@V?$format_validation_base@DV?$string_output_adapter@D@__crt_stdio_output@@@2@@__crt_stdio_output@@QEAAHXZ 0000000180038ef4     libucrt:output.obj
 0004:00000f00       $pdata$?state_case_normal@?$output_processor@DV?$string_output_adapter@D@__crt_stdio_output@@V?$format_validation_base@DV?$string_output_adapter@D@__crt_stdio_output@@@2@@__crt_stdio_output@@AEAA_NXZ 0000000180038f00     libucrt:output.obj
 0004:00000f0c       $pdata$?state_case_normal_tchar@?$output_processor@DV?$string_output_adapter@D@__crt_stdio_output@@V?$format_validation_base@DV?$string_output_adapter@D@__crt_stdio_output@@@2@@__crt_stdio_output@@AEAA_ND@Z 0000000180038f0c     libucrt:output.obj
 0004:00000f18       $pdata$?state_case_size@?$output_processor@DV?$string_output_adapter@D@__crt_stdio_output@@V?$format_validation_base@DV?$string_output_adapter@D@__crt_stdio_output@@@2@@__crt_stdio_output@@AEAA_NXZ 0000000180038f18     libucrt:output.obj
 0004:00000f24       $pdata$?state_case_type@?$output_processor@DV?$string_output_adapter@D@__crt_stdio_output@@V?$format_validation_base@DV?$string_output_adapter@D@__crt_stdio_output@@@2@@__crt_stdio_output@@AEAA_NXZ 0000000180038f24     libucrt:output.obj
 0004:00000f30       $pdata$?type_case_Z@?$output_processor@DV?$string_output_adapter@D@__crt_stdio_output@@V?$format_validation_base@DV?$string_output_adapter@D@__crt_stdio_output@@@2@@__crt_stdio_output@@AEAA_NXZ 0000000180038f30     libucrt:output.obj
 0004:00000f3c       $pdata$?type_case_a@?$output_processor@DV?$string_output_adapter@D@__crt_stdio_output@@V?$format_validation_base@DV?$string_output_adapter@D@__crt_stdio_output@@@2@@__crt_stdio_output@@AEAA_NXZ 0000000180038f3c     libucrt:output.obj
 0004:00000f48       $pdata$?type_case_c_tchar@?$output_processor@DV?$string_output_adapter@D@__crt_stdio_output@@V?$format_validation_base@DV?$string_output_adapter@D@__crt_stdio_output@@@2@@__crt_stdio_output@@AEAA_ND@Z 0000000180038f48     libucrt:output.obj
 0004:00000f54       $pdata$?type_case_integer@?$output_processor@DV?$string_output_adapter@D@__crt_stdio_output@@V?$format_validation_base@DV?$string_output_adapter@D@__crt_stdio_output@@@2@@__crt_stdio_output@@AEAA_NI_N@Z 0000000180038f54     libucrt:output.obj
 0004:00000f60       $pdata$?type_case_n@?$output_processor@DV?$string_output_adapter@D@__crt_stdio_output@@V?$format_validation_base@DV?$string_output_adapter@D@__crt_stdio_output@@@2@@__crt_stdio_output@@AEAA_NXZ 0000000180038f60     libucrt:output.obj
 0004:00000f6c       $pdata$?type_case_s@?$output_processor@DV?$string_output_adapter@D@__crt_stdio_output@@V?$format_validation_base@DV?$string_output_adapter@D@__crt_stdio_output@@@2@@__crt_stdio_output@@AEAA_NXZ 0000000180038f6c     libucrt:output.obj
 0004:00000f78       $pdata$?write_stored_string_tchar@?$output_processor@DV?$string_output_adapter@D@__crt_stdio_output@@V?$format_validation_base@DV?$string_output_adapter@D@__crt_stdio_output@@@2@@__crt_stdio_output@@AEAA_ND@Z 0000000180038f78     libucrt:output.obj
 0004:00000f84       $pdata$?write_string@?$string_output_adapter@D@__crt_stdio_output@@QEBAXQEBDHQEAH1@Z 0000000180038f84     libucrt:output.obj
 0004:00000f90       $pdata$__stdio_common_vsprintf_s 0000000180038f90     libucrt:output.obj
 0004:00000f9c       $pdata$localeconv          0000000180038f9c     libucrt:localeconv.obj
 0004:00000fa8       $pdata$frexp               0000000180038fa8     libucrt:frexp.obj
 0004:00000fb4       $pdata$round               0000000180038fb4     libucrt:round.obj
 0004:00000fc0       $pdata$_callnewh           0000000180038fc0     libucrt:new_handler.obj
 0004:00000fcc       $pdata$_query_new_handler  0000000180038fcc     libucrt:new_handler.obj
 0004:00000fd8       $pdata$_seh_filter_exe     0000000180038fd8     libucrt:exception_filter.obj
 0004:00000fe4       $pdata$?common_exit@@YAXHW4_crt_exit_cleanup_mode@@W4_crt_exit_return_mode@@@Z 0000000180038fe4     libucrt:exit.obj
 0004:00000ff0       $pdata$?exit_or_terminate_process@@YAXI@Z 0000000180038ff0     libucrt:exit.obj
 0004:00000ffc       $pdata$?try_cor_exit_process@@YAXI@Z 0000000180038ffc     libucrt:exit.obj
 0004:00001008       $pdata$??$common_initialize_environment_nolock@D@@YAHXZ 0000000180039008     libucrt:environment_initialization.obj
 0004:00001014       $pdata$??$create_environment@D@@YAQEAPEADQEAD@Z 0000000180039014     libucrt:environment_initialization.obj
 0004:00001020       $pdata$??$free_environment@D@@YAXQEAPEAD@Z 0000000180039020     libucrt:environment_initialization.obj
 0004:00001020       $pdata$??$free_environment@_W@@YAXQEAPEA_W@Z 0000000180039020     libucrt:environment_initialization.obj
 0004:0000102c       $pdata$??$uninitialize_environment_internal@D@@YAXAEAPEAPEAD@Z 000000018003902c     libucrt:environment_initialization.obj
 0004:00001038       $pdata$??$uninitialize_environment_internal@_W@@YAXAEAPEAPEA_W@Z 0000000180039038     libucrt:environment_initialization.obj
 0004:00001044       $pdata$__dcrt_uninitialize_environments_nolock 0000000180039044     libucrt:environment_initialization.obj
 0004:00001050       $pdata$??$?RV<lambda_b8c45f8f788dd370798f47cfe8ac3a86>@@AEAV<lambda_4e60a939b0d047cfe11ddc22648dfba9>@@V<lambda_332c3edc96d0294ec56c57d38c1cdfd5>@@@?$__crt_seh_guarded_call@H@@QEAAH$$QEAV<lambda_b8c45f8f788dd370798f47cfe8ac3a86>@@AEAV<lambda_4e60a939b0d047cfe11ddc22648dfba9>@@$$QEAV<lambda_332c3edc96d0294ec56c57d38c1cdfd5>@@@Z 0000000180039050     libucrt:onexit.obj
 0004:0000105c       $pdata$??$?RV<lambda_e24bbb7b643b32fcea6fa61b31d4c984>@@AEAV<lambda_275893d493268fdec8709772e3fcec0e>@@V<lambda_9d71df4d7cf3f480f8d633942495c3b0>@@@?$__crt_seh_guarded_call@H@@QEAAH$$QEAV<lambda_e24bbb7b643b32fcea6fa61b31d4c984>@@AEAV<lambda_275893d493268fdec8709772e3fcec0e>@@$$QEAV<lambda_9d71df4d7cf3f480f8d633942495c3b0>@@@Z 000000018003905c     libucrt:onexit.obj
 0004:00001068       $pdata$??R<lambda_4e60a939b0d047cfe11ddc22648dfba9>@@QEBAHXZ 0000000180039068     libucrt:onexit.obj
 0004:00001074       $pdata$_execute_onexit_table 0000000180039074     libucrt:onexit.obj
 0004:00001080       $pdata$_register_onexit_function 0000000180039080     libucrt:onexit.obj
 0004:0000108c       $pdata$initialize_c        000000018003908c     libucrt:initialization.obj
 0004:00001098       $pdata$uninitialize_environment 0000000180039098     libucrt:initialization.obj
 0004:000010a4       $pdata$initialize_pointers 00000001800390a4     libucrt:initialization.obj
 0004:000010b0       $pdata$uninitialize_allocated_memory 00000001800390b0     libucrt:initialization.obj
 0004:000010bc       $pdata$__acrt_thread_attach 00000001800390bc     libucrt:initialization.obj
 0004:000010c8       $pdata$__acrt_thread_detach 00000001800390c8     libucrt:initialization.obj
 0004:000010d4       $pdata$__acrt_uninitialize_critical 00000001800390d4     libucrt:initialization.obj
 0004:000010e0       $pdata$_initterm           00000001800390e0     libucrt:initterm.obj
 0004:000010ec       $pdata$_initterm_e         00000001800390ec     libucrt:initterm.obj
 0004:000010f8       $pdata$terminate           00000001800390f8     libucrt:terminate.obj
 0004:00001104       $pdata$__acrt_initialize_locks 0000000180039104     libucrt:locks.obj
 0004:00001110       $pdata$__acrt_uninitialize_locks 0000000180039110     libucrt:locks.obj
 0004:0000111c       $pdata$__acrt_errno_map_os_error 000000018003911c     libucrt:errno.obj
 0004:00001128       $pdata$__doserrno          0000000180039128     libucrt:errno.obj
 0004:00001134       $pdata$_errno              0000000180039134     libucrt:errno.obj
 0004:00001140       $pdata$__acrt_initialize_stdio 0000000180039140     libucrt:_file.obj
 0004:0000114c       $pdata$__acrt_uninitialize_stdio 000000018003914c     libucrt:_file.obj
 0004:00001158       $pdata$_get_stream_buffer_pointers 0000000180039158     libucrt:_file.obj
 0004:00001164       $pdata$_fclose_nolock      0000000180039164     libucrt:fclose.obj
 0004:00001170       $pdata$fclose              0000000180039170     libucrt:fclose.obj
 0004:0000117c       $pdata$__acrt_stdio_flush_nolock 000000018003917c     libucrt:fflush.obj
 0004:00001188       $pdata$_fflush_nolock      0000000180039188     libucrt:fflush.obj
 0004:00001194       $pdata$common_flush_all    0000000180039194     libucrt:fflush.obj
 0004:000011a0       $pdata$fflush              00000001800391a0     libucrt:fflush.obj
 0004:000011ac       $pdata$_fgetc_nolock       00000001800391ac     libucrt:fgetc.obj
 0004:000011b8       $pdata$fgetc               00000001800391b8     libucrt:fgetc.obj
 0004:000011c4       $pdata$fgetpos             00000001800391c4     libucrt:fgetpos.obj
 0004:000011d0       $pdata$fputc               00000001800391d0     libucrt:fputc.obj
 0004:000011dc       $pdata$fsetpos             00000001800391dc     libucrt:fsetpos.obj
 0004:000011e8       $pdata$?common_fseek@@YAHV__crt_stdio_stream@@_JH@Z 00000001800391e8     libucrt:fseek.obj
 0004:000011f4       $pdata$?common_fseek_binary_mode_read_only_fast_track_nolock@@YA_NV__crt_stdio_stream@@_JH@Z 00000001800391f4     libucrt:fseek.obj
 0004:00001200       $pdata$?common_fseek_nolock@@YAHV__crt_stdio_stream@@_JH@Z 0000000180039200     libucrt:fseek.obj
 0004:0000120c       $pdata$??$?RV<lambda_5d4c3fee44080f75d5d9762853974fe0>@@AEAV<lambda_532e024f4337e6fc7ad266c2bef9f4ed>@@V<lambda_c87bdc10097eb2402edb8ba9bdf0697b>@@@?$__crt_seh_guarded_call@_K@@QEAA_K$$QEAV<lambda_5d4c3fee44080f75d5d9762853974fe0>@@AEAV<lambda_532e024f4337e6fc7ad266c2bef9f4ed>@@$$QEAV<lambda_c87bdc10097eb2402edb8ba9bdf0697b>@@@Z 000000018003920c     libucrt:fwrite.obj
 0004:00001218       $pdata$??R<lambda_532e024f4337e6fc7ad266c2bef9f4ed>@@QEBA_KXZ 0000000180039218     libucrt:fwrite.obj
 0004:00001224       $pdata$_fwrite_nolock      0000000180039224     libucrt:fwrite.obj
 0004:00001230       $pdata$fwrite              0000000180039230     libucrt:fwrite.obj
 0004:0000123c       $pdata$??$?RV<lambda_7a5ef57ff966f610505f1d28a3d40618>@@AEAV<lambda_b721fa326cdb32351d23dfa67958c160>@@V<lambda_5e0fb27672408a07956fe59e48ccb2aa>@@@?$__crt_seh_guarded_call@H@@QEAAH$$QEAV<lambda_7a5ef57ff966f610505f1d28a3d40618>@@AEAV<lambda_b721fa326cdb32351d23dfa67958c160>@@$$QEAV<lambda_5e0fb27672408a07956fe59e48ccb2aa>@@@Z 000000018003923c     libucrt:setvbuf.obj
 0004:00001248       $pdata$??R<lambda_b721fa326cdb32351d23dfa67958c160>@@QEBAHXZ 0000000180039248     libucrt:setvbuf.obj
 0004:00001254       $pdata$setvbuf             0000000180039254     libucrt:setvbuf.obj
 0004:00001260       $pdata$_ungetc_nolock      0000000180039260     libucrt:ungetc.obj
 0004:0000126c       $pdata$ungetc              000000018003926c     libucrt:ungetc.obj
 0004:00001278       $pdata$call_wsetlocale     0000000180039278     libucrt:setlocale.obj
 0004:00001284       $pdata$setlocale           0000000180039284     libucrt:setlocale.obj
 0004:00001290       $pdata$_calloc_base        0000000180039290     libucrt:calloc_base.obj
 0004:0000129c       $pdata$__pctype_func       000000018003929c     libucrt:ctype.obj
 0004:000012a8       $pdata$isdigit             00000001800392a8     libucrt:_ctype.obj
 0004:000012b4       $pdata$islower             00000001800392b4     libucrt:_ctype.obj
 0004:000012c0       $pdata$isupper             00000001800392c0     libucrt:_ctype.obj
 0004:000012cc       $pdata$_wcsdup             00000001800392cc     libucrt:wcsdup.obj
 0004:000012d8       $pdata$___lc_codepage_func 00000001800392d8     libucrt:initctype.obj
 0004:000012e4       $pdata$___lc_locale_name_func 00000001800392e4     libucrt:initctype.obj
 0004:000012f0       $pdata$___mb_cur_max_func  00000001800392f0     libucrt:initctype.obj
 0004:000012fc       $pdata$__acrt_locale_initialize_ctype 00000001800392fc     libucrt:initctype.obj
 0004:00001308       $pdata$?x_ismbbtype_l@@YAHPEAU__crt_locale_pointers@@IHH@Z 0000000180039308     libucrt:ismbbyte.obj
 0004:00001314       $pdata$_malloc_base        0000000180039314     libucrt:malloc_base.obj
 0004:00001320       $pdata$_realloc_base       0000000180039320     libucrt:realloc_base.obj
 0004:0000132c       $pdata$_free_base          000000018003932c     libucrt:free_base.obj
 0004:00001338       $pdata$?internal_isupper_l@@YA_NHQEAU__crt_locale_pointers@@@Z 0000000180039338     libucrt:tolower_toupper.obj
 0004:00001344       $pdata$_tolower_l          0000000180039344     libucrt:tolower_toupper.obj
 0004:00001350       $pdata$tolower             0000000180039350     libucrt:tolower_toupper.obj
 0004:0000135c       $pdata$wcscpy_s            000000018003935c     libucrt:wcscpy_s.obj
 0004:00001368       $pdata$strnlen             0000000180039368     libucrt:strnlen.obj
 0004:00001374       $pdata$wcsnlen             0000000180039374     libucrt:strnlen.obj
 0004:00001380       $pdata$strcpy_s            0000000180039380     libucrt:strcpy_s.obj
 0004:0000138c       $pdata$??$parse_integer@KV?$c_string_character_source@D@__crt_strtox@@@__crt_strtox@@YAKQEAU__crt_locale_pointers@@V?$c_string_character_source@D@0@H_N@Z 000000018003938c     libucrt:atox.obj
 0004:00001398       $pdata$??$parse_integer@KV?$c_string_character_source@_W@__crt_strtox@@@__crt_strtox@@YAKQEAU__crt_locale_pointers@@V?$c_string_character_source@_W@0@H_N@Z 0000000180039398     libucrt:atox.obj
 0004:000013a4       $pdata$_wtol               00000001800393a4     libucrt:atox.obj
 0004:000013b0       $pdata$??$?RV<lambda_46352004c1216016012b18bd6f87e700>@@AEAV<lambda_3bd07e1a1191394380780325891bf33f>@@V<lambda_334532d3f185bcaa59b5be82d7d22bff>@@@?$__crt_seh_guarded_call@X@@QEAAX$$QEAV<lambda_46352004c1216016012b18bd6f87e700>@@AEAV<lambda_3bd07e1a1191394380780325891bf33f>@@$$QEAV<lambda_334532d3f185bcaa59b5be82d7d22bff>@@@Z 00000001800393b0     libucrt:per_thread_data.obj
 0004:000013bc       $pdata$??$?RV<lambda_5e887d1dcbef67a5eb4283622ba103bf>@@AEAV<lambda_4466841279450cc726390878d4a41900>@@V<lambda_341c25c0346d94847f1f3c463c57e077>@@@?$__crt_seh_guarded_call@X@@QEAAX$$QEAV<lambda_5e887d1dcbef67a5eb4283622ba103bf>@@AEAV<lambda_4466841279450cc726390878d4a41900>@@$$QEAV<lambda_341c25c0346d94847f1f3c463c57e077>@@@Z 00000001800393bc     libucrt:per_thread_data.obj
 0004:000013c8       $pdata$??$?RV<lambda_72d1df2b273a38828b1ce30cbf4cdab5>@@AEAV<lambda_876a65b173b8412d3a47c70a915b0cf4>@@V<lambda_41932305e351933ebe8f8be3ed8bb5dc>@@@?$__crt_seh_guarded_call@X@@QEAAX$$QEAV<lambda_72d1df2b273a38828b1ce30cbf4cdab5>@@AEAV<lambda_876a65b173b8412d3a47c70a915b0cf4>@@$$QEAV<lambda_41932305e351933ebe8f8be3ed8bb5dc>@@@Z 00000001800393c8     libucrt:per_thread_data.obj
 0004:000013d4       $pdata$??$?RV<lambda_fb3a7dec4e47f37f22dae91bb15c9095>@@AEAV<lambda_698284760c8add0bfb0756c19673e34b>@@V<lambda_dfb8eca1e75fef3034a8fb18dd509707>@@@?$__crt_seh_guarded_call@X@@QEAAX$$QEAV<lambda_fb3a7dec4e47f37f22dae91bb15c9095>@@AEAV<lambda_698284760c8add0bfb0756c19673e34b>@@$$QEAV<lambda_dfb8eca1e75fef3034a8fb18dd509707>@@@Z 00000001800393d4     libucrt:per_thread_data.obj
 0004:000013e0       $pdata$?construct_ptd_array@@YAXQEAU__acrt_ptd@@@Z 00000001800393e0     libucrt:per_thread_data.obj
 0004:000013ec       $pdata$?destroy_fls@@YAXPEAX@Z 00000001800393ec     libucrt:per_thread_data.obj
 0004:000013f8       $pdata$?destroy_ptd_array@@YAXQEAU__acrt_ptd@@@Z 00000001800393f8     libucrt:per_thread_data.obj
 0004:00001404       $pdata$?replace_current_thread_locale_nolock@@YAXQEAU__acrt_ptd@@QEAU__crt_locale_data@@@Z 0000000180039404     libucrt:per_thread_data.obj
 0004:00001410       $pdata$__acrt_freeptd      0000000180039410     libucrt:per_thread_data.obj
 0004:0000141c       $pdata$__acrt_getptd       000000018003941c     libucrt:per_thread_data.obj
 0004:00001428       $pdata$__acrt_getptd_noexit 0000000180039428     libucrt:per_thread_data.obj
 0004:00001434       $pdata$__acrt_initialize_ptd 0000000180039434     libucrt:per_thread_data.obj
 0004:00001440       $pdata$__acrt_uninitialize_ptd 0000000180039440     libucrt:per_thread_data.obj
 0004:0000144c       $pdata$__acrt_update_locale_info 000000018003944c     libucrt:locale_update.obj
 0004:00001458       $pdata$__acrt_update_multibyte_info 0000000180039458     libucrt:locale_update.obj
 0004:00001464       $pdata$??$?RV<lambda_5df02c53a8f32f81fd64e5bbb78039f1>@@AEAV<lambda_2af78c5f5901b1372d98f9ab3177dfa6>@@AEAV<lambda_f51fe5fd7c79a33db34fc9310f277369>@@@?$__crt_seh_guarded_call@X@@QEAAX$$QEAV<lambda_5df02c53a8f32f81fd64e5bbb78039f1>@@AEAV<lambda_2af78c5f5901b1372d98f9ab3177dfa6>@@AEAV<lambda_f51fe5fd7c79a33db34fc9310f277369>@@@Z 0000000180039464     libucrt:wsetlocale.obj
 0004:00001470       $pdata$??$?RV<lambda_d67e8342c384adda8f857579ab50b2ae>@@AEAV<lambda_30712929f77e709619002f448b6a9510>@@V<lambda_4525336fd7e478d965fb7ca7a337cad8>@@@?$__crt_seh_guarded_call@X@@QEAAX$$QEAV<lambda_d67e8342c384adda8f857579ab50b2ae>@@AEAV<lambda_30712929f77e709619002f448b6a9510>@@$$QEAV<lambda_4525336fd7e478d965fb7ca7a337cad8>@@@Z 0000000180039470     libucrt:wsetlocale.obj
 0004:0000147c       $pdata$??R<lambda_2af78c5f5901b1372d98f9ab3177dfa6>@@QEBAXXZ 000000018003947c     libucrt:wsetlocale.obj
 0004:00001488       $pdata$__acrt_copy_locale_name 0000000180039488     libucrt:wsetlocale.obj
 0004:00001494       $pdata$__acrt_uninitialize_locale 0000000180039494     libucrt:wsetlocale.obj
 0004:000014a0       $pdata$__lc_lctowcs        00000001800394a0     libucrt:wsetlocale.obj
 0004:000014ac       $pdata$__lc_wcstolc        00000001800394ac     libucrt:wsetlocale.obj
 0004:000014b8       $pdata$_copytlocinfo_nolock 00000001800394b8     libucrt:wsetlocale.obj
 0004:000014c4       $pdata$_expandlocale       00000001800394c4     libucrt:wsetlocale.obj
 0004:000014d0       $pdata$_wcscats            00000001800394d0     libucrt:wsetlocale.obj
 0004:000014dc       $pdata$_wsetlocale         00000001800394dc     libucrt:wsetlocale.obj
 0004:000014e8       $pdata$_wsetlocale_get_all 00000001800394e8     libucrt:wsetlocale.obj
 0004:000014f4       $pdata$_wsetlocale_nolock  00000001800394f4     libucrt:wsetlocale.obj
 0004:00001500       $pdata$_wsetlocale_set_cat 0000000180039500     libucrt:wsetlocale.obj
 0004:0000150c       $pdata$??$?RV<lambda_c36588078e9f5dfd39652860aa6b3aaf>@@AEAV<lambda_ec61778202f4f5fc7e7711acc23c3bca>@@V<lambda_dc9d2797ccde5d239b4a0efae8ebd7db>@@@?$__crt_seh_guarded_call@P6AXH@Z@@QEAAP6AXH@Z$$QEAV<lambda_c36588078e9f5dfd39652860aa6b3aaf>@@AEAV<lambda_ec61778202f4f5fc7e7711acc23c3bca>@@$$QEAV<lambda_dc9d2797ccde5d239b4a0efae8ebd7db>@@@Z 000000018003950c     libucrt:signal.obj
 0004:00001518       $pdata$__acrt_get_sigabrt_handler 0000000180039518     libucrt:signal.obj
 0004:00001524       $pdata$raise               0000000180039524     libucrt:signal.obj
 0004:00001530       $pdata$strtol              0000000180039530     libucrt:strtox.obj
 0004:0000153c       $pdata$_mbtowc_l           000000018003953c     libucrt:mbtowc.obj
 0004:00001548       $pdata$_wctomb_s_l         0000000180039548     libucrt:wctomb.obj
 0004:00001554       $pdata$wctomb_s            0000000180039554     libucrt:wctomb.obj
 0004:00001560       $pdata$?fp_format_a@@YAHQEBNPEAD_KQEAD2H_NIQEAU__crt_locale_pointers@@@Z 0000000180039560     libucrt:cvt.obj
 0004:0000156c       $pdata$?fp_format_e@@YAHQEBNQEAD_K12H_NIQEAU__crt_locale_pointers@@@Z 000000018003956c     libucrt:cvt.obj
 0004:00001578       $pdata$?fp_format_e_internal@@YAHQEAD_KH_NIQEAU_strflt@@2QEAU__crt_locale_pointers@@@Z 0000000180039578     libucrt:cvt.obj
 0004:00001584       $pdata$?fp_format_f_internal@@YAHQEAD_KHQEAU_strflt@@_NQEAU__crt_locale_pointers@@@Z 0000000180039584     libucrt:cvt.obj
 0004:00001590       $pdata$?fp_format_g@@YAHQEBNQEAD_K12H_NIQEAU__crt_locale_pointers@@@Z 0000000180039590     libucrt:cvt.obj
 0004:0000159c       $pdata$?fp_format_nan_or_infinity@@YAHW4__acrt_fp_class@@_NPEAD_K1@Z 000000018003959c     libucrt:cvt.obj
 0004:000015a8       $pdata$__acrt_fp_format    00000001800395a8     libucrt:cvt.obj
 0004:000015b4       $pdata$_fileno             00000001800395b4     libucrt:fileno.obj
 0004:000015c0       $pdata$__acrt_stdio_begin_temporary_buffering_nolock 00000001800395c0     libucrt:_sftbuf.obj
 0004:000015cc       $pdata$__acrt_stdio_end_temporary_buffering_nolock 00000001800395cc     libucrt:_sftbuf.obj
 0004:000015d8       $pdata$?initialize_inherited_file_handles_nolock@@YAXXZ 00000001800395d8     libucrt:ioinit.obj
 0004:000015e4       $pdata$?initialize_stdio_handles_nolock@@YAXXZ 00000001800395e4     libucrt:ioinit.obj
 0004:000015f0       $pdata$__acrt_initialize_lowio 00000001800395f0     libucrt:ioinit.obj
 0004:000015fc       $pdata$__acrt_uninitialize_lowio 00000001800395fc     libucrt:ioinit.obj
 0004:00001608       $pdata$_except1            0000000180039608     libucrt:fpexcept.obj
 0004:00001614       $pdata$_handle_exc         0000000180039614     libucrt:fpexcept.obj
 0004:00001620       $pdata$_raise_exc          0000000180039620     libucrt:fpexcept.obj
 0004:0000162c       $pdata$_raise_exc_ex       000000018003962c     libucrt:fpexcept.obj
 0004:00001638       $pdata$_set_errno_from_matherr 0000000180039638     libucrt:fpexcept.obj
 0004:00001644       $pdata$_umatherr           0000000180039644     libucrt:fpexcept.obj
 0004:00001650       $pdata$_clrfp              0000000180039650     libucrt:fpctrl.obj
 0004:0000165c       $pdata$_ctrlfp             000000018003965c     libucrt:fpctrl.obj
 0004:00001668       $pdata$_set_statfp         0000000180039668     libucrt:fpctrl.obj
 0004:00001674       $pdata$_statfp             0000000180039674     libucrt:fpctrl.obj
 0004:00001680       $pdata$?<helper_func_cdecl>@<lambda_e2bb8337c48846e80c921ea5ddadc92d>@@CAHPEA_W@Z 0000000180039680     libucrt:winapi_thunks.obj
 0004:0000168c       $pdata$??$?RV<lambda_630b2aca97f6d20d5b5ea6529ea6b6af>@@AEAV<lambda_af91936f1d075d609f72d9d8cba980af>@@V<lambda_e82fa975f615b5c7c7b0e4d178fdae67>@@@?$__crt_seh_guarded_call@H@@QEAAH$$QEAV<lambda_630b2aca97f6d20d5b5ea6529ea6b6af>@@AEAV<lambda_af91936f1d075d609f72d9d8cba980af>@@$$QEAV<lambda_e82fa975f615b5c7c7b0e4d178fdae67>@@@Z 000000018003968c     libucrt:winapi_thunks.obj
 0004:00001698       $pdata$?try_get_function@@YAPEAXW4function_id@?A0x63058377@@QEBDQEBW4module_id@2@2@Z 0000000180039698     libucrt:winapi_thunks.obj
 0004:000016a4       $pdata$__acrt_EnumSystemLocalesEx 00000001800396a4     libucrt:winapi_thunks.obj
 0004:000016b0       $pdata$__acrt_FlsAlloc     00000001800396b0     libucrt:winapi_thunks.obj
 0004:000016bc       $pdata$__acrt_FlsFree      00000001800396bc     libucrt:winapi_thunks.obj
 0004:000016c8       $pdata$__acrt_FlsGetValue  00000001800396c8     libucrt:winapi_thunks.obj
 0004:000016d4       $pdata$__acrt_FlsSetValue  00000001800396d4     libucrt:winapi_thunks.obj
 0004:000016e0       $pdata$__acrt_GetLocaleInfoEx 00000001800396e0     libucrt:winapi_thunks.obj
 0004:000016ec       $pdata$__acrt_GetUserDefaultLocaleName 00000001800396ec     libucrt:winapi_thunks.obj
 0004:000016f8       $pdata$__acrt_InitializeCriticalSectionEx 00000001800396f8     libucrt:winapi_thunks.obj
 0004:00001704       $pdata$__acrt_IsValidLocaleName 0000000180039704     libucrt:winapi_thunks.obj
 0004:00001710       $pdata$__acrt_LCIDToLocaleName 0000000180039710     libucrt:winapi_thunks.obj
 0004:0000171c       $pdata$__acrt_LCMapStringEx 000000018003971c     libucrt:winapi_thunks.obj
 0004:00001728       $pdata$__acrt_LocaleNameToLCID 0000000180039728     libucrt:winapi_thunks.obj
 0004:00001734       $pdata$__acrt_can_use_vista_locale_apis 0000000180039734     libucrt:winapi_thunks.obj
 0004:00001740       $pdata$__acrt_initialize_winapi_thunks 0000000180039740     libucrt:winapi_thunks.obj
 0004:0000174c       $pdata$__acrt_is_packaged_app 000000018003974c     libucrt:winapi_thunks.obj
 0004:00001758       $pdata$__acrt_uninitialize_winapi_thunks 0000000180039758     libucrt:winapi_thunks.obj
 0004:00001764       $pdata$??$?RV<lambda_99476a1ad63dd22509b5d3e65b0ffc95>@@AEAV<lambda_ad1ced32f4ac17aa236e5ef05d6b3b7c>@@V<lambda_f7424dd8d45958661754dc4f2697e9c3>@@@?$__crt_seh_guarded_call@X@@QEAAX$$QEAV<lambda_99476a1ad63dd22509b5d3e65b0ffc95>@@AEAV<lambda_ad1ced32f4ac17aa236e5ef05d6b3b7c>@@$$QEAV<lambda_f7424dd8d45958661754dc4f2697e9c3>@@@Z 0000000180039764     libucrt:mbctype.obj
 0004:00001770       $pdata$??R<lambda_ad1ced32f4ac17aa236e5ef05d6b3b7c>@@QEBAXXZ 0000000180039770     libucrt:mbctype.obj
 0004:0000177c       $pdata$?getSystemCP@@YAHH@Z 000000018003977c     libucrt:mbctype.obj
 0004:00001788       $pdata$?setSBCS@@YAXPEAU__crt_multibyte_data@@@Z 0000000180039788     libucrt:mbctype.obj
 0004:00001794       $pdata$?setSBUpLow@@YAXPEAU__crt_multibyte_data@@@Z 0000000180039794     libucrt:mbctype.obj
 0004:000017a0       $pdata$?setmbcp_internal@@YAHH_N@Z 00000001800397a0     libucrt:mbctype.obj
 0004:000017ac       $pdata$__acrt_initialize_multibyte 00000001800397ac     libucrt:mbctype.obj
 0004:000017b8       $pdata$__acrt_update_thread_multibyte_data 00000001800397b8     libucrt:mbctype.obj
 0004:000017c4       $pdata$_setmbcp_nolock     00000001800397c4     libucrt:mbctype.obj
 0004:000017d0       $pdata$__dcrt_get_narrow_environment_from_os 00000001800397d0     libucrt:get_environment_from_os.obj
 0004:000017dc       $pdata$_recalloc_base      00000001800397dc     libucrt:recalloc.obj
 0004:000017e8       $pdata$__acrt_initialize_heap 00000001800397e8     libucrt:heap_handle.obj
 0004:000017f4       $pdata$__acrt_initialize_command_line 00000001800397f4     libucrt:argv_data.obj
 0004:00001800       $pdata$__acrt_execute_initializers 0000000180039800     libucrt:shared_initialization.obj
 0004:0000180c       $pdata$__acrt_execute_uninitializers 000000018003980c     libucrt:shared_initialization.obj
 0004:00001818       $pdata$__acrt_invoke_user_matherr 0000000180039818     libucrt:matherr.obj
 0004:00001824       $pdata$_fcloseall          0000000180039824     libucrt:closeall.obj
 0004:00001830       $pdata$__acrt_stdio_free_buffer_nolock 0000000180039830     libucrt:_freebuf.obj
 0004:0000183c       $pdata$??$?RV<lambda_bfedae4ebbf01fab1bb6dcc6a9e276e0>@@AEAV<lambda_2fe9b910cf3cbf4a0ab98a02ba45b3ec>@@V<lambda_237c231691f317818eb88cc1d5d642d6>@@@?$__crt_seh_guarded_call@H@@QEAAH$$QEAV<lambda_bfedae4ebbf01fab1bb6dcc6a9e276e0>@@AEAV<lambda_2fe9b910cf3cbf4a0ab98a02ba45b3ec>@@$$QEAV<lambda_237c231691f317818eb88cc1d5d642d6>@@@Z 000000018003983c     libucrt:close.obj
 0004:00001848       $pdata$_close              0000000180039848     libucrt:close.obj
 0004:00001854       $pdata$_close_nolock       0000000180039854     libucrt:close.obj
 0004:00001860       $pdata$??$?RV<lambda_b521505b218e5242e90febf6bfebc422>@@AEAV<lambda_6978c1fb23f02e42e1d9e99668cc68aa>@@V<lambda_314360699dd331753a4119843814e9a7>@@@?$__crt_seh_guarded_call@H@@QEAAH$$QEAV<lambda_b521505b218e5242e90febf6bfebc422>@@AEAV<lambda_6978c1fb23f02e42e1d9e99668cc68aa>@@$$QEAV<lambda_314360699dd331753a4119843814e9a7>@@@Z 0000000180039860     libucrt:commit.obj
 0004:0000186c       $pdata$_commit             000000018003986c     libucrt:commit.obj
 0004:00001878       $pdata$?write_double_translated_ansi_nolock@@YA?AUwrite_result@?A0x9c548279@@HQEBDI@Z 0000000180039878     libucrt:write.obj
 0004:00001884       $pdata$?write_text_ansi_nolock@@YA?AUwrite_result@?A0x9c548279@@HQEBDI@Z 0000000180039884     libucrt:write.obj
 0004:00001890       $pdata$?write_text_utf16le_nolock@@YA?AUwrite_result@?A0x9c548279@@HQEBDI@Z 0000000180039890     libucrt:write.obj
 0004:0000189c       $pdata$?write_text_utf8_nolock@@YA?AUwrite_result@?A0x9c548279@@HQEBDI@Z 000000018003989c     libucrt:write.obj
 0004:000018a8       $pdata$_write              00000001800398a8     libucrt:write.obj
 0004:000018b4       $pdata$_write_nolock       00000001800398b4     libucrt:write.obj
 0004:000018c0       $pdata$??$common_refill_and_read_nolock@D@@YAHV__crt_stdio_stream@@@Z 00000001800398c0     libucrt:_filbuf.obj
 0004:000018cc       $pdata$??$common_ftell@_J@@YA_JV__crt_stdio_stream@@@Z 00000001800398cc     libucrt:ftell.obj
 0004:000018d8       $pdata$??$common_ftell_nolock@_J@@YA_JV__crt_stdio_stream@@@Z 00000001800398d8     libucrt:ftell.obj
 0004:000018e4       $pdata$?common_ftell_read_mode_nolock@@YA_JV__crt_stdio_stream@@_J1@Z 00000001800398e4     libucrt:ftell.obj
 0004:000018f0       $pdata$?common_ftell_translated_utf8_nolock@@YA_JV__crt_stdio_stream@@_J@Z 00000001800398f0     libucrt:ftell.obj
 0004:000018fc       $pdata$??$write_buffer_nolock@D@@YA_NDV__crt_stdio_stream@@@Z 00000001800398fc     libucrt:_flsbuf.obj
 0004:00001908       $pdata$__acrt_stdio_flush_and_write_narrow_nolock 0000000180039908     libucrt:_flsbuf.obj
 0004:00001914       $pdata$??$common_lseek@_J@@YA_JH_JH@Z 0000000180039914     libucrt:lseek.obj
 0004:00001920       $pdata$??$common_lseek_nolock@_J@@YA_JH_JH@Z 0000000180039920     libucrt:lseek.obj
 0004:0000192c       $pdata$__acrt_stdio_allocate_buffer_nolock 000000018003992c     libucrt:_getbuf.obj
 0004:00001938       $pdata$?_mbstowcs_l_helper@@YA_KPEA_WPEBD_KPEAU__crt_locale_pointers@@@Z 0000000180039938     libucrt:mbstowcs.obj
 0004:00001944       $pdata$_mbstowcs_s_l       0000000180039944     libucrt:mbstowcs.obj
 0004:00001950       $pdata$mbstowcs_s          0000000180039950     libucrt:mbstowcs.obj
 0004:0000195c       $pdata$?_wcstombs_l_helper@@YA_KPEADPEB_W_KPEAU__crt_locale_pointers@@@Z 000000018003995c     libucrt:wcstombs.obj
 0004:00001968       $pdata$_wcstombs_s_l       0000000180039968     libucrt:wcstombs.obj
 0004:00001974       $pdata$_isctype_l          0000000180039974     libucrt:isctype.obj
 0004:00001980       $pdata$?InternalGetLocaleInfoA@@YAHQEAU__crt_locale_pointers@@QEB_WKQEADH@Z 0000000180039980     libucrt:getlocaleinfoa.obj
 0004:0000198c       $pdata$__acrt_GetLocaleInfoA 000000018003998c     libucrt:getlocaleinfoa.obj
 0004:00001998       $pdata$__acrt_GetStringTypeA 0000000180039998     libucrt:getstringtypea.obj
 0004:000019a4       $pdata$?__acrt_LCMapStringA_stat@@YAHPEAU__crt_locale_pointers@@PEB_WKPEBDHPEADHHH@Z 00000001800399a4     libucrt:lcmapstringa.obj
 0004:000019b0       $pdata$__acrt_LCMapStringA 00000001800399b0     libucrt:lcmapstringa.obj
 0004:000019bc       $pdata$_wcsicmp            00000001800399bc     libucrt:wcsicmp.obj
 0004:000019c8       $pdata$_wcsicmp_l          00000001800399c8     libucrt:wcsicmp.obj
 0004:000019d4       $pdata$_isleadbyte_l       00000001800399d4     libucrt:_wctype.obj
 0004:000019e0       $pdata$_call_matherr       00000001800399e0     libucrt:libm_error.obj
 0004:000019ec       $pdata$_exception_enabled  00000001800399ec     libucrt:libm_error.obj
 0004:000019f8       $pdata$_handle_error       00000001800399f8     libucrt:libm_error.obj
 0004:00001a04       $pdata$iswctype            0000000180039a04     libucrt:iswctype.obj
 0004:00001a10       $pdata$__acrt_free_locale  0000000180039a10     libucrt:locale_refcounting.obj
 0004:00001a1c       $pdata$__acrt_locale_free_lc_time_if_unreferenced 0000000180039a1c     libucrt:locale_refcounting.obj
 0004:00001a28       $pdata$__acrt_release_locale_ref 0000000180039a28     libucrt:locale_refcounting.obj
 0004:00001a34       $pdata$__acrt_update_thread_locale_data 0000000180039a34     libucrt:locale_refcounting.obj
 0004:00001a40       $pdata$_updatetlocinfoEx_nolock 0000000180039a40     libucrt:locale_refcounting.obj
 0004:00001a4c       $pdata$__acrt_locale_free_monetary 0000000180039a4c     libucrt:initmon.obj
 0004:00001a58       $pdata$__acrt_locale_initialize_monetary 0000000180039a58     libucrt:initmon.obj
 0004:00001a64       $pdata$__acrt_locale_free_numeric 0000000180039a64     libucrt:initnum.obj
 0004:00001a70       $pdata$__acrt_locale_initialize_numeric 0000000180039a70     libucrt:initnum.obj
 0004:00001a7c       $pdata$?free_crt_array_internal@@YAXQEAPEBX_K@Z 0000000180039a7c     libucrt:inittime.obj
 0004:00001a88       $pdata$?initialize_lc_time@@YA_NQEAU__crt_lc_time_data@@QEAU__crt_locale_data@@@Z 0000000180039a88     libucrt:inittime.obj
 0004:00001a94       $pdata$__acrt_locale_free_time 0000000180039a94     libucrt:inittime.obj
 0004:00001aa0       $pdata$__acrt_locale_initialize_time 0000000180039aa0     libucrt:inittime.obj
 0004:00001aac       $pdata$wcscat_s            0000000180039aac     libucrt:wcscat_s.obj
 0004:00001ab8       $pdata$wcsncpy_s           0000000180039ab8     libucrt:wcsncpy_s.obj
 0004:00001ac4       $pdata$GetLocaleNameFromDefault 0000000180039ac4     libucrt:get_qualified_locale.obj
 0004:00001ad0       $pdata$GetLocaleNameFromLangCountry 0000000180039ad0     libucrt:get_qualified_locale.obj
 0004:00001adc       $pdata$GetLocaleNameFromLanguage 0000000180039adc     libucrt:get_qualified_locale.obj
 0004:00001ae8       $pdata$LangCountryEnumProcEx 0000000180039ae8     libucrt:get_qualified_locale.obj
 0004:00001af4       $pdata$LanguageEnumProcEx  0000000180039af4     libucrt:get_qualified_locale.obj
 0004:00001b00       $pdata$ProcessCodePage     0000000180039b00     libucrt:get_qualified_locale.obj
 0004:00001b0c       $pdata$TestDefaultCountry  0000000180039b0c     libucrt:get_qualified_locale.obj
 0004:00001b18       $pdata$TranslateName       0000000180039b18     libucrt:get_qualified_locale.obj
 0004:00001b24       $pdata$__acrt_get_qualified_locale 0000000180039b24     libucrt:get_qualified_locale.obj
 0004:00001b30       $pdata$CountryEnumProc     0000000180039b30     libucrt:getqloc_downlevel.obj
 0004:00001b3c       $pdata$GetLcidFromLangCountry 0000000180039b3c     libucrt:getqloc_downlevel.obj
 0004:00001b48       $pdata$GetLcidFromLanguage 0000000180039b48     libucrt:getqloc_downlevel.obj
 0004:00001b54       $pdata$LangCountryEnumProc 0000000180039b54     libucrt:getqloc_downlevel.obj
 0004:00001b60       $pdata$LanguageEnumProc    0000000180039b60     libucrt:getqloc_downlevel.obj
 0004:00001b6c       $pdata$ProcessCodePage     0000000180039b6c     libucrt:getqloc_downlevel.obj
 0004:00001b78       $pdata$TestDefaultLanguage 0000000180039b78     libucrt:getqloc_downlevel.obj
 0004:00001b84       $pdata$TranslateName       0000000180039b84     libucrt:getqloc_downlevel.obj
 0004:00001b90       $pdata$__acrt_get_qualified_locale_downlevel 0000000180039b90     libucrt:getqloc_downlevel.obj
 0004:00001b9c       $pdata$__acrt_fp_strflt_to_string 0000000180039b9c     libucrt:_fptostr.obj
 0004:00001ba8       $pdata$?divide@__crt_strtox@@YA_KAEAUbig_integer@1@AEBU21@@Z 0000000180039ba8     libucrt:cfout.obj
 0004:00001bb4       $pdata$5$?divide@__crt_strtox@@YA_KAEAUbig_integer@1@AEBU21@@Z 0000000180039bb4     libucrt:cfout.obj
 0004:00001bc0       $pdata$6$?divide@__crt_strtox@@YA_KAEAUbig_integer@1@AEBU21@@Z 0000000180039bc0     libucrt:cfout.obj
 0004:00001bcc       $pdata$__acrt_fltout       0000000180039bcc     libucrt:cfout.obj
 0004:00001bd8       $pdata$memcpy_s            0000000180039bd8     libucrt:cfout.obj
 0004:00001be4       $pdata$_isatty             0000000180039be4     libucrt:isatty.obj
 0004:00001bf0       $pdata$__acrt_lowio_create_handle_array 0000000180039bf0     libucrt:osfinfo.obj
 0004:00001bfc       $pdata$__acrt_lowio_destroy_handle_array 0000000180039bfc     libucrt:osfinfo.obj
 0004:00001c08       $pdata$__acrt_lowio_ensure_fh_exists 0000000180039c08     libucrt:osfinfo.obj
 0004:00001c14       $pdata$_free_osfhnd        0000000180039c14     libucrt:osfinfo.obj
 0004:00001c20       $pdata$_get_osfhandle      0000000180039c20     libucrt:osfinfo.obj
 0004:00001c38       $pdata$_getfpcontrolword   0000000180039c38     libucrt:_fenvutils.obj
 0004:00001c44       $pdata$_getfpstatusword    0000000180039c44     libucrt:_fenvutils.obj
 0004:00001c50       $pdata$_setfpstatusword    0000000180039c50     libucrt:_fenvutils.obj
 0004:00001c5c       $pdata$?GetTableIndexFromLocaleName@@YAHPEB_W@Z 0000000180039c5c     libucrt:lcidtoname_downlevel.obj
 0004:00001c68       $pdata$__acrt_DownlevelLCIDToLocaleName 0000000180039c68     libucrt:lcidtoname_downlevel.obj
 0004:00001c74       $pdata$__acrt_DownlevelLocaleNameToLCID 0000000180039c74     libucrt:lcidtoname_downlevel.obj
 0004:00001c80       $pdata$?initialize_multibyte@@YAHXZ 0000000180039c80     libucrt:multibyte_initializer.obj
 0004:00001c8c       $pdata$_msize              0000000180039c8c     libucrt:msize.obj
 0004:00001c98       $pdata$_putwch_nolock      0000000180039c98     libucrt:putwch.obj
 0004:00001ca4       $pdata$??$translate_text_mode_nolock@_W@@YAHHQEA_W_K@Z 0000000180039ca4     libucrt:read.obj
 0004:00001cb0       $pdata$?translate_ansi_or_utf8_nolock@@YAHHQEAD_KQEA_W1@Z 0000000180039cb0     libucrt:read.obj
 0004:00001cbc       $pdata$_read               0000000180039cbc     libucrt:read.obj
 0004:00001cc8       $pdata$_read_nolock        0000000180039cc8     libucrt:read.obj
 0004:00001cd4       $pdata$strncpy_s           0000000180039cd4     libucrt:strncpy_s.obj
 0004:00001ce0       $pdata$_towlower_l         0000000180039ce0     libucrt:towlower.obj
 0004:00001cec       $pdata$??$common_xtox@K_W@@YAHKQEA_W_KI_N@Z 0000000180039cec     libucrt:xtoa.obj
 0004:00001cf8       $pdata$??$common_xtox_s@K_W@@YAHKQEA_W_KI_N@Z 0000000180039cf8     libucrt:xtoa.obj
 0004:00001d04       $pdata$_itow_s             0000000180039d04     libucrt:xtoa.obj
 0004:00001d10       $pdata$_wcsnicmp           0000000180039d10     libucrt:wcsnicmp.obj
 0004:00001d1c       $pdata$_wcsnicmp_l         0000000180039d1c     libucrt:wcsnicmp.obj
 0004:00001d28       $pdata$fegetenv            0000000180039d28     libucrt:fegetenv.obj
 0004:00001d34       $pdata$fesetenv            0000000180039d34     libucrt:fesetenv.obj
 0004:00001d40       $pdata$feholdexcept        0000000180039d40     libucrt:feholdexcept.obj
 0004:00001d58       $pdata$_clearfp            0000000180039d58     libucrt:ieee.obj
 0004:00001d64       $pdata$common_control87    0000000180039d64     libucrt:ieee.obj
 0004:00001d70       $pdata$__dcrt_lowio_initialize_console_output 0000000180039d70     libucrt:initcon.obj
 0004:00001d7c       $pdata$__dcrt_terminate_console_output 0000000180039d7c     libucrt:initcon.obj
 0004:00001d88       $pdata$__acrt_LCMapStringW 0000000180039d88     libucrt:lcmapstringw.obj
 0004:00001d94       $pdata$__acrt_initialize_fma3 0000000180039d94     libucrt:fma3_available.obj
 0004:00001da0       $pdata$_log10_special      0000000180039da0     libucrt:log_special.obj
 0004:00001dac       $pdata$_log_special_common 0000000180039dac     libucrt:log_special.obj
 0004:00001db8       $pdata$?DloadAcquireSectionWriteAccess@@YAXXZ 0000000180039db8     DelayImp:delayhlp.obj
 0004:00001dc4       $pdata$?DloadGetSRWLockFunctionPointers@@YAEXZ 0000000180039dc4     DelayImp:delayhlp.obj
 0004:00001dd0       $pdata$?DloadMakePermanentImageCommit@@YAXPEAX_K@Z 0000000180039dd0     DelayImp:delayhlp.obj
 0004:00001ddc       $pdata$?DloadObtainSection@@YAPEAXPEAK0@Z 0000000180039ddc     DelayImp:delayhlp.obj
 0004:00001de8       $pdata$?DloadProtectSection@@YAXKPEAK@Z 0000000180039de8     DelayImp:delayhlp.obj
 0004:00001df4       $pdata$?DloadReleaseSectionWriteAccess@@YAXXZ 0000000180039df4     DelayImp:delayhlp.obj
 0004:00001e00       $pdata$__delayLoadHelper2  0000000180039e00     DelayImp:delayhlp.obj
 0004:00001e0c       $pdata$__GSHandlerCheck    0000000180039e0c     LIBCMT:_gshandler_.obj
 0004:00001e18       $pdata$__GSHandlerCheckCommon 0000000180039e18     LIBCMT:_gshandler_.obj
 0004:00001e24       $pdata$__GSHandlerCheck_EH 0000000180039e24     LIBCMT:gshandlereh.obj
 0004:00001e3c       $pdata$_IsNonwritableInCurrentImage 0000000180039e3c     LIBCMT:pesect.obj
 0004:00001e48       $pdata$strrchr             0000000180039e48     libvcruntime:strrchr.obj
 0004:00001e54       $pdata$wcschr              0000000180039e54     libvcruntime:wcschr.obj
 0004:00001e6c       $pdata$__scrt_is_nonwritable_in_current_image$filt$0 0000000180039e6c     LIBCMT:utility.obj
 0004:00001e78       $pdata$?fin$0@?0??dllmain_crt_process_attach@@YAHQEAUHINSTANCE__@@QEAX@Z@4HA 0000000180039e78     LIBCMT:dll_dllmain.obj
 0004:00001e84       $pdata$?fin$0@?0??dllmain_crt_process_detach@@YAH_N@Z@4HA 0000000180039e84     LIBCMT:dll_dllmain.obj
 0004:00001e90       $pdata$?filt$0@?0??dllmain_dispatch@@YAHQEAUHINSTANCE__@@KQEAX@Z@4HA 0000000180039e90     LIBCMT:dll_dllmain.obj
 0004:00001e9c       $pdata$?dtor$0@?0???0?$basic_ostream@DU?$char_traits@D@std@@@std@@QEAA@PEAV?$basic_streambuf@DU?$char_traits@D@std@@@1@_N@Z@4HA 0000000180039e9c     libcpmt:cout.obj
 0004:00001ea8       $pdata$?dtor$0@?0??_Getcat@?$codecvt@DDU_Mbstatet@@@std@@SA_KPEAPEBVfacet@locale@2@PEBV42@@Z@4HA 0000000180039ea8     libcpmt:cout.obj
 0004:00001eb4       $pdata$__CxxCallCatchBlock$filt$0 0000000180039eb4     libvcruntime:frame.obj
 0004:00001ec0       $pdata$__CxxCallCatchBlock$fin$1 0000000180039ec0     libvcruntime:frame.obj
 0004:00001ecc       $pdata$__DestructExceptionObject$filt$0 0000000180039ecc     libvcruntime:frame.obj
 0004:00001ed8       $pdata$__FrameUnwindToState$filt$0 0000000180039ed8     libvcruntime:frame.obj
 0004:00001ee4       $pdata$__FrameUnwindToState$fin$1 0000000180039ee4     libvcruntime:frame.obj
 0004:00001ef0       $pdata$_CallSETranslator$filt$0 0000000180039ef0     libvcruntime:trnsctrl.obj
 0004:00001efc       $pdata$_query_new_handler$fin$0 0000000180039efc     libucrt:new_handler.obj
 0004:00001f08       $pdata$?filt$0@?0??common_exit@@YAXHW4_crt_exit_cleanup_mode@@W4_crt_exit_return_mode@@@Z@4HA 0000000180039f08     libucrt:exit.obj
 0004:00001f14       $pdata$?fin$1@?0??common_exit@@YAXHW4_crt_exit_cleanup_mode@@W4_crt_exit_return_mode@@@Z@4HA 0000000180039f14     libucrt:exit.obj
 0004:00001f20       $pdata$?fin$0@?0???$?RV<lambda_e24bbb7b643b32fcea6fa61b31d4c984>@@AEAV<lambda_275893d493268fdec8709772e3fcec0e>@@V<lambda_9d71df4d7cf3f480f8d633942495c3b0>@@@?$__crt_seh_guarded_call@H@@QEAAH$$QEAV<lambda_e24bbb7b643b32fcea6fa61b31d4c984>@@AEAV<lambda_275893d493268fdec8709772e3fcec0e>@@$$QEAV<lambda_9d71df4d7cf3f480f8d633942495c3b0>@@@Z@4HA 0000000180039f20     libucrt:onexit.obj
 0004:00001f2c       $pdata$common_flush_all$fin$0 0000000180039f2c     libucrt:fflush.obj
 0004:00001f38       $pdata$common_flush_all$fin$1 0000000180039f38     libucrt:fflush.obj
 0004:00001f44       $pdata$fflush$fin$0        0000000180039f44     libucrt:fflush.obj
 0004:00001f44       $pdata$fclose$fin$0        0000000180039f44     libucrt:fclose.obj
 0004:00001f50       $pdata$fgetc$fin$0         0000000180039f50     libucrt:fgetc.obj
 0004:00001f5c       $pdata$fputc$fin$0         0000000180039f5c     libucrt:fputc.obj
 0004:00001f68       $pdata$?fin$0@?0???$common_ftell@_J@@YA_JV__crt_stdio_stream@@@Z@4HA 0000000180039f68     libucrt:ftell.obj
 0004:00001f68       $pdata$?fin$0@?0??common_fseek@@YAHV__crt_stdio_stream@@_JH@Z@4HA 0000000180039f68     libucrt:fseek.obj
 0004:00001f74       $pdata$?fin$0@?0???$?RV<lambda_5d4c3fee44080f75d5d9762853974fe0>@@AEAV<lambda_532e024f4337e6fc7ad266c2bef9f4ed>@@V<lambda_c87bdc10097eb2402edb8ba9bdf0697b>@@@?$__crt_seh_guarded_call@_K@@QEAA_K$$QEAV<lambda_5d4c3fee44080f75d5d9762853974fe0>@@AEAV<lambda_532e024f4337e6fc7ad266c2bef9f4ed>@@$$QEAV<lambda_c87bdc10097eb2402edb8ba9bdf0697b>@@@Z@4HA 0000000180039f74     libucrt:fwrite.obj
 0004:00001f74       $pdata$?fin$0@?0???$?RV<lambda_7a5ef57ff966f610505f1d28a3d40618>@@AEAV<lambda_b721fa326cdb32351d23dfa67958c160>@@V<lambda_5e0fb27672408a07956fe59e48ccb2aa>@@@?$__crt_seh_guarded_call@H@@QEAAH$$QEAV<lambda_7a5ef57ff966f610505f1d28a3d40618>@@AEAV<lambda_b721fa326cdb32351d23dfa67958c160>@@$$QEAV<lambda_5e0fb27672408a07956fe59e48ccb2aa>@@@Z@4HA 0000000180039f74     libucrt:setvbuf.obj
 0004:00001f80       $pdata$ungetc$fin$0        0000000180039f80     libucrt:ungetc.obj
 0004:00001f8c       $pdata$setlocale$fin$0     0000000180039f8c     libucrt:setlocale.obj
 0004:00001f98       $pdata$?fin$0@?0???$?RV<lambda_5df02c53a8f32f81fd64e5bbb78039f1>@@AEAV<lambda_2af78c5f5901b1372d98f9ab3177dfa6>@@AEAV<lambda_f51fe5fd7c79a33db34fc9310f277369>@@@?$__crt_seh_guarded_call@X@@QEAAX$$QEAV<lambda_5df02c53a8f32f81fd64e5bbb78039f1>@@AEAV<lambda_2af78c5f5901b1372d98f9ab3177dfa6>@@AEAV<lambda_f51fe5fd7c79a33db34fc9310f277369>@@@Z@4HA 0000000180039f98     libucrt:wsetlocale.obj
 0004:00001fa4       $pdata$raise$fin$0         0000000180039fa4     libucrt:signal.obj
 0004:00001fb0       $pdata$__acrt_lowio_ensure_fh_exists$fin$0 0000000180039fb0     libucrt:osfinfo.obj
 0004:00001fb0       $pdata$__acrt_initialize_lowio$fin$0 0000000180039fb0     libucrt:ioinit.obj
 0004:00001fbc       $pdata$_ctrlfp$filt$0      0000000180039fbc     libucrt:fpctrl.obj
 0004:00001fbc       $pdata$common_control87$filt$0 0000000180039fbc     libucrt:ieee.obj
 0004:00001fc8       $pdata$?fin$0@?0???$?RV<lambda_c36588078e9f5dfd39652860aa6b3aaf>@@AEAV<lambda_ec61778202f4f5fc7e7711acc23c3bca>@@V<lambda_dc9d2797ccde5d239b4a0efae8ebd7db>@@@?$__crt_seh_guarded_call@P6AXH@Z@@QEAAP6AXH@Z$$QEAV<lambda_c36588078e9f5dfd39652860aa6b3aaf>@@AEAV<lambda_ec61778202f4f5fc7e7711acc23c3bca>@@$$QEAV<lambda_dc9d2797ccde5d239b4a0efae8ebd7db>@@@Z@4HA 0000000180039fc8     libucrt:signal.obj
 0004:00001fc8       $pdata$?fin$0@?0???$?RV<lambda_630b2aca97f6d20d5b5ea6529ea6b6af>@@AEAV<lambda_af91936f1d075d609f72d9d8cba980af>@@V<lambda_e82fa975f615b5c7c7b0e4d178fdae67>@@@?$__crt_seh_guarded_call@H@@QEAAH$$QEAV<lambda_630b2aca97f6d20d5b5ea6529ea6b6af>@@AEAV<lambda_af91936f1d075d609f72d9d8cba980af>@@$$QEAV<lambda_e82fa975f615b5c7c7b0e4d178fdae67>@@@Z@4HA 0000000180039fc8     libucrt:winapi_thunks.obj
 0004:00001fc8       $pdata$?fin$0@?0???$?RV<lambda_99476a1ad63dd22509b5d3e65b0ffc95>@@AEAV<lambda_ad1ced32f4ac17aa236e5ef05d6b3b7c>@@V<lambda_f7424dd8d45958661754dc4f2697e9c3>@@@?$__crt_seh_guarded_call@X@@QEAAX$$QEAV<lambda_99476a1ad63dd22509b5d3e65b0ffc95>@@AEAV<lambda_ad1ced32f4ac17aa236e5ef05d6b3b7c>@@$$QEAV<lambda_f7424dd8d45958661754dc4f2697e9c3>@@@Z@4HA 0000000180039fc8     libucrt:mbctype.obj
 0004:00001fc8       $pdata$?fin$0@?0???$?RV<lambda_46352004c1216016012b18bd6f87e700>@@AEAV<lambda_3bd07e1a1191394380780325891bf33f>@@V<lambda_334532d3f185bcaa59b5be82d7d22bff>@@@?$__crt_seh_guarded_call@X@@QEAAX$$QEAV<lambda_46352004c1216016012b18bd6f87e700>@@AEAV<lambda_3bd07e1a1191394380780325891bf33f>@@$$QEAV<lambda_334532d3f185bcaa59b5be82d7d22bff>@@@Z@4HA 0000000180039fc8     libucrt:per_thread_data.obj
 0004:00001fc8       $pdata$?fin$0@?0???$?RV<lambda_5e887d1dcbef67a5eb4283622ba103bf>@@AEAV<lambda_4466841279450cc726390878d4a41900>@@V<lambda_341c25c0346d94847f1f3c463c57e077>@@@?$__crt_seh_guarded_call@X@@QEAAX$$QEAV<lambda_5e887d1dcbef67a5eb4283622ba103bf>@@AEAV<lambda_4466841279450cc726390878d4a41900>@@$$QEAV<lambda_341c25c0346d94847f1f3c463c57e077>@@@Z@4HA 0000000180039fc8     libucrt:per_thread_data.obj
 0004:00001fc8       $pdata$?fin$0@?0???$?RV<lambda_d67e8342c384adda8f857579ab50b2ae>@@AEAV<lambda_30712929f77e709619002f448b6a9510>@@V<lambda_4525336fd7e478d965fb7ca7a337cad8>@@@?$__crt_seh_guarded_call@X@@QEAAX$$QEAV<lambda_d67e8342c384adda8f857579ab50b2ae>@@AEAV<lambda_30712929f77e709619002f448b6a9510>@@$$QEAV<lambda_4525336fd7e478d965fb7ca7a337cad8>@@@Z@4HA 0000000180039fc8     libucrt:wsetlocale.obj
 0004:00001fc8       $pdata$?fin$0@?0???$?RV<lambda_72d1df2b273a38828b1ce30cbf4cdab5>@@AEAV<lambda_876a65b173b8412d3a47c70a915b0cf4>@@V<lambda_41932305e351933ebe8f8be3ed8bb5dc>@@@?$__crt_seh_guarded_call@X@@QEAAX$$QEAV<lambda_72d1df2b273a38828b1ce30cbf4cdab5>@@AEAV<lambda_876a65b173b8412d3a47c70a915b0cf4>@@$$QEAV<lambda_41932305e351933ebe8f8be3ed8bb5dc>@@@Z@4HA 0000000180039fc8     libucrt:per_thread_data.obj
 0004:00001fc8       $pdata$?fin$0@?0???$?RV<lambda_fb3a7dec4e47f37f22dae91bb15c9095>@@AEAV<lambda_698284760c8add0bfb0756c19673e34b>@@V<lambda_dfb8eca1e75fef3034a8fb18dd509707>@@@?$__crt_seh_guarded_call@X@@QEAAX$$QEAV<lambda_fb3a7dec4e47f37f22dae91bb15c9095>@@AEAV<lambda_698284760c8add0bfb0756c19673e34b>@@$$QEAV<lambda_dfb8eca1e75fef3034a8fb18dd509707>@@@Z@4HA 0000000180039fc8     libucrt:per_thread_data.obj
 0004:00001fc8       $pdata$?fin$0@?0???$?RV<lambda_b8c45f8f788dd370798f47cfe8ac3a86>@@AEAV<lambda_4e60a939b0d047cfe11ddc22648dfba9>@@V<lambda_332c3edc96d0294ec56c57d38c1cdfd5>@@@?$__crt_seh_guarded_call@H@@QEAAH$$QEAV<lambda_b8c45f8f788dd370798f47cfe8ac3a86>@@AEAV<lambda_4e60a939b0d047cfe11ddc22648dfba9>@@$$QEAV<lambda_332c3edc96d0294ec56c57d38c1cdfd5>@@@Z@4HA 0000000180039fc8     libucrt:onexit.obj
 0004:00001fd4       $pdata$__acrt_update_thread_multibyte_data$fin$0 0000000180039fd4     libucrt:mbctype.obj
 0004:00001fe0       $pdata$_fcloseall$fin$0    0000000180039fe0     libucrt:closeall.obj
 0004:00001fec       $pdata$?fin$0@?0???$?RV<lambda_bfedae4ebbf01fab1bb6dcc6a9e276e0>@@AEAV<lambda_2fe9b910cf3cbf4a0ab98a02ba45b3ec>@@V<lambda_237c231691f317818eb88cc1d5d642d6>@@@?$__crt_seh_guarded_call@H@@QEAAH$$QEAV<lambda_bfedae4ebbf01fab1bb6dcc6a9e276e0>@@AEAV<lambda_2fe9b910cf3cbf4a0ab98a02ba45b3ec>@@$$QEAV<lambda_237c231691f317818eb88cc1d5d642d6>@@@Z@4HA 0000000180039fec     libucrt:close.obj
 0004:00001fec       $pdata$?fin$0@?0???$?RV<lambda_b521505b218e5242e90febf6bfebc422>@@AEAV<lambda_6978c1fb23f02e42e1d9e99668cc68aa>@@V<lambda_314360699dd331753a4119843814e9a7>@@@?$__crt_seh_guarded_call@H@@QEAAH$$QEAV<lambda_b521505b218e5242e90febf6bfebc422>@@AEAV<lambda_6978c1fb23f02e42e1d9e99668cc68aa>@@$$QEAV<lambda_314360699dd331753a4119843814e9a7>@@@Z@4HA 0000000180039fec     libucrt:commit.obj
 0004:00001ff8       $pdata$_write$fin$0        0000000180039ff8     libucrt:write.obj
 0004:00001ff8       $pdata$?fin$0@?0???$common_lseek@_J@@YA_JH_JH@Z@4HA 0000000180039ff8     libucrt:lseek.obj
 0004:00001ff8       $pdata$_read$fin$0         0000000180039ff8     libucrt:read.obj
 0004:00002004       $pdata$__acrt_update_thread_locale_data$fin$0 000000018003a004     libucrt:locale_refcounting.obj
 0004:00002004       $pdata$__acrt_uninitialize_locale$fin$0 000000018003a004     libucrt:wsetlocale.obj
 0004:00002010       $pdata$_IsNonwritableInCurrentImage$filt$0 000000018003a010     LIBCMT:pesect.obj
 0004:0000201c       $pdata$??__Fcout@std@@YAXXZ 000000018003a01c     libcpmt:cout.obj
 0004:00002028       $pdata$??__F_Fac_tidy_reg@std@@YAXXZ 000000018003a028     libcpmt:locale0.obj
 0004:00002034       $pdata$??__Fclassic_locale@std@@YAXXZ 000000018003a034     libcpmt:locale0.obj
 0004:00002040       $pdata$??__Finit_atexit@@YAXXZ 000000018003a040     libcpmt:iosptrs.obj
 0006:00000000       __guard_fids__             000000018003c000     libucrt:initialization.obj
 0006:00000060       __guard_fids___acrt_initialize_ptd 000000018003c060     libucrt:per_thread_data.obj
 0006:00000064       __guard_fids__             000000018003c064     libucrt:wsetlocale.obj
 0006:0000007c       __guard_fids_??$?RV<lambda_630b2aca97f6d20d5b5ea6529ea6b6af>@@AEAV<lambda_af91936f1d075d609f72d9d8cba980af>@@V<lambda_e82fa975f615b5c7c7b0e4d178fdae67>@@@?$__crt_seh_guarded_call@H@@QEAAH$$QEAV<lambda_630b2aca97f6d20d5b5ea6529ea6b6af>@@AEAV<lambda_af91936f1d075d609f72d9d8cba980af>@@$$QEAV<lambda_e82fa975f615b5c7c7b0e4d178fdae67>@@@Z 000000018003c07c     libucrt:winapi_thunks.obj
 0006:00000080       __guard_fids__             000000018003c080     libucrt:stdio_initializer.obj
 0006:00000084       __guard_fids__             000000018003c084     libucrt:stdio_initializer.obj
 0006:00000088       __guard_fids__             000000018003c088     libucrt:locale_initializer.obj
 0006:0000008c       __guard_fids_GetLocaleNameFromLangCountry 000000018003c08c     libucrt:get_qualified_locale.obj
 0006:00000090       __guard_fids_GetLocaleNameFromLanguage 000000018003c090     libucrt:get_qualified_locale.obj
 0006:00000094       __guard_fids___acrt_get_qualified_locale_downlevel 000000018003c094     libucrt:getqloc_downlevel.obj
 0006:00000098       __guard_fids_GetLcidFromLangCountry 000000018003c098     libucrt:getqloc_downlevel.obj
 0006:0000009c       __guard_fids_GetLcidFromLanguage 000000018003c09c     libucrt:getqloc_downlevel.obj
 0006:000000a0       __guard_fids__             000000018003c0a0     libucrt:multibyte_initializer.obj
 0006:000000a4       __guard_fids__             000000018003c0a4     libucrt:timeset_initializer.obj
 0006:000000a8       __guard_fids__             000000018003c0a8     libucrt:console_output_initializer.obj
 0006:000000ac       __guard_fids__             000000018003c0ac     libucrt:fma3_initializer.obj
 0006:000000b0       __guard_fids__             000000018003c0b0     LIBCMT:thread_safe_statics.obj
 0006:000000b4       __guard_fids_?__scrt_initialize_thread_safe_statics@@YAHXZ 000000018003c0b4     LIBCMT:thread_safe_statics.obj
 0006:000000b8       __guard_fids_?dllmain_crt_process_attach@@YAHQEAUHINSTANCE__@@QEAX@Z 000000018003c0b8     LIBCMT:dll_dllmain.obj
 0006:000000c0       __guard_fids_?dllmain_dispatch@@YAHQEAUHINSTANCE__@@KQEAX@Z 000000018003c0c0     LIBCMT:dll_dllmain.obj
 0006:000000c4       __guard_fids__             000000018003c0c4     LIBCMT:throw_bad_alloc.obj
 0006:000000cc       __guard_fids__             000000018003c0cc     LIBCMT:throw_bad_alloc.obj
 0006:000000d4       __guard_fids__             000000018003c0d4     LIBCMT:throw_bad_alloc.obj
 0006:000000dc       __guard_fids__             000000018003c0dc     LIBCMT:guard_support.obj
 0006:000000e0       __guard_fids__             000000018003c0e0     LIBCMT:std_type_info_static.obj
 0006:000000e4       __guard_fids_??__Einitlocks@std@@YAXXZ 000000018003c0e4     libcpmt:xlock.obj
 0006:000000e8       __guard_fids__             000000018003c0e8     libcpmt:xlock.obj
 0006:000000ec       __guard_fids_??__Einitlocks@@YAXXZ 000000018003c0ec     libcpmt:cout.obj
 0006:000000f0       __guard_fids_??__Efout@std@@YAXXZ 000000018003c0f0     libcpmt:cout.obj
 0006:000000f4       __guard_fids_??__Ecout@std@@YAXXZ 000000018003c0f4     libcpmt:cout.obj
 0006:000000f8       __guard_fids__             000000018003c0f8     libcpmt:cout.obj
 0006:00000100       __guard_fids__             000000018003c100     libcpmt:cout.obj
 0006:00000108       __guard_fids__             000000018003c108     libcpmt:cout.obj
 0006:00000114       __guard_fids__             000000018003c114     libcpmt:cout.obj
 0006:00000140       __guard_fids__             000000018003c140     libcpmt:cout.obj
 0006:00000158       __guard_fids__             000000018003c158     libcpmt:cout.obj
 0006:00000160       __guard_fids__             000000018003c160     libcpmt:cout.obj
 0006:00000178       __guard_fids__             000000018003c178     libcpmt:cout.obj
 0006:00000180       __guard_fids__             000000018003c180     libcpmt:cout.obj
 0006:00000184       __guard_fids__             000000018003c184     libcpmt:cout.obj
 0006:000001c0       __guard_fids__             000000018003c1c0     libcpmt:cout.obj
 0006:000001fc       __guard_fids__             000000018003c1fc     libcpmt:cout.obj
 0006:00000200       __guard_fids__             000000018003c200     libcpmt:cout.obj
 0006:00000204       __guard_fids__             000000018003c204     libcpmt:cout.obj
 0006:0000022c       __guard_fids__             000000018003c22c     libcpmt:cout.obj
 0006:00000230       __guard_fids__             000000018003c230     libcpmt:cout.obj
 0006:00000234       __guard_fids__             000000018003c234     libcpmt:cout.obj
 0006:00000238       __guard_fids__             000000018003c238     libcpmt:cout.obj
 0006:0000023c       __guard_fids_??__E_Fac_tidy_reg@std@@YAXXZ 000000018003c23c     libcpmt:locale0.obj
 0006:00000240       __guard_fids_?_Setgloballocale@locale@std@@CAXPEAX@Z 000000018003c240     libcpmt:locale0.obj
 0006:00000244       __guard_fids_??__Eclassic_locale@std@@YAXXZ 000000018003c244     libcpmt:locale0.obj
 0006:00000248       __guard_fids__             000000018003c248     libcpmt:locale0.obj
 0006:00000254       __guard_fids__             000000018003c254     libcpmt:locale0.obj
 0006:00000258       __guard_fids__             000000018003c258     libcpmt:locale0.obj
 0006:0000025c       __guard_fids__             000000018003c25c     libcpmt:xthrow.obj
 0006:00000264       __guard_fids__             000000018003c264     libcpmt:xthrow.obj
 0006:0000026c       __guard_fids__             000000018003c26c     libcpmt:xthrow.obj
 0006:00000274       __guard_fids_??__Einitlocks@std@@YAXXZ 000000018003c274     libcpmt:iosptrs.obj
 0006:00000278       __guard_fids_??__Einit_atexit@@YAXXZ 000000018003c278     libcpmt:iosptrs.obj
 0006:0000027c       __guard_fids__             000000018003c27c     libcpmt:iosptrs.obj
 0006:00000280       __guard_fids__             000000018003c280     libcpmt:iosptrs.obj
 0006:00000284       __guard_fids__             000000018003c284     libcpmt:locale.obj
 0006:000002b0       __guard_fids__             000000018003c2b0     libcpmt:locale.obj
 0006:000002d0       __guard_fids__             000000018003c2d0     libcpmt:winapisupp.obj
 0006:000002d4       __guard_fids__             000000018003c2d4     libvcruntime:telemetry.obj
 0006:000002d8       __guard_fids_?TraceLoggingRegister@__vcrt_trace_logging_provider@@YAJPEBU_TlgProvider_t@1@PEBU_GUID@@P6AX1KE_K2PEAU_EVENT_FILTER_DESCRIPTOR@@PEAX@Z4@Z 000000018003c2d8     libvcruntime:telemetry.obj
 0006:000002dc       __guard_fids__             000000018003c2dc     libvcruntime:frame.obj
 0006:000002e0       __guard_fids__             000000018003c2e0     libvcruntime:frame.obj
 0006:000002e8       __guard_fids__UnwindNestedFrames 000000018003c2e8     libvcruntime:trnsctrl.obj
 0006:000002ec       __guard_fids___vcrt_initialize_ptd 000000018003c2ec     libvcruntime:per_thread_data.obj
 0007:00000060       $R000000                   000000018003d060     * linker generated manifest res *

 Exports

  ordinal    name

        1    _register_addon_
