 MSC_drone

 Timestamp is 573bda3d (Tue May 17 21:58:05 2016)

 Preferred load address is 0000000180000000

 Start         Length     Name                   Class
 0001:00000000 000001dbH .text                   CODE
 0001:000001e0 000007bcH .text$di                CODE
 0001:000009a0 000329f0H .text$mn                CODE
 0001:00033390 00000012H .text$mn$00             CODE
 0001:000333b0 000004f0H .text$x                 CODE
 0001:000338a0 00000594H .text$yd                CODE
 0002:00000000 00000518H .idata$5                DATA
 0002:00000518 00000010H .00cfg                  DATA
 0002:00000528 00000008H .CRT$XCA                DATA
 0002:00000530 00000038H .CRT$XCC                DATA
 0002:00000568 00000010H .CRT$XCL                DATA
 0002:00000578 00000038H .CRT$XCU                DATA
 0002:000005b0 00000008H .CRT$XCZ                DATA
 0002:000005b8 00000008H .CRT$XIA                DATA
 0002:000005c0 00000038H .CRT$XIC                DATA
 0002:000005f8 00000008H .CRT$XIZ                DATA
 0002:00000600 00000008H .CRT$XLA                DATA
 0002:00000608 00000008H .CRT$XLZ                DATA
 0002:00000610 00000008H .CRT$XPA                DATA
 0002:00000618 00000010H .CRT$XPX                DATA
 0002:00000628 00000008H .CRT$XPXA               DATA
 0002:00000630 00000008H .CRT$XPZ                DATA
 0002:00000638 00000008H .CRT$XTA                DATA
 0002:00000640 00000008H .CRT$XTZ                DATA
 0002:00000650 0000d8d4H .rdata                  DATA
 0002:0000df28 00000028H .rdata$T                DATA
 0002:0000df50 00001064H .rdata$r                DATA
 0002:0000efb8 00000010H .rdata$zETW0            DATA
 0002:0000efc8 00000077H .rdata$zETW1            DATA
 0002:0000f03f 0000002cH .rdata$zETW2            DATA
 0002:0000f06b 00000001H .rdata$zETW9            DATA
 0002:0000f06c 000004f8H .rdata$zzzdbg           DATA
 0002:0000f568 00000008H .rtc$IAA                DATA
 0002:0000f570 00000008H .rtc$IZZ                DATA
 0002:0000f578 00000008H .rtc$TAA                DATA
 0002:0000f580 00000008H .rtc$TZZ                DATA
 0002:0000f590 00002564H .xdata                  DATA
 0002:00011af8 000002a4H .xdata$x                DATA
 0002:00011d9c 00000020H .didat$2                DATA
 0002:00011dbc 00000020H .didat$3                DATA
 0002:00011de0 00000078H .didat$4                DATA
 0002:00011e58 0000037aH .didat$6                DATA
 0002:000121d8 00000078H .didat$7                DATA
 0002:00012250 00000052H .edata                  DATA
 0002:000122a4 00000064H .idata$2                DATA
 0002:00012308 00000014H .idata$3                DATA
 0002:00012320 00000518H .idata$4                DATA
 0002:00012838 00001496H .idata$6                DATA
 0003:00000000 00000e10H .data                   DATA
 0003:00000e10 0000078cH .data$r                 DATA
 0003:000015a0 00000078H .didat$5                DATA
 0003:00001620 000019a4H .bss                    DATA
 0004:00000000 00002718H .pdata                  DATA
 0005:00000000 000000b4H .gfids$x                DATA
 0005:000000b4 00000240H .gfids$y                DATA
 0006:00000000 00000001H .tls                    DATA
 0006:00000004 00000004H .tls$                   DATA
 0006:00000008 00000001H .tls$ZZZ                DATA
 0007:00000000 00000058H .rsrc$01                DATA
 0007:00000060 00000180H .rsrc$02                DATA

  Address         Publics by Value              Rva+Base               Lib:Object

 0000:00000000       __guard_iat_table          0000000000000000     <absolute>
 0000:00000000       __guard_iat_count          0000000000000000     <absolute>
 0000:00000000       __guard_longjmp_table      0000000000000000     <absolute>
 0000:00000000       __guard_longjmp_count      0000000000000000     <absolute>
 0000:00000000       __guard_fids_count         0000000000000000     <absolute>
 0000:00000000       ___safe_se_handler_table   0000000000000000     <absolute>
 0000:00000000       ___safe_se_handler_count   0000000000000000     <absolute>
 0000:00000000       __guard_fids_table         0000000000000000     <absolute>
 0000:00000100       __guard_flags              0000000000000100     <absolute>
 0000:00000000       __ImageBase                0000000180000000     <linker-defined>
 0001:00000000       ?TraceLoggingRegister@__vcrt_trace_logging_provider@@YAJPEBU_TlgProvider_t@1@PEBU_GUID@@P6AX1KE_K2PEAU_EVENT_FILTER_DESCRIPTOR@@PEAX@Z4@Z 0000000180001000 f i libvcruntime:telemetry.obj
 0001:0000007c       ?_TlgEnableCallback@__vcrt_trace_logging_provider@@YAXPEBU_GUID@@KE_K1PEAU_EVENT_FILTER_DESCRIPTOR@@PEAX@Z 000000018000107c f i libvcruntime:telemetry.obj
 0001:00000140       ?_TlgWrite@__vcrt_trace_logging_provider@@YAJPEBU_TlgProvider_t@1@PEFBXPEBU_GUID@@2IPEAU_EVENT_DATA_DESCRIPTOR@@@Z 0000000180001140 f i libvcruntime:telemetry.obj
 0001:000009a0       ?_Deallocate@std@@YAXPEAX_K1@Z 00000001800019a0 f i Image_PreProcessing.obj
 0001:00000a10       ??0Mat@cv@@QEAA@AEBV01@@Z  0000000180001a10 f i Image_PreProcessing.obj
 0001:00000af0       ??1Mat@cv@@QEAA@XZ         0000000180001af0 f i Image_PreProcessing.obj
 0001:00000b80       ??4Mat@cv@@QEAAAEAV01@AEBV01@@Z 0000000180001b80 f i Image_PreProcessing.obj
 0001:00000ca0       ?CannyThreshold@@YA?AVMat@cv@@V12@HH@Z 0000000180001ca0 f   Image_PreProcessing.obj
 0001:000014f0       ?CannyThreshold_MemoryImages@@YA?AVMat@cv@@V12@@Z 00000001800024f0 f   Image_PreProcessing.obj
 0001:00002460       ?padImageMatrix@@YA?AVMat@cv@@V12@HH@Z 0000000180003460 f   Image_PreProcessing.obj
 0001:00002680       ??$_Destroy_range@U?$_Wrap_alloc@V?$allocator@V?$vector@V?$Point_@H@cv@@V?$allocator@V?$Point_@H@cv@@@std@@@std@@@std@@@std@@@std@@YAXPEAV?$vector@V?$Point_@H@cv@@V?$allocator@V?$Point_@H@cv@@@std@@@0@0AEAU?$_Wrap_alloc@V?$allocator@V?$vector@V?$Point_@H@cv@@V?$allocator@V?$Point_@H@cv@@@std@@@std@@@std@@@0@U_Nonscalar_ptr_iterator_tag@0@@Z 0000000180003680 f i Image_PreProcessing.obj
 0001:00002750       __local_stdio_printf_options 0000000180003750 f i Learn_Image.obj
 0001:00002760       printf                     0000000180003760 f i Learn_Image.obj
 0001:000027c0       sprintf_s                  00000001800037c0 f i Learn_Image.obj
 0001:00002820       ?what@exception@stdext@@UEBAPEBDXZ 0000000180003820 f i Learn_Image.obj
 0001:00002840       ?static_delete@?$small_any_policy@H@anyimpl@cvflann@@UEAAXPEAPEAX@Z 0000000180003840 f i Learn_Image.obj
 0001:00002840       __except_validate_context_record 0000000180003840 f i libvcruntime:jbcxrval.obj
 0001:00002840       ?_Orphan_all@?$_Vector_alloc@U?$_Vec_base_types@NV?$allocator@N@std@@@std@@@std@@QEAAXXZ 0000000180003840 f i MSC_Fast_optmz_warp_pthread.obj
 0001:00002840       ?static_delete@?$small_any_policy@I@anyimpl@cvflann@@UEAAXPEAPEAX@Z 0000000180003840 f i Learn_Image.obj
 0001:00002840       _guard_check_icall_nop     0000000180003840 f i LIBCMT:guard_support.obj
 0001:00002840       ?_Doraise@exception@stdext@@MEBAXXZ 0000000180003840 f i Learn_Image.obj
 0001:00002840       ?_Destroy@?$vector@NV?$allocator@N@std@@@std@@IEAAXPEAN0@Z 0000000180003840 f i MSC_Fast_optmz_warp_pthread.obj
 0001:00002840       ?move@?$big_any_policy@Uempty_any@anyimpl@cvflann@@@anyimpl@cvflann@@UEAAXPEBQEAXPEAPEAX@Z 0000000180003840 f i Learn_Image.obj
 0001:00002840       ?_Unlock@?$basic_streambuf@DU?$char_traits@D@std@@@std@@UEAAXXZ 0000000180003840 f i libcpmt:cout.obj
 0001:00002840       ?imbue@?$basic_streambuf@DU?$char_traits@D@std@@@std@@MEAAXAEBVlocale@2@@Z 0000000180003840 f i libcpmt:cout.obj
 0001:00002840       ?static_delete@?$small_any_policy@_N@anyimpl@cvflann@@UEAAXPEAPEAX@Z 0000000180003840 f i Learn_Image.obj
 0001:00002840       ?static_delete@?$small_any_policy@M@anyimpl@cvflann@@UEAAXPEAPEAX@Z 0000000180003840 f i Learn_Image.obj
 0001:00002840       ?_Lock@?$basic_streambuf@DU?$char_traits@D@std@@@std@@UEAAXXZ 0000000180003840 f i libcpmt:cout.obj
 0001:00002840       ?static_delete@?$small_any_policy@PEBD@anyimpl@cvflann@@UEAAXPEAPEAX@Z 0000000180003840 f i Learn_Image.obj
 0001:00002850       ??_Eexception@stdext@@UEAAPEAXI@Z 0000000180003850 f i * CIL library *:* CIL module *
 0001:00002850       ??_Gruntime_error@std@@UEAAPEAXI@Z 0000000180003850 f i Learn_Image.obj
 0001:00002850       ??_Gexception@stdext@@UEAAPEAXI@Z 0000000180003850 f i Learn_Image.obj
 0001:00002850       ??_Eruntime_error@std@@UEAAPEAXI@Z 0000000180003850 f i * CIL library *:* CIL module *
 0001:00002880       ??0_Locinfo@std@@QEAA@PEBD@Z 0000000180003880 f i Learn_Image.obj
 0001:00002940       ??1_Locinfo@std@@QEAA@XZ   0000000180003940 f i Learn_Image.obj
 0001:000029e0       ??_G_Facet_base@std@@UEAAPEAXI@Z 00000001800039e0 f i Learn_Image.obj
 0001:000029e0       ??_E_Facet_base@std@@UEAAPEAXI@Z 00000001800039e0 f i * CIL library *:* CIL module *
 0001:00002a10       ?_Incref@facet@locale@std@@UEAAXXZ 0000000180003a10 f i Learn_Image.obj
 0001:00002a20       ?_Decref@facet@locale@std@@UEAAPEAV_Facet_base@3@XZ 0000000180003a20 f i Learn_Image.obj
 0001:00002a40       ?_Getcat@?$ctype@D@std@@SA_KPEAPEBVfacet@locale@2@PEBV42@@Z 0000000180003a40 f i Learn_Image.obj
 0001:00002b00       ?do_tolower@?$ctype@D@std@@MEBADD@Z 0000000180003b00 f i Learn_Image.obj
 0001:00002b10       ?do_tolower@?$ctype@D@std@@MEBAPEBDPEADPEBD@Z 0000000180003b10 f i Learn_Image.obj
 0001:00002b70       ?do_toupper@?$ctype@D@std@@MEBADD@Z 0000000180003b70 f i Learn_Image.obj
 0001:00002b80       ?do_toupper@?$ctype@D@std@@MEBAPEBDPEADPEBD@Z 0000000180003b80 f i Learn_Image.obj
 0001:00002be0       ?do_widen@?$ctype@D@std@@MEBADD@Z 0000000180003be0 f i Learn_Image.obj
 0001:00002be0       ?do_narrow@?$ctype@D@std@@MEBADDD@Z 0000000180003be0 f i Learn_Image.obj
 0001:00002bf0       ?do_widen@?$ctype@D@std@@MEBAPEBDPEBD0PEAD@Z 0000000180003bf0 f i Learn_Image.obj
 0001:00002c10       ?do_narrow@?$ctype@D@std@@MEBAPEBDPEBD0DPEAD@Z 0000000180003c10 f i Learn_Image.obj
 0001:00002c30       ??_E?$ctype@D@std@@MEAAPEAXI@Z 0000000180003c30 f i * CIL library *:* CIL module *
 0001:00002c30       ??_G?$ctype@D@std@@MEAAPEAXI@Z 0000000180003c30 f i Learn_Image.obj
 0001:00002ca0       ??_Eerror_category@std@@UEAAPEAXI@Z 0000000180003ca0 f i * CIL library *:* CIL module *
 0001:00002ca0       ??_Gerror_category@std@@UEAAPEAXI@Z 0000000180003ca0 f i Learn_Image.obj
 0001:00002ca0       ??_E_Iostream_error_category@std@@UEAAPEAXI@Z 0000000180003ca0 f i * CIL library *:* CIL module *
 0001:00002ca0       ??_G_Iostream_error_category@std@@UEAAPEAXI@Z 0000000180003ca0 f i Learn_Image.obj
 0001:00002cd0       ?default_error_condition@error_category@std@@UEBA?AVerror_condition@2@H@Z 0000000180003cd0 f i Learn_Image.obj
 0001:00002ce0       ?equivalent@error_category@std@@UEBA_NHAEBVerror_condition@2@@Z 0000000180003ce0 f i Learn_Image.obj
 0001:00002d40       ?equivalent@error_category@std@@UEBA_NAEBVerror_code@2@H@Z 0000000180003d40 f i Learn_Image.obj
 0001:00002d60       ?_Makestr@_System_error@std@@CA?AV?$basic_string@DU?$char_traits@D@std@@V?$allocator@D@2@@2@Verror_code@2@V32@@Z 0000000180003d60 f i Learn_Image.obj
 0001:00002ec0       ??_Efailure@ios_base@std@@UEAAPEAXI@Z 0000000180003ec0 f i * CIL library *:* CIL module *
 0001:00002ec0       ??_E_System_error@std@@UEAAPEAXI@Z 0000000180003ec0 f i * CIL library *:* CIL module *
 0001:00002ec0       ??_Gfailure@ios_base@std@@UEAAPEAXI@Z 0000000180003ec0 f i Learn_Image.obj
 0001:00002ec0       ??_G_System_error@std@@UEAAPEAXI@Z 0000000180003ec0 f i Learn_Image.obj
 0001:00002ef0       ?name@_Iostream_error_category@std@@UEBAPEBDXZ 0000000180003ef0 f i Learn_Image.obj
 0001:00002f00       ?message@_Iostream_error_category@std@@UEBA?AV?$basic_string@DU?$char_traits@D@std@@V?$allocator@D@2@@2@H@Z 0000000180003f00 f i Learn_Image.obj
 0001:00002f80       ?clear@ios_base@std@@QEAAXH_N@Z 0000000180003f80 f i Learn_Image.obj
 0001:000034c0       ??0MatConstIterator@cv@@QEAA@PEBVMat@1@@Z 00000001800044c0 f i Learn_Image.obj
 0001:00003570       ?print@?$big_any_policy@W4flann_centers_init_t@cvflann@@@anyimpl@cvflann@@UEAAXAEAV?$basic_ostream@DU?$char_traits@D@std@@@std@@PEBQEAX@Z 0000000180004570 f i Learn_Image.obj
 0001:00003570       ?print@?$big_any_policy@W4flann_algorithm_t@cvflann@@@anyimpl@cvflann@@UEAAXAEAV?$basic_ostream@DU?$char_traits@D@std@@@std@@PEBQEAX@Z 0000000180004570 f i Learn_Image.obj
 0001:00003580       ?Verify_Object@@YANVMat@cv@@0N@Z 0000000180004580 f   Learn_Image.obj
 0001:000036a0       ?type@?$typed_base_any_policy@W4flann_algorithm_t@cvflann@@@anyimpl@cvflann@@UEAAAEBVtype_info@@XZ 00000001800046a0 f i Learn_Image.obj
 0001:000036b0       ?get_size@?$typed_base_any_policy@I@anyimpl@cvflann@@UEAA_KXZ 00000001800046b0 f i Learn_Image.obj
 0001:000036b0       ?get_size@?$typed_base_any_policy@M@anyimpl@cvflann@@UEAA_KXZ 00000001800046b0 f i Learn_Image.obj
 0001:000036b0       ?get_size@?$typed_base_any_policy@H@anyimpl@cvflann@@UEAA_KXZ 00000001800046b0 f i Learn_Image.obj
 0001:000036b0       ?get_size@?$typed_base_any_policy@W4flann_centers_init_t@cvflann@@@anyimpl@cvflann@@UEAA_KXZ 00000001800046b0 f i Learn_Image.obj
 0001:000036b0       ?get_size@?$typed_base_any_policy@W4flann_algorithm_t@cvflann@@@anyimpl@cvflann@@UEAA_KXZ 00000001800046b0 f i Learn_Image.obj
 0001:000036c0       ?get_value@?$big_any_policy@W4flann_algorithm_t@cvflann@@@anyimpl@cvflann@@UEAAPEAXPEAPEAX@Z 00000001800046c0 f i Learn_Image.obj
 0001:000036c0       ?get_value@?$big_any_policy@Uempty_any@anyimpl@cvflann@@@anyimpl@cvflann@@UEAAPEAXPEAPEAX@Z 00000001800046c0 f i Learn_Image.obj
 0001:000036c0       ?get_value@?$big_any_policy@V?$basic_string@DU?$char_traits@D@std@@V?$allocator@D@2@@std@@@anyimpl@cvflann@@UEAAPEAXPEAPEAX@Z 00000001800046c0 f i Learn_Image.obj
 0001:000036c0       ?get_value@?$big_any_policy@W4flann_centers_init_t@cvflann@@@anyimpl@cvflann@@UEAAPEAXPEAPEAX@Z 00000001800046c0 f i Learn_Image.obj
 0001:000036d0       ?move@?$big_any_policy@W4flann_centers_init_t@cvflann@@@anyimpl@cvflann@@UEAAXPEBQEAXPEAPEAX@Z 00000001800046d0 f i Learn_Image.obj
 0001:000036d0       ?move@?$big_any_policy@W4flann_algorithm_t@cvflann@@@anyimpl@cvflann@@UEAAXPEBQEAXPEAPEAX@Z 00000001800046d0 f i Learn_Image.obj
 0001:000036e0       ?clone@?$big_any_policy@W4flann_algorithm_t@cvflann@@@anyimpl@cvflann@@UEAAXPEBQEAXPEAPEAX@Z 00000001800046e0 f i Learn_Image.obj
 0001:000036e0       ?clone@?$big_any_policy@W4flann_centers_init_t@cvflann@@@anyimpl@cvflann@@UEAAXPEBQEAXPEAPEAX@Z 00000001800046e0 f i Learn_Image.obj
 0001:00003710       ?copy_from_value@?$big_any_policy@W4flann_algorithm_t@cvflann@@@anyimpl@cvflann@@UEAAXPEBXPEAPEAX@Z 0000000180004710 f i Learn_Image.obj
 0001:00003710       ?copy_from_value@?$big_any_policy@W4flann_centers_init_t@cvflann@@@anyimpl@cvflann@@UEAAXPEBXPEAPEAX@Z 0000000180004710 f i Learn_Image.obj
 0001:00003740       ?static_delete@?$big_any_policy@W4flann_centers_init_t@cvflann@@@anyimpl@cvflann@@UEAAXPEAPEAX@Z 0000000180004740 f i Learn_Image.obj
 0001:00003740       ?static_delete@?$big_any_policy@W4flann_algorithm_t@cvflann@@@anyimpl@cvflann@@UEAAXPEAPEAX@Z 0000000180004740 f i Learn_Image.obj
 0001:00003780       ?type@?$typed_base_any_policy@W4flann_centers_init_t@cvflann@@@anyimpl@cvflann@@UEAAAEBVtype_info@@XZ 0000000180004780 f i Learn_Image.obj
 0001:00003790       ??1?$basic_string@DU?$char_traits@D@std@@V?$allocator@D@2@@std@@QEAA@XZ 0000000180004790 f i Learn_Image.obj
 0001:00003820       ??6?$basic_ostream@DU?$char_traits@D@std@@@std@@QEAAAEAV01@I@Z 0000000180004820 f i Learn_Image.obj
 0001:000039c0       ??6?$basic_ostream@DU?$char_traits@D@std@@@std@@QEAAAEAV01@H@Z 00000001800049c0 f i Learn_Image.obj
 0001:00003b60       ??0sentry@?$basic_ostream@DU?$char_traits@D@std@@@std@@QEAA@AEAV12@@Z 0000000180004b60 f i Learn_Image.obj
 0001:00003bd0       ?do_put@?$num_put@DV?$ostreambuf_iterator@DU?$char_traits@D@std@@@std@@@std@@MEBA?AV?$ostreambuf_iterator@DU?$char_traits@D@std@@@2@V32@AEAVios_base@2@DPEBX@Z 0000000180004bd0 f i Learn_Image.obj
 0001:00003c70       ?do_put@?$num_put@DV?$ostreambuf_iterator@DU?$char_traits@D@std@@@std@@@std@@MEBA?AV?$ostreambuf_iterator@DU?$char_traits@D@std@@@2@V32@AEAVios_base@2@DO@Z 0000000180004c70 f i Learn_Image.obj
 0001:00003ef0       ?do_put@?$num_put@DV?$ostreambuf_iterator@DU?$char_traits@D@std@@@std@@@std@@MEBA?AV?$ostreambuf_iterator@DU?$char_traits@D@std@@@2@V32@AEAVios_base@2@DN@Z 0000000180004ef0 f i Learn_Image.obj
 0001:00004170       ?do_put@?$num_put@DV?$ostreambuf_iterator@DU?$char_traits@D@std@@@std@@@std@@MEBA?AV?$ostreambuf_iterator@DU?$char_traits@D@std@@@2@V32@AEAVios_base@2@D_K@Z 0000000180005170 f i Learn_Image.obj
 0001:00004270       ?do_put@?$num_put@DV?$ostreambuf_iterator@DU?$char_traits@D@std@@@std@@@std@@MEBA?AV?$ostreambuf_iterator@DU?$char_traits@D@std@@@2@V32@AEAVios_base@2@D_J@Z 0000000180005270 f i Learn_Image.obj
 0001:00004370       ?do_put@?$num_put@DV?$ostreambuf_iterator@DU?$char_traits@D@std@@@std@@@std@@MEBA?AV?$ostreambuf_iterator@DU?$char_traits@D@std@@@2@V32@AEAVios_base@2@DK@Z 0000000180005370 f i Learn_Image.obj
 0001:00004470       ?do_put@?$num_put@DV?$ostreambuf_iterator@DU?$char_traits@D@std@@@std@@@std@@MEBA?AV?$ostreambuf_iterator@DU?$char_traits@D@std@@@2@V32@AEAVios_base@2@DJ@Z 0000000180005470 f i Learn_Image.obj
 0001:00004570       ?do_put@?$num_put@DV?$ostreambuf_iterator@DU?$char_traits@D@std@@@std@@@std@@MEBA?AV?$ostreambuf_iterator@DU?$char_traits@D@std@@@2@V32@AEAVios_base@2@D_N@Z 0000000180005570 f i Learn_Image.obj
 0001:00004a60       ?assign@?$basic_string@DU?$char_traits@D@std@@V?$allocator@D@2@@std@@QEAAAEAV12@_KD@Z 0000000180005a60 f i Learn_Image.obj
 0001:00004b70       ?assign@?$basic_string@DU?$char_traits@D@std@@V?$allocator@D@2@@std@@QEAAAEAV12@PEBD_K@Z 0000000180005b70 f i Learn_Image.obj
 0001:00004cb0       ?assign@?$basic_string@DU?$char_traits@D@std@@V?$allocator@D@2@@std@@QEAAAEAV12@AEBV12@_K1@Z 0000000180005cb0 f i Learn_Image.obj
 0001:00004de0       ?append@?$basic_string@DU?$char_traits@D@std@@V?$allocator@D@2@@std@@QEAAAEAV12@PEBD_K@Z 0000000180005de0 f i Learn_Image.obj
 0001:00004f30       ?append@?$basic_string@DU?$char_traits@D@std@@V?$allocator@D@2@@std@@QEAAAEAV12@AEBV12@_K1@Z 0000000180005f30 f i Learn_Image.obj
 0001:00005060       ??_E?$codecvt@DDU_Mbstatet@@@std@@MEAAPEAXI@Z 0000000180006060 f i libcpmt:cout.obj
 0001:00005060       ??_G?$codecvt@DDU_Mbstatet@@@std@@MEAAPEAXI@Z 0000000180006060 f i libcpmt:cout.obj
 0001:00005060       ??_E?$num_put@DV?$ostreambuf_iterator@DU?$char_traits@D@std@@@std@@@std@@MEAAPEAXI@Z 0000000180006060 f i * CIL library *:* CIL module *
 0001:00005060       ??_G?$num_put@DV?$ostreambuf_iterator@DU?$char_traits@D@std@@@std@@@std@@MEAAPEAXI@Z 0000000180006060 f i Learn_Image.obj
 0001:00005090       ?do_truename@?$numpunct@D@std@@MEBA?AV?$basic_string@DU?$char_traits@D@std@@V?$allocator@D@2@@2@XZ 0000000180006090 f i Learn_Image.obj
 0001:000050e0       ?do_falsename@?$numpunct@D@std@@MEBA?AV?$basic_string@DU?$char_traits@D@std@@V?$allocator@D@2@@2@XZ 00000001800060e0 f i Learn_Image.obj
 0001:00005130       ?do_grouping@?$numpunct@D@std@@MEBA?AV?$basic_string@DU?$char_traits@D@std@@V?$allocator@D@2@@2@XZ 0000000180006130 f i Learn_Image.obj
 0001:00005180       ?do_thousands_sep@?$numpunct@D@std@@MEBADXZ 0000000180006180 f i Learn_Image.obj
 0001:00005190       ?do_decimal_point@?$numpunct@D@std@@MEBADXZ 0000000180006190 f i Learn_Image.obj
 0001:000051a0       ?_Iput@?$num_put@DV?$ostreambuf_iterator@DU?$char_traits@D@std@@@std@@@std@@AEBA?AV?$ostreambuf_iterator@DU?$char_traits@D@std@@@2@V32@AEAVios_base@2@DPEAD_K@Z 00000001800061a0 f i Learn_Image.obj
 0001:00005990       ?_Fput@?$num_put@DV?$ostreambuf_iterator@DU?$char_traits@D@std@@@std@@@std@@AEBA?AV?$ostreambuf_iterator@DU?$char_traits@D@std@@@2@V32@AEAVios_base@2@DPEBD_K@Z 0000000180006990 f i Learn_Image.obj
 0001:00006210       ?deallocate@?$_Wrap_alloc@V?$allocator@D@std@@@std@@QEAAXPEAD_K@Z 0000000180007210 f i Learn_Image.obj
 0001:00006270       ?erase@?$basic_string@DU?$char_traits@D@std@@V?$allocator@D@2@@std@@QEAAAEAV12@_K0@Z 0000000180007270 f i Learn_Image.obj
 0001:00006340       ?append@?$basic_string@DU?$char_traits@D@std@@V?$allocator@D@2@@std@@QEAAAEAV12@_KD@Z 0000000180007340 f i Learn_Image.obj
 0001:00006450       ?assign@?$basic_string@DU?$char_traits@D@std@@V?$allocator@D@2@@std@@QEAAAEAV12@$$QEAV12@@Z 0000000180007450 f i Learn_Image.obj
 0001:00006550       ?flush@?$basic_ostream@DU?$char_traits@D@std@@@std@@QEAAAEAV12@XZ 0000000180007550 f i Learn_Image.obj
 0001:00006640       ??_E?$numpunct@D@std@@MEAAPEAXI@Z 0000000180007640 f i * CIL library *:* CIL module *
 0001:00006640       ??_G?$numpunct@D@std@@MEAAPEAXI@Z 0000000180007640 f i Learn_Image.obj
 0001:000066a0       ?_Copy@?$basic_string@DU?$char_traits@D@std@@V?$allocator@D@2@@std@@QEAAX_K0@Z 00000001800076a0 f i Learn_Image.obj
 0001:00006830       ?widen@?$basic_ios@DU?$char_traits@D@std@@@std@@QEBADD@Z 0000000180007830 f i Learn_Image.obj
 0001:000068d0       ??$use_facet@V?$ctype@D@std@@@std@@YAAEBV?$ctype@D@0@AEBVlocale@0@@Z 00000001800078d0 f i Learn_Image.obj
 0001:00006a00       ??$_Immortalize@V_Iostream_error_category@std@@@std@@YAAEAV_Iostream_error_category@0@XZ 0000000180007a00 f i Learn_Image.obj
 0001:00006a80       ??0?$Mat_@M@cv@@QEAA@HH@Z  0000000180007a80 f i Learn_Image.obj
 0001:00006b00       ??$?6U?$char_traits@D@std@@@std@@YAAEAV?$basic_ostream@DU?$char_traits@D@std@@@0@AEAV10@PEBD@Z 0000000180007b00 f i Learn_Image.obj
 0001:00006d50       ??$?6DU?$char_traits@D@std@@V?$allocator@D@1@@std@@YAAEAV?$basic_ostream@DU?$char_traits@D@std@@@0@AEAV10@AEBV?$basic_string@DU?$char_traits@D@std@@V?$allocator@D@2@@0@@Z 0000000180007d50 f i Learn_Image.obj
 0001:00006f90       ??$use_facet@V?$num_put@DV?$ostreambuf_iterator@DU?$char_traits@D@std@@@std@@@std@@@std@@YAAEBV?$num_put@DV?$ostreambuf_iterator@DU?$char_traits@D@std@@@std@@@0@AEBVlocale@0@@Z 0000000180007f90 f i Learn_Image.obj
 0001:00007110       ??$use_facet@V?$numpunct@D@std@@@std@@YAAEBV?$numpunct@D@0@AEBVlocale@0@@Z 0000000180008110 f i Learn_Image.obj
 0001:00007240       ?type@?$typed_base_any_policy@Uempty_any@anyimpl@cvflann@@@anyimpl@cvflann@@UEAAAEBVtype_info@@XZ 0000000180008240 f i Learn_Image.obj
 0001:00007250       DllMain                    0000000180008250 f i LIBCMT:dll_dllmain_stub.obj
 0001:00007250       ?do_encoding@codecvt_base@std@@MEBAHXZ 0000000180008250 f i libcpmt:cout.obj
 0001:00007250       ?get_size@?$typed_base_any_policy@Uempty_any@anyimpl@cvflann@@@anyimpl@cvflann@@UEAA_KXZ 0000000180008250 f i Learn_Image.obj
 0001:00007250       ?do_max_length@codecvt_base@std@@MEBAHXZ 0000000180008250 f i libcpmt:cout.obj
 0001:00007250       ?get_size@?$typed_base_any_policy@_N@anyimpl@cvflann@@UEAA_KXZ 0000000180008250 f i Learn_Image.obj
 0001:00007260       ?_Getcat@?$numpunct@D@std@@SA_KPEAPEBVfacet@locale@2@PEBV42@@Z 0000000180008260 f i Learn_Image.obj
 0001:00007320       ?print@?$big_any_policy@Uempty_any@anyimpl@cvflann@@@anyimpl@cvflann@@UEAAXAEAV?$basic_ostream@DU?$char_traits@D@std@@@std@@PEBQEAX@Z 0000000180008320 f i Learn_Image.obj
 0001:00007330       ?clone@?$big_any_policy@Uempty_any@anyimpl@cvflann@@@anyimpl@cvflann@@UEAAXPEBQEAXPEAPEAX@Z 0000000180008330 f i Learn_Image.obj
 0001:00007330       ?copy_from_value@?$big_any_policy@Uempty_any@anyimpl@cvflann@@@anyimpl@cvflann@@UEAAXPEBXPEAPEAX@Z 0000000180008330 f i Learn_Image.obj
 0001:00007350       ?static_delete@?$big_any_policy@Uempty_any@anyimpl@cvflann@@@anyimpl@cvflann@@UEAAXPEAPEAX@Z 0000000180008350 f i Learn_Image.obj
 0001:00007390       ?put@?$basic_ostream@DU?$char_traits@D@std@@@std@@QEAAAEAV12@D@Z 0000000180008390 f i Learn_Image.obj
 0001:000074e0       ?_Init@?$numpunct@D@std@@IEAAXAEBV_Locinfo@2@_N@Z 00000001800084e0 f i Learn_Image.obj
 0001:00007660       ?type@?$typed_base_any_policy@PEBD@anyimpl@cvflann@@UEAAAEBVtype_info@@XZ 0000000180008660 f i Learn_Image.obj
 0001:00007670       ?get_size@?$typed_base_any_policy@PEBD@anyimpl@cvflann@@UEAA_KXZ 0000000180008670 f i Learn_Image.obj
 0001:00007680       ?print@?$small_any_policy@PEBD@anyimpl@cvflann@@UEAAXAEAV?$basic_ostream@DU?$char_traits@D@std@@@std@@PEBQEAX@Z 0000000180008680 f i Learn_Image.obj
 0001:00007690       ?get_value@?$small_any_policy@M@anyimpl@cvflann@@UEAAPEAXPEAPEAX@Z 0000000180008690 f i Learn_Image.obj
 0001:00007690       ?get_value@?$small_any_policy@I@anyimpl@cvflann@@UEAAPEAXPEAPEAX@Z 0000000180008690 f i Learn_Image.obj
 0001:00007690       ?get_value@?$small_any_policy@H@anyimpl@cvflann@@UEAAPEAXPEAPEAX@Z 0000000180008690 f i Learn_Image.obj
 0001:00007690       ?get_value@?$small_any_policy@PEBD@anyimpl@cvflann@@UEAAPEAXPEAPEAX@Z 0000000180008690 f i Learn_Image.obj
 0001:00007690       ?get_value@?$small_any_policy@_N@anyimpl@cvflann@@UEAAPEAXPEAPEAX@Z 0000000180008690 f i Learn_Image.obj
 0001:000076a0       ?move@?$small_any_policy@M@anyimpl@cvflann@@UEAAXPEBQEAXPEAPEAX@Z 00000001800086a0 f i Learn_Image.obj
 0001:000076a0       ?move@?$small_any_policy@PEBD@anyimpl@cvflann@@UEAAXPEBQEAXPEAPEAX@Z 00000001800086a0 f i Learn_Image.obj
 0001:000076a0       ?clone@?$small_any_policy@M@anyimpl@cvflann@@UEAAXPEBQEAXPEAPEAX@Z 00000001800086a0 f i Learn_Image.obj
 0001:000076a0       ?clone@?$small_any_policy@I@anyimpl@cvflann@@UEAAXPEBQEAXPEAPEAX@Z 00000001800086a0 f i Learn_Image.obj
 0001:000076a0       ?move@?$small_any_policy@_N@anyimpl@cvflann@@UEAAXPEBQEAXPEAPEAX@Z 00000001800086a0 f i Learn_Image.obj
 0001:000076a0       ?clone@?$small_any_policy@PEBD@anyimpl@cvflann@@UEAAXPEBQEAXPEAPEAX@Z 00000001800086a0 f i Learn_Image.obj
 0001:000076a0       ?clone@?$small_any_policy@_N@anyimpl@cvflann@@UEAAXPEBQEAXPEAPEAX@Z 00000001800086a0 f i Learn_Image.obj
 0001:000076a0       ?move@?$small_any_policy@H@anyimpl@cvflann@@UEAAXPEBQEAXPEAPEAX@Z 00000001800086a0 f i Learn_Image.obj
 0001:000076a0       ?move@?$small_any_policy@I@anyimpl@cvflann@@UEAAXPEBQEAXPEAPEAX@Z 00000001800086a0 f i Learn_Image.obj
 0001:000076a0       ?clone@?$small_any_policy@H@anyimpl@cvflann@@UEAAXPEBQEAXPEAPEAX@Z 00000001800086a0 f i Learn_Image.obj
 0001:000076b0       ?copy_from_value@?$small_any_policy@PEBD@anyimpl@cvflann@@UEAAXPEBXPEAPEAX@Z 00000001800086b0 f i Learn_Image.obj
 0001:000076c0       ??4?$Mat_@M@cv@@QEAAAEAV01@AEBVMat@1@@Z 00000001800086c0 f i Learn_Image.obj
 0001:00007840       ??4?$Mat_@N@cv@@QEAAAEAV01@AEBVMat@1@@Z 0000000180008840 f i Learn_Image.obj
 0001:000079c0       ?type@?$typed_base_any_policy@V?$basic_string@DU?$char_traits@D@std@@V?$allocator@D@2@@std@@@anyimpl@cvflann@@UEAAAEBVtype_info@@XZ 00000001800089c0 f i Learn_Image.obj
 0001:000079d0       ?get_size@?$typed_base_any_policy@V?$basic_string@DU?$char_traits@D@std@@V?$allocator@D@2@@std@@@anyimpl@cvflann@@UEAA_KXZ 00000001800089d0 f i Learn_Image.obj
 0001:000079e0       ?type@?$typed_base_any_policy@I@anyimpl@cvflann@@UEAAAEBVtype_info@@XZ 00000001800089e0 f i Learn_Image.obj
 0001:000079f0       ?type@?$typed_base_any_policy@_N@anyimpl@cvflann@@UEAAAEBVtype_info@@XZ 00000001800089f0 f i Learn_Image.obj
 0001:00007a00       ?type@?$typed_base_any_policy@M@anyimpl@cvflann@@UEAAAEBVtype_info@@XZ 0000000180008a00 f i Learn_Image.obj
 0001:00007a10       ?type@?$typed_base_any_policy@H@anyimpl@cvflann@@UEAAAEBVtype_info@@XZ 0000000180008a10 f i Learn_Image.obj
 0001:00007a20       ?print@?$big_any_policy@V?$basic_string@DU?$char_traits@D@std@@V?$allocator@D@2@@std@@@anyimpl@cvflann@@UEAAXAEAV?$basic_ostream@DU?$char_traits@D@std@@@std@@PEBQEAX@Z 0000000180008a20 f i Learn_Image.obj
 0001:00007a30       ?move@?$big_any_policy@V?$basic_string@DU?$char_traits@D@std@@V?$allocator@D@2@@std@@@anyimpl@cvflann@@UEAAXPEBQEAXPEAPEAX@Z 0000000180008a30 f i Learn_Image.obj
 0001:00007a70       ?clone@?$big_any_policy@V?$basic_string@DU?$char_traits@D@std@@V?$allocator@D@2@@std@@@anyimpl@cvflann@@UEAAXPEBQEAXPEAPEAX@Z 0000000180008a70 f i Learn_Image.obj
 0001:00007ad0       ?copy_from_value@?$big_any_policy@V?$basic_string@DU?$char_traits@D@std@@V?$allocator@D@2@@std@@@anyimpl@cvflann@@UEAAXPEBXPEAPEAX@Z 0000000180008ad0 f i Learn_Image.obj
 0001:00007b30       ?static_delete@?$big_any_policy@V?$basic_string@DU?$char_traits@D@std@@V?$allocator@D@2@@std@@@anyimpl@cvflann@@UEAAXPEAPEAX@Z 0000000180008b30 f i Learn_Image.obj
 0001:00007b80       ?print@?$small_any_policy@_N@anyimpl@cvflann@@UEAAXAEAV?$basic_ostream@DU?$char_traits@D@std@@@std@@PEBQEAX@Z 0000000180008b80 f i Learn_Image.obj
 0001:00007b90       ?copy_from_value@?$small_any_policy@_N@anyimpl@cvflann@@UEAAXPEBXPEAPEAX@Z 0000000180008b90 f i Learn_Image.obj
 0001:00007ba0       ?print@?$small_any_policy@M@anyimpl@cvflann@@UEAAXAEAV?$basic_ostream@DU?$char_traits@D@std@@@std@@PEBQEAX@Z 0000000180008ba0 f i Learn_Image.obj
 0001:00007bb0       ?copy_from_value@?$small_any_policy@I@anyimpl@cvflann@@UEAAXPEBXPEAPEAX@Z 0000000180008bb0 f i Learn_Image.obj
 0001:00007bb0       ?copy_from_value@?$small_any_policy@M@anyimpl@cvflann@@UEAAXPEBXPEAPEAX@Z 0000000180008bb0 f i Learn_Image.obj
 0001:00007bb0       ?copy_from_value@?$small_any_policy@H@anyimpl@cvflann@@UEAAXPEBXPEAPEAX@Z 0000000180008bb0 f i Learn_Image.obj
 0001:00007bc0       ?print@?$small_any_policy@I@anyimpl@cvflann@@UEAAXAEAV?$basic_ostream@DU?$char_traits@D@std@@@std@@PEBQEAX@Z 0000000180008bc0 f i Learn_Image.obj
 0001:00007bd0       ?print@?$small_any_policy@H@anyimpl@cvflann@@UEAAXAEAV?$basic_ostream@DU?$char_traits@D@std@@@std@@PEBQEAX@Z 0000000180008bd0 f i Learn_Image.obj
 0001:00007be0       ??6?$basic_ostream@DU?$char_traits@D@std@@@std@@QEAAAEAV01@M@Z 0000000180008be0 f i Learn_Image.obj
 0001:00007d90       ??6?$basic_ostream@DU?$char_traits@D@std@@@std@@QEAAAEAV01@_N@Z 0000000180008d90 f i Learn_Image.obj
 0001:00007f30       ?SL_MSC@@YAHVMat@cv@@0V?$Size_@H@2@PEAV12@2AEAVTransformationSet@@@Z 0000000180008f30 f   MSC_Fast_optmz_warp_pthread.obj
 0001:00009ac0       ?MapSeekingCircuit@@YAHVMat@cv@@0V?$Size_@H@2@PEAV12@2HV?$vector@VMat@cv@@V?$allocator@VMat@cv@@@std@@@std@@PEAV45@QEAN@Z 000000018000aac0 f   MSC_Fast_optmz_warp_pthread.obj
 0001:0000a7a0       ?ForwardTransform@@YAPEAXPEAX@Z 000000018000b7a0 f   MSC_Fast_optmz_warp_pthread.obj
 0001:0000c300       ?BackwardTransform@@YAPEAXPEAX@Z 000000018000d300 f   MSC_Fast_optmz_warp_pthread.obj
 0001:0000d820       ?UpdateCompetition@@YA?AVMat@cv@@V12@00HN0N@Z 000000018000e820 f   MSC_Fast_optmz_warp_pthread.obj
 0001:0000e950       ?getTransform@@YAXV?$Size_@H@cv@@AEAV?$vector@VMat@cv@@V?$allocator@VMat@cv@@@std@@@std@@1VTransformationSet@@@Z 000000018000f950 f   MSC_Fast_optmz_warp_pthread.obj
 0001:00012380       ?push_back@?$vector@VMat@cv@@V?$allocator@VMat@cv@@@std@@@std@@QEAAXAEBVMat@cv@@@Z 0000000180013380 f i MSC_Fast_optmz_warp_pthread.obj
 0001:00012380       ?push_back@?$vector@VMat@cv@@V?$allocator@VMat@cv@@@std@@@std@@QEAAX$$QEAVMat@cv@@@Z 0000000180013380 f i MSC_Fast_optmz_warp_pthread.obj
 0001:00012420       ??4?$vector@VMat@cv@@V?$allocator@VMat@cv@@@std@@@std@@QEAAAEAV01@AEBV01@@Z 0000000180013420 f i MSC_Fast_optmz_warp_pthread.obj
 0001:00012600       ??0?$vector@VMat@cv@@V?$allocator@VMat@cv@@@std@@@std@@QEAA@AEBV01@@Z 0000000180013600 f i MSC_Fast_optmz_warp_pthread.obj
 0001:000126f0       ?deallocate@?$_Wrap_alloc@V?$allocator@VMat@cv@@@std@@@std@@QEAAXPEAVMat@cv@@_K@Z 00000001800136f0 f i MSC_Fast_optmz_warp_pthread.obj
 0001:00012760       ?_Reserve@?$vector@NV?$allocator@N@std@@@std@@IEAAX_K@Z 0000000180013760 f i MSC_Fast_optmz_warp_pthread.obj
 0001:000127f0       ?_Tidy@?$vector@VMat@cv@@V?$allocator@VMat@cv@@@std@@@std@@IEAAXXZ 00000001800137f0 f i MSC_Fast_optmz_warp_pthread.obj
 0001:000128b0       ?_Reserve@?$vector@VMat@cv@@V?$allocator@VMat@cv@@@std@@@std@@IEAAX_K@Z 00000001800138b0 f i MSC_Fast_optmz_warp_pthread.obj
 0001:00012980       ?_Buy@?$vector@VMat@cv@@V?$allocator@VMat@cv@@@std@@@std@@IEAA_N_K@Z 0000000180013980 f i MSC_Fast_optmz_warp_pthread.obj
 0001:000129f0       ?allocate@?$_Wrap_alloc@V?$allocator@VMat@cv@@@std@@@std@@QEAAPEAVMat@cv@@_K@Z 00000001800139f0 f i MSC_Fast_optmz_warp_pthread.obj
 0001:00012a70       ?_Reallocate@?$vector@NV?$allocator@N@std@@@std@@IEAAX_K@Z 0000000180013a70 f i MSC_Fast_optmz_warp_pthread.obj
 0001:00012be0       ?_Reallocate@?$vector@VMat@cv@@V?$allocator@VMat@cv@@@std@@@std@@IEAAX_K@Z 0000000180013be0 f i MSC_Fast_optmz_warp_pthread.obj
 0001:00012e60       ??$_Ucopy@PEAVMat@cv@@@?$vector@VMat@cv@@V?$allocator@VMat@cv@@@std@@@std@@IEAAPEAVMat@cv@@PEAV23@00@Z 0000000180013e60 f i MSC_Fast_optmz_warp_pthread.obj
 0001:00012ec0       ??0?$_Wrap_alloc@V?$allocator@N@std@@@std@@QEAA@AEBV?$allocator@N@1@@Z 0000000180013ec0 f i MSC_Fast_optmz_warp_pthread.obj
 0001:00012ec0       ?setbuf@?$basic_streambuf@DU?$char_traits@D@std@@@std@@MEAAPEAV12@PEAD_J@Z 0000000180013ec0 f i libcpmt:cout.obj
 0001:00012ed0       ??$_Copy_impl@PEAVMat@cv@@PEAV12@@std@@YAPEAVMat@cv@@PEAV12@00U_Nonscalar_ptr_iterator_tag@0@@Z 0000000180013ed0 f i MSC_Fast_optmz_warp_pthread.obj
 0001:00013030       ??$_Destroy_range@U?$_Wrap_alloc@V?$allocator@VMat@cv@@@std@@@std@@@std@@YAXPEAVMat@cv@@0AEAU?$_Wrap_alloc@V?$allocator@VMat@cv@@@std@@@0@U_Nonscalar_ptr_iterator_tag@0@@Z 0000000180014030 f i MSC_Fast_optmz_warp_pthread.obj
 0001:000130e0       ?ROI_image@@YA?AVMat@cv@@V12@@Z 00000001800140e0 f   region_of_interest.obj
 0001:00013820       ?_Reallocate@?$vector@V?$Point_@H@cv@@V?$allocator@V?$Point_@H@cv@@@std@@@std@@IEAAX_K@Z 0000000180014820 f i region_of_interest.obj
 0001:000139f0       ?DroneControl@@YAXVMat@cv@@0PEAVIsolate@v8@@AEAV?$Local@VObject@v8@@@4@@Z 00000001800149f0 f   jsmsc.obj
 0001:00014900       ?jsmsc@@YAXAEBV?$FunctionCallbackInfo@VValue@v8@@@v8@@@Z 0000000180015900 f   jsmsc.obj
 0001:00014da0       ?CreateFunction@@YAXAEBV?$FunctionCallbackInfo@VValue@v8@@@v8@@@Z 0000000180015da0 f   jsmsc.obj
 0001:00014e50       ?Init@@YAXV?$Local@VObject@v8@@@v8@@0@Z 0000000180015e50 f   jsmsc.obj
 0001:00014e80       ??$NODE_SET_METHOD@V?$Local@VObject@v8@@@v8@@@node@@YAXAEBV?$Local@VObject@v8@@@v8@@PEBDP6AXAEBV?$FunctionCallbackInfo@VValue@v8@@@2@@Z@Z 0000000180015e80 f i jsmsc.obj
 0001:00014f39       __imp_load_?GetCurrent@Isolate@v8@@SAPEAV12@XZ 0000000180015f39 f   node:node.exe
 0001:00014f45       __tailMerge_node_exe       0000000180015f45 f i node:node.exe
 0001:00014fbe       __imp_load_??1HandleScope@v8@@QEAA@XZ 0000000180015fbe f   node:node.exe
 0001:00014fca       __imp_load_??0HandleScope@v8@@QEAA@PEAVIsolate@1@@Z 0000000180015fca f   node:node.exe
 0001:00014fd6       __imp_load_?GetFunction@FunctionTemplate@v8@@QEAA?AV?$Local@VFunction@v8@@@2@XZ 0000000180015fd6 f   node:node.exe
 0001:00014fe2       __imp_load_?New@FunctionTemplate@v8@@SA?AV?$Local@VFunctionTemplate@v8@@@2@PEAVIsolate@2@P6AXAEBV?$FunctionCallbackInfo@VValue@v8@@@2@@ZV?$Local@VValue@v8@@@2@V?$Local@VSignature@v8@@@2@H@Z 0000000180015fe2 f   node:node.exe
 0001:00014fee       __imp_load_?NewFromUtf8@String@v8@@SA?AV?$Local@VString@v8@@@2@PEAVIsolate@2@PEBDW4NewStringType@12@H@Z 0000000180015fee f   node:node.exe
 0001:00014ffa       __imp_load_?New@Number@v8@@SA?AV?$Local@VNumber@v8@@@2@PEAVIsolate@2@N@Z 0000000180015ffa f   node:node.exe
 0001:00015006       __imp_load_?New@Object@v8@@SA?AV?$Local@VObject@v8@@@2@PEAVIsolate@2@@Z 0000000180016006 f   node:node.exe
 0001:00015012       __imp_load_?Set@Object@v8@@QEAA_NV?$Local@VValue@v8@@@2@0@Z 0000000180016012 f   node:node.exe
 0001:0001501e       __imp_load_?SetName@Function@v8@@QEAAXV?$Local@VString@v8@@@2@@Z 000000018001601e f   node:node.exe
 0001:0001502a       __imp_load_node_module_register 000000018001602a f   node:node.exe
 0001:00015036       __imp_load_?Data@Buffer@node@@YAPEADV?$Local@VObject@v8@@@v8@@@Z 0000000180016036 f   node:node.exe
 0001:00015042       __imp_load_?Length@Buffer@node@@YA_KV?$Local@VObject@v8@@@v8@@@Z 0000000180016042 f   node:node.exe
 0001:0001504e       __imp_load_?ToObject@Value@v8@@QEBA?AV?$Local@VObject@v8@@@2@XZ 000000018001604e f   node:node.exe
 0001:0001505a       ?clear@_OutputArray@cv@@UEBAXXZ 000000018001605a f   opencv_core2411:opencv_core2411.dll
 0001:00015060       ?release@_OutputArray@cv@@UEBAXXZ 0000000180016060 f   opencv_core2411:opencv_core2411.dll
 0001:00015066       ?create@_OutputArray@cv@@UEBAXV?$Size_@H@2@HH_NH@Z 0000000180016066 f   opencv_core2411:opencv_core2411.dll
 0001:0001506c       ?create@_OutputArray@cv@@UEBAXHHHH_NH@Z 000000018001606c f   opencv_core2411:opencv_core2411.dll
 0001:00015072       ?create@_OutputArray@cv@@UEBAXHPEBHHH_NH@Z 0000000180016072 f   opencv_core2411:opencv_core2411.dll
 0001:00015078       ?getMatRef@_OutputArray@cv@@UEBAAEAVMat@2@H@Z 0000000180016078 f   opencv_core2411:opencv_core2411.dll
 0001:0001507e       ?needed@_OutputArray@cv@@UEBA_NXZ 000000018001607e f   opencv_core2411:opencv_core2411.dll
 0001:00015084       ?fixedType@_OutputArray@cv@@UEBA_NXZ 0000000180016084 f   opencv_core2411:opencv_core2411.dll
 0001:0001508a       ?fixedSize@_OutputArray@cv@@UEBA_NXZ 000000018001608a f   opencv_core2411:opencv_core2411.dll
 0001:00015090       ?empty@_InputArray@cv@@UEBA_NXZ 0000000180016090 f   opencv_core2411:opencv_core2411.dll
 0001:00015096       ?channels@_InputArray@cv@@UEBAHH@Z 0000000180016096 f   opencv_core2411:opencv_core2411.dll
 0001:0001509c       ?depth@_InputArray@cv@@UEBAHH@Z 000000018001609c f   opencv_core2411:opencv_core2411.dll
 0001:000150a2       ?type@_InputArray@cv@@UEBAHH@Z 00000001800160a2 f   opencv_core2411:opencv_core2411.dll
 0001:000150a8       ?total@_InputArray@cv@@UEBA_KH@Z 00000001800160a8 f   opencv_core2411:opencv_core2411.dll
 0001:000150ae       ?size@_InputArray@cv@@UEBA?AV?$Size_@H@2@H@Z 00000001800160ae f   opencv_core2411:opencv_core2411.dll
 0001:000150b4       ?kind@_InputArray@cv@@UEBAHXZ 00000001800160b4 f   opencv_core2411:opencv_core2411.dll
 0001:000150ba       ?getGpuMat@_InputArray@cv@@UEBA?AVGpuMat@gpu@2@XZ 00000001800160ba f   opencv_core2411:opencv_core2411.dll
 0001:000150c0       ?getGlTexture@_InputArray@cv@@UEBA?AVGlTexture@2@XZ 00000001800160c0 f   opencv_core2411:opencv_core2411.dll
 0001:000150c6       ?getGlBuffer@_InputArray@cv@@UEBA?AVGlBuffer@2@XZ 00000001800160c6 f   opencv_core2411:opencv_core2411.dll
 0001:000150cc       ?getMatVector@_InputArray@cv@@UEBAXAEAV?$vector@VMat@cv@@V?$allocator@VMat@cv@@@std@@@std@@@Z 00000001800160cc f   opencv_core2411:opencv_core2411.dll
 0001:000150d2       ?getMat@_InputArray@cv@@UEBA?AVMat@2@H@Z 00000001800160d2 f   opencv_core2411:opencv_core2411.dll
 0001:000150d8       ??0_Init_locks@std@@QEAA@XZ 00000001800160d8 f   libcpmt:xlock.obj
 0001:00015124       ??0_Lockit@std@@QEAA@H@Z   0000000180016124 f   libcpmt:xlock.obj
 0001:00015160       ??1_Init_locks@std@@QEAA@XZ 0000000180016160 f   libcpmt:xlock.obj
 0001:000151a4       ??1_Lockit@std@@QEAA@XZ    00000001800161a4 f   libcpmt:xlock.obj
 0001:000151d8       ??$use_facet@V?$codecvt@DDU_Mbstatet@@@std@@@std@@YAAEBV?$codecvt@DDU_Mbstatet@@@0@AEBVlocale@0@@Z 00000001800161d8 f i libcpmt:cout.obj
 0001:00015310       ??0?$basic_ostream@DU?$char_traits@D@std@@@std@@QEAA@PEAV?$basic_streambuf@DU?$char_traits@D@std@@@1@_N@Z 0000000180016310 f i libcpmt:cout.obj
 0001:000153d8       ??0?$basic_streambuf@DU?$char_traits@D@std@@@std@@IEAA@XZ 00000001800163d8 f i libcpmt:cout.obj
 0001:00015488       ??0_Init_cout@std@@QEAA@XZ 0000000180016488 f i libcpmt:cout.obj
 0001:000154f4       ??0bad_cast@std@@QEAA@AEBV01@@Z 00000001800164f4 f i libcpmt:cout.obj
 0001:00015534       ??0bad_cast@std@@QEAA@XZ   0000000180016534 f i libcpmt:cout.obj
 0001:00015554       ??0exception@std@@QEAA@AEBV01@@Z 0000000180016554 f i libcpmt:cout.obj
 0001:0001558c       ??1?$basic_filebuf@DU?$char_traits@D@std@@@std@@UEAA@XZ 000000018001658c f i libcpmt:cout.obj
 0001:00015638       ??1?$basic_ios@DU?$char_traits@D@std@@@std@@UEAA@XZ 0000000180016638 f i libcpmt:cout.obj
 0001:0001565c       ??_E?$basic_ostream@DU?$char_traits@D@std@@@std@@$4PPPPPPPM@A@EAAPEAXI@Z 000000018001665c f i libcpmt:cout.obj
 0001:00015668       ??_G?$basic_filebuf@DU?$char_traits@D@std@@@std@@UEAAPEAXI@Z 0000000180016668 f i libcpmt:cout.obj
 0001:00015668       ??_E?$basic_filebuf@DU?$char_traits@D@std@@@std@@UEAAPEAXI@Z 0000000180016668 f i libcpmt:cout.obj
 0001:0001569c       ??_G?$basic_ios@DU?$char_traits@D@std@@@std@@UEAAPEAXI@Z 000000018001669c f i libcpmt:cout.obj
 0001:0001569c       ??_E?$basic_ios@DU?$char_traits@D@std@@@std@@UEAAPEAXI@Z 000000018001669c f i libcpmt:cout.obj
 0001:000156e8       ??_G?$basic_ostream@DU?$char_traits@D@std@@@std@@UEAAPEAXI@Z 00000001800166e8 f i libcpmt:cout.obj
 0001:000156e8       ??_E?$basic_ostream@DU?$char_traits@D@std@@@std@@UEAAPEAXI@Z 00000001800166e8 f i libcpmt:cout.obj
 0001:0001575c       ??_G?$basic_streambuf@DU?$char_traits@D@std@@@std@@UEAAPEAXI@Z 000000018001675c f i libcpmt:cout.obj
 0001:0001575c       ??_E?$basic_streambuf@DU?$char_traits@D@std@@@std@@UEAAPEAXI@Z 000000018001675c f i libcpmt:cout.obj
 0001:000157ac       ??_Ebad_exception@std@@UEAAPEAXI@Z 00000001800167ac f i libvcruntime:frame.obj
 0001:000157ac       ??_Ebad_alloc@std@@UEAAPEAXI@Z 00000001800167ac f i libcpmt:xthrow.obj
 0001:000157ac       ??_Gout_of_range@std@@UEAAPEAXI@Z 00000001800167ac f i libcpmt:xthrow.obj
 0001:000157ac       ??_Glogic_error@std@@UEAAPEAXI@Z 00000001800167ac f i libcpmt:xthrow.obj
 0001:000157ac       ??_Elength_error@std@@UEAAPEAXI@Z 00000001800167ac f i libcpmt:xthrow.obj
 0001:000157ac       ??_Glength_error@std@@UEAAPEAXI@Z 00000001800167ac f i libcpmt:xthrow.obj
 0001:000157ac       ??_Gbad_exception@std@@UEAAPEAXI@Z 00000001800167ac f i libvcruntime:frame.obj
 0001:000157ac       ??_Gbad_alloc@std@@UEAAPEAXI@Z 00000001800167ac f i libcpmt:xthrow.obj
 0001:000157ac       ??_Eexception@std@@UEAAPEAXI@Z 00000001800167ac f i libcpmt:cout.obj
 0001:000157ac       ??_Gbad_cast@std@@UEAAPEAXI@Z 00000001800167ac f i libcpmt:cout.obj
 0001:000157ac       ??_Gexception@std@@UEAAPEAXI@Z 00000001800167ac f i libcpmt:cout.obj
 0001:000157ac       ??_Elogic_error@std@@UEAAPEAXI@Z 00000001800167ac f i libcpmt:xthrow.obj
 0001:000157ac       ??_Ebad_cast@std@@UEAAPEAXI@Z 00000001800167ac f i libcpmt:cout.obj
 0001:000157ac       ??_Eout_of_range@std@@UEAAPEAXI@Z 00000001800167ac f i libcpmt:xthrow.obj
 0001:000157ac       ??_Gbad_array_new_length@std@@UEAAPEAXI@Z 00000001800167ac f i LIBCMT:throw_bad_alloc.obj
 0001:000157ac       ??_Ebad_array_new_length@std@@UEAAPEAXI@Z 00000001800167ac f i LIBCMT:throw_bad_alloc.obj
 0001:000157f0       ??_Gios_base@std@@UEAAPEAXI@Z 00000001800167f0 f i libcpmt:cout.obj
 0001:000157f0       ??_Eios_base@std@@UEAAPEAXI@Z 00000001800167f0 f i libcpmt:cout.obj
 0001:0001583c       ??_Glocale@std@@QEAAPEAXI@Z 000000018001683c f i libcpmt:cout.obj
 0001:000158cc       ?_Endwrite@?$basic_filebuf@DU?$char_traits@D@std@@@std@@IEAA_NXZ 00000001800168cc f i libcpmt:cout.obj
 0001:00015a80       ?_Getcat@?$codecvt@DDU_Mbstatet@@@std@@SA_KPEAPEBVfacet@locale@2@PEBV42@@Z 0000000180016a80 f i libcpmt:cout.obj
 0001:00015b44       ?_Init@?$basic_filebuf@DU?$char_traits@D@std@@@std@@IEAAXPEAU_iobuf@@W4_Initfl@12@@Z 0000000180016b44 f i libcpmt:cout.obj
 0001:00015c30       ?_Init@ios_base@std@@IEAAXXZ 0000000180016c30 f i libcpmt:cout.obj
 0001:00015cb0       ?_Initcvt@?$basic_filebuf@DU?$char_traits@D@std@@@std@@IEAAXPEBV?$codecvt@DDU_Mbstatet@@@2@@Z 0000000180016cb0 f i libcpmt:cout.obj
 0001:00015d50       ?_Lock@?$basic_filebuf@DU?$char_traits@D@std@@@std@@UEAAXXZ 0000000180016d50 f i libcpmt:cout.obj
 0001:00015d6c       ?_Unlock@?$basic_filebuf@DU?$char_traits@D@std@@@std@@UEAAXXZ 0000000180016d6c f i libcpmt:cout.obj
 0001:00015d88       ?do_in@?$codecvt@DDU_Mbstatet@@@std@@MEBAHAEAU_Mbstatet@@PEBD1AEAPEBDPEAD3AEAPEAD@Z 0000000180016d88 f i libcpmt:cout.obj
 0001:00015d88       ?do_out@?$codecvt@DDU_Mbstatet@@@std@@MEBAHAEAU_Mbstatet@@PEBD1AEAPEBDPEAD3AEAPEAD@Z 0000000180016d88 f i libcpmt:cout.obj
 0001:00015da4       ?do_length@?$codecvt@DDU_Mbstatet@@@std@@MEBAHAEAU_Mbstatet@@PEBD1_K@Z 0000000180016da4 f i libcpmt:cout.obj
 0001:00015db8       ?do_unshift@?$codecvt@DDU_Mbstatet@@@std@@MEBAHAEAU_Mbstatet@@PEAD1AEAPEAD@Z 0000000180016db8 f i libcpmt:cout.obj
 0001:00015dc4       ?imbue@?$basic_filebuf@DU?$char_traits@D@std@@@std@@MEAAXAEBVlocale@2@@Z 0000000180016dc4 f i libcpmt:cout.obj
 0001:00015de8       ?overflow@?$basic_filebuf@DU?$char_traits@D@std@@@std@@MEAAHH@Z 0000000180016de8 f i libcpmt:cout.obj
 0001:00016040       ?overflow@?$basic_streambuf@DU?$char_traits@D@std@@@std@@MEAAHH@Z 0000000180017040 f i libcpmt:cout.obj
 0001:00016040       ?underflow@?$basic_streambuf@DU?$char_traits@D@std@@@std@@MEAAHXZ 0000000180017040 f i libcpmt:cout.obj
 0001:00016040       ?pbackfail@?$basic_streambuf@DU?$char_traits@D@std@@@std@@MEAAHH@Z 0000000180017040 f i libcpmt:cout.obj
 0001:00016044       ?pbackfail@?$basic_filebuf@DU?$char_traits@D@std@@@std@@MEAAHH@Z 0000000180017044 f i libcpmt:cout.obj
 0001:00016114       ?seekoff@?$basic_filebuf@DU?$char_traits@D@std@@@std@@MEAA?AV?$fpos@U_Mbstatet@@@2@_JHH@Z 0000000180017114 f i libcpmt:cout.obj
 0001:00016200       ?seekpos@?$basic_filebuf@DU?$char_traits@D@std@@@std@@MEAA?AV?$fpos@U_Mbstatet@@@2@V32@H@Z 0000000180017200 f i libcpmt:cout.obj
 0001:00016300       ?seekoff@?$basic_streambuf@DU?$char_traits@D@std@@@std@@MEAA?AV?$fpos@U_Mbstatet@@@2@_JHH@Z 0000000180017300 f i libcpmt:cout.obj
 0001:00016300       ?seekpos@?$basic_streambuf@DU?$char_traits@D@std@@@std@@MEAA?AV?$fpos@U_Mbstatet@@@2@V32@H@Z 0000000180017300 f i libcpmt:cout.obj
 0001:0001631c       ?setbuf@?$basic_filebuf@DU?$char_traits@D@std@@@std@@MEAAPEAV?$basic_streambuf@DU?$char_traits@D@std@@@2@PEAD_J@Z 000000018001731c f i libcpmt:cout.obj
 0001:00016370       ?sync@?$basic_streambuf@DU?$char_traits@D@std@@@std@@MEAAHXZ 0000000180017370 f i libcpmt:cout.obj
 0001:00016370       ?showmanyc@?$basic_streambuf@DU?$char_traits@D@std@@@std@@MEAA_JXZ 0000000180017370 f i libcpmt:cout.obj
 0001:00016374       ?sync@?$basic_filebuf@DU?$char_traits@D@std@@@std@@MEAAHXZ 0000000180017374 f i libcpmt:cout.obj
 0001:000163d4       ?uflow@?$basic_filebuf@DU?$char_traits@D@std@@@std@@MEAAHXZ 00000001800173d4 f i libcpmt:cout.obj
 0001:0001666c       ?uflow@?$basic_streambuf@DU?$char_traits@D@std@@@std@@MEAAHXZ 000000018001766c f i libcpmt:cout.obj
 0001:000166b8       ?underflow@?$basic_filebuf@DU?$char_traits@D@std@@@std@@MEAAHXZ 00000001800176b8 f i libcpmt:cout.obj
 0001:00016730       ?what@exception@std@@UEBAPEBDXZ 0000000180017730 f i libcpmt:cout.obj
 0001:00016744       ?xsgetn@?$basic_streambuf@DU?$char_traits@D@std@@@std@@MEAA_JPEAD_J@Z 0000000180017744 f i libcpmt:cout.obj
 0001:00016804       ?xsputn@?$basic_streambuf@DU?$char_traits@D@std@@@std@@MEAA_JPEBD_J@Z 0000000180017804 f i libcpmt:cout.obj
 0001:000168c8       ??4?$_Yarn@D@std@@QEAAAEAV01@PEBD@Z 00000001800178c8 f i libcpmt:locale0.obj
 0001:00016940       ??_G_Fac_node@std@@QEAAPEAXI@Z 0000000180017940 f i libcpmt:locale0.obj
 0001:000169cc       ??_G_Locimp@locale@std@@MEAAPEAXI@Z 00000001800179cc f i libcpmt:locale0.obj
 0001:000169cc       ??_E_Locimp@locale@std@@MEAAPEAXI@Z 00000001800179cc f i libcpmt:locale0.obj
 0001:00016a38       ?_Facet_Register@std@@YAXPEAV_Facet_base@1@@Z 0000000180017a38 f   libcpmt:locale0.obj
 0001:00016a70       ?_Getgloballocale@locale@std@@CAPEAV_Locimp@12@XZ 0000000180017a70 f   libcpmt:locale0.obj
 0001:00016a78       ?_Init@locale@std@@CAPEAV_Locimp@12@_N@Z 0000000180017a78 f   libcpmt:locale0.obj
 0001:00016b34       ?_Locimp_dtor@_Locimp@locale@std@@CAXPEAV123@@Z 0000000180017b34 f   libcpmt:locale0.obj
 0001:00016bdc       ?_Locinfo_ctor@_Locinfo@std@@SAXPEAV12@PEBD@Z 0000000180017bdc f   libcpmt:locale0.obj
 0001:00016c48       ?_Locinfo_dtor@_Locinfo@std@@SAXPEAV12@@Z 0000000180017c48 f   libcpmt:locale0.obj
 0001:00016c6c       ?_New_Locimp@_Locimp@locale@std@@CAPEAV123@_N@Z 0000000180017c6c f   libcpmt:locale0.obj
 0001:00016cdc       ?_Setgloballocale@locale@std@@CAXPEAX@Z 0000000180017cdc f   libcpmt:locale0.obj
 0001:00016d10       _Deletegloballocale        0000000180017d10 f   libcpmt:locale0.obj
 0001:00016d98       ??0bad_alloc@std@@QEAA@AEBV01@@Z 0000000180017d98 f i libcpmt:xthrow.obj
 0001:00016dd8       ??0bad_alloc@std@@QEAA@XZ  0000000180017dd8 f i libcpmt:xthrow.obj
 0001:00016df8       ??0length_error@std@@QEAA@AEBV01@@Z 0000000180017df8 f i libcpmt:xthrow.obj
 0001:00016e38       ??0length_error@std@@QEAA@PEBD@Z 0000000180017e38 f i libcpmt:xthrow.obj
 0001:00016e84       ??0logic_error@std@@QEAA@AEBV01@@Z 0000000180017e84 f i libcpmt:xthrow.obj
 0001:00016ec4       ??0out_of_range@std@@QEAA@AEBV01@@Z 0000000180017ec4 f i libcpmt:xthrow.obj
 0001:00016f04       ??0out_of_range@std@@QEAA@PEBD@Z 0000000180017f04 f i libcpmt:xthrow.obj
 0001:00016f50       ??1bad_alloc@std@@UEAA@XZ  0000000180017f50 f i libcpmt:xthrow.obj
 0001:00016f50       ??1bad_cast@std@@UEAA@XZ   0000000180017f50 f i libcpmt:cout.obj
 0001:00016f50       ??1out_of_range@std@@UEAA@XZ 0000000180017f50 f i libcpmt:xthrow.obj
 0001:00016f50       ??1bad_array_new_length@std@@UEAA@XZ 0000000180017f50 f i LIBCMT:throw_bad_alloc.obj
 0001:00016f50       ??1length_error@std@@UEAA@XZ 0000000180017f50 f i libcpmt:xthrow.obj
 0001:00016f50       ??1bad_exception@std@@UEAA@XZ 0000000180017f50 f i libvcruntime:frame.obj
 0001:00016f64       ?_Xlength_error@std@@YAXPEBD@Z 0000000180017f64 f   libcpmt:xthrow.obj
 0001:00016f88       ?_Xout_of_range@std@@YAXPEBD@Z 0000000180017f88 f   libcpmt:xthrow.obj
 0001:00016fac       ?_Syserror_map@std@@YAPEBDH@Z 0000000180017fac f   libcpmt:syserror.obj
 0001:00016fd4       _Getctype                  0000000180017fd4 f   libcpmt:_tolower.obj
 0001:00017094       _Tolower                   0000000180018094 f   libcpmt:_tolower.obj
 0001:000171bc       _Getcvt                    00000001800181bc f   libcpmt:xwctomb.obj
 0001:0001724c       _Toupper                   000000018001824c f   libcpmt:_toupper.obj
 0001:00017384       _Mtxdst                    0000000180018384 f   libcpmt:xmtx.obj
 0001:0001738c       _Mtxinit                   000000018001838c f   libcpmt:xmtx.obj
 0001:0001739c       _Mtxlock                   000000018001839c f   libcpmt:xmtx.obj
 0001:000173a4       _Mtxunlock                 00000001800183a4 f   libcpmt:xmtx.obj
 0001:000173ac       ?_Addstd@ios_base@std@@SAXPEAV12@@Z 00000001800183ac f   libcpmt:ios.obj
 0001:0001741c       ?_Ios_base_dtor@ios_base@std@@CAXPEAV12@@Z 000000018001841c f   libcpmt:ios.obj
 0001:00017460       ?_Tidy@ios_base@std@@AEAAXXZ 0000000180018460 f i libcpmt:ios.obj
 0001:000174f0       ?_Atexit@@YAXP6AXXZ@Z      00000001800184f0 f   libcpmt:iosptrs.obj
 0001:00017530       __crtLCMapStringA          0000000180018530 f   libcpmt:StlLCMapStringA.obj
 0001:00017cf4       __crtInitializeCriticalSectionEx 0000000180018cf4 f   libcpmt:winapisupp.obj
 0001:00017d54       GetTableIndexFromLocaleName 0000000180018d54 f   libcpmt:winapinls.obj
 0001:00017de0       __crtDownlevelLocaleNameToLCID 0000000180018de0 f   libcpmt:winapinls.obj
 0001:00017e14       __crtLCMapStringEx         0000000180018e14 f   libcpmt:winapinls.obj
 0001:00017ed0       __wcsnicmp_ascii           0000000180018ed0 f   libcpmt:winapinls.obj
 0001:00017f40       __security_check_cookie    0000000180018f40 f   LIBCMT:_amdsecgs_.obj
 0001:00017f64       ??3@YAXPEAX@Z              0000000180018f64 f   LIBCMT:delete_scalar.obj
 0001:00017f6c       ??3@YAXPEAX_K@Z            0000000180018f6c f   LIBCMT:delete_scalar_size.obj
 0001:00017f6c       ??_V@YAXPEAX@Z             0000000180018f6c f   LIBCMT:delete_array.obj
 0001:000180bc       _Init_thread_footer        00000001800190bc f   LIBCMT:thread_safe_statics.obj
 0001:0001811c       _Init_thread_header        000000018001911c f   LIBCMT:thread_safe_statics.obj
 0001:00018184       _Init_thread_notify        0000000180019184 f   LIBCMT:thread_safe_statics.obj
 0001:000181e0       _Init_thread_wait          00000001800191e0 f   LIBCMT:thread_safe_statics.obj
 0001:00018278       ??2@YAPEAX_K@Z             0000000180019278 f   LIBCMT:new_scalar.obj
 0001:000182b4       __scrt_acquire_startup_lock 00000001800192b4 f   LIBCMT:utility.obj
 0001:000182f0       __scrt_dllmain_after_initialize_c 00000001800192f0 f   LIBCMT:utility.obj
 0001:00018310       __scrt_dllmain_before_initialize_c 0000000180019310 f   LIBCMT:utility.obj
 0001:00018328       __scrt_dllmain_crt_thread_attach 0000000180019328 f   LIBCMT:utility.obj
 0001:00018350       __scrt_dllmain_crt_thread_detach 0000000180019350 f   LIBCMT:utility.obj
 0001:00018368       __scrt_dllmain_exception_filter 0000000180019368 f   LIBCMT:utility.obj
 0001:000183cc       __scrt_dllmain_uninitialize_c 00000001800193cc f   LIBCMT:utility.obj
 0001:000183fc       __scrt_dllmain_uninitialize_critical 00000001800193fc f   LIBCMT:utility.obj
 0001:00018410       __scrt_initialize_crt      0000000180019410 f   LIBCMT:utility.obj
 0001:0001845c       __scrt_initialize_onexit_tables 000000018001945c f   LIBCMT:utility.obj
 0001:00018528       __scrt_is_nonwritable_in_current_image 0000000180019528 f   LIBCMT:utility.obj
 0001:000185c4       __scrt_release_startup_lock 00000001800195c4 f   LIBCMT:utility.obj
 0001:000185e8       __scrt_uninitialize_crt    00000001800195e8 f   LIBCMT:utility.obj
 0001:00018614       _onexit                    0000000180019614 f   LIBCMT:utility.obj
 0001:00018664       atexit                     0000000180019664 f   LIBCMT:utility.obj
 0001:0001867c       ??_U@YAPEAX_K@Z            000000018001967c f   LIBCMT:new_array.obj
 0001:00018684       ??_Etype_info@@UEAAPEAXI@Z 0000000180019684 f i LIBCMT:std_type_info_static.obj
 0001:00018684       ??_Gtype_info@@UEAAPEAXI@Z 0000000180019684 f i LIBCMT:std_type_info_static.obj
 0001:00018a0c       _DllMainCRTStartup         0000000180019a0c f   LIBCMT:dll_dllmain.obj
 0001:00018a4c       __GSHandlerCheck           0000000180019a4c f   LIBCMT:_gshandler_.obj
 0001:00018a6c       __GSHandlerCheckCommon     0000000180019a6c f   LIBCMT:_gshandler_.obj
 0001:00018ac8       __GSHandlerCheck_EH        0000000180019ac8 f   LIBCMT:gshandlereh.obj
 0001:00018b58       _guard_check_icall         0000000180019b58 f i LIBCMT:checkcfg.obj
 0001:00018b70       __chkstk                   0000000180019b70 f   LIBCMT:_chkstk_.obj
 0001:00018b70       _alloca_probe              0000000180019b70 f   LIBCMT:_chkstk_.obj
 0001:00018bc4       __raise_securityfailure    0000000180019bc4 f   LIBCMT:gs_report.obj
 0001:00018bf8       __report_gsfailure         0000000180019bf8 f   LIBCMT:gs_report.obj
 0001:00018ccc       __report_rangecheckfailure 0000000180019ccc f   LIBCMT:gs_report.obj
 0001:00018ce0       __report_securityfailure   0000000180019ce0 f   LIBCMT:gs_report.obj
 0001:00018e60       __crt_debugger_hook        0000000180019e60 f   LIBCMT:utility_desktop.obj
 0001:00018e68       __scrt_fastfail            0000000180019e68 f   LIBCMT:utility_desktop.obj
 0001:00018fb0       ??0bad_array_new_length@std@@QEAA@AEBV01@@Z 0000000180019fb0 f i LIBCMT:throw_bad_alloc.obj
 0001:00018ff0       ??0bad_array_new_length@std@@QEAA@XZ 0000000180019ff0 f i LIBCMT:throw_bad_alloc.obj
 0001:00019010       ?__scrt_throw_std_bad_alloc@@YAXXZ 000000018001a010 f   LIBCMT:throw_bad_alloc.obj
 0001:00019010       ?_Xbad_alloc@std@@YAXXZ    000000018001a010 f   libcpmt:xthrow.obj
 0001:00019030       ?__scrt_throw_std_bad_array_new_length@@YAXXZ 000000018001a030 f   LIBCMT:throw_bad_alloc.obj
 0001:00019050       __isa_available_init       000000018001a050 f   LIBCMT:_cpu_disp_.obj
 0001:00019214       __scrt_is_ucrt_dll_in_use  000000018001a214 f   LIBCMT:ucrt_detection.obj
 0001:00019220       __security_init_cookie     000000018001a220 f   LIBCMT:gs_support.obj
 0001:000192cc       ?__scrt_initialize_type_info@@YAXXZ 000000018001a2cc f   LIBCMT:tncleanup.obj
 0001:000192dc       ?__scrt_uninitialize_type_info@@YAXXZ 000000018001a2dc f   LIBCMT:tncleanup.obj
 0001:000192e8       __local_stdio_scanf_options 000000018001a2e8 f i LIBCMT:default_local_stdio_options.obj
 0001:000192f0       __scrt_initialize_default_local_stdio_options 000000018001a2f0 f   LIBCMT:default_local_stdio_options.obj
 0001:0001930c       __scrt_get_dyn_tls_init_callback 000000018001a30c f   LIBCMT:dyn_tls_init.obj
 0001:00019314       _RTC_Initialize            000000018001a314 f   LIBCMT:_initsect_.obj
 0001:00019360       _RTC_Terminate             000000018001a360 f   LIBCMT:_initsect_.obj
 0001:000193c0       memcpy                     000000018001a3c0 f   libvcruntime:memcpy.obj
 0001:000193c0       memmove                    000000018001a3c0 f   libvcruntime:memcpy.obj
 0001:000197f8       _purecall                  000000018001a7f8 f   libvcruntime:purevirt.obj
 0001:00019834       __DestructExceptionObject  000000018001a834 f   libvcruntime:frame.obj
 0001:000198bc       ??0bad_exception@std@@QEAA@AEBV01@@Z 000000018001a8bc f i libvcruntime:frame.obj
 0001:000198fc       ??0bad_exception@std@@QEAA@XZ 000000018001a8fc f i libvcruntime:frame.obj
 0001:0001a244       ?_CallMemberFunction0@@YAXPEAXP6AX0@Z@Z 000000018001b244 f i libvcruntime:frame.obj
 0001:0001a248       ?_CallMemberFunction1@@YAXPEAXP6AX0@Z0@Z 000000018001b248 f i libvcruntime:frame.obj
 0001:0001a254       ?_CallMemberFunction2@@YAXPEAXP6AX0@Z0H@Z 000000018001b254 f i libvcruntime:frame.obj
 0001:0001a264       __AdjustPointer            000000018001b264 f   libvcruntime:frame.obj
 0001:0001a288       __BuildCatchObject         000000018001b288 f   libvcruntime:frame.obj
 0001:0001a350       __BuildCatchObjectHelper   000000018001b350 f   libvcruntime:frame.obj
 0001:0001a534       __CxxCallCatchBlock        000000018001b534 f   libvcruntime:frame.obj
 0001:0001a720       __FrameUnwindFilter        000000018001b720 f   libvcruntime:frame.obj
 0001:0001a76c       __FrameUnwindToState       000000018001b76c f   libvcruntime:frame.obj
 0001:0001a900       __InternalCxxFrameHandler  000000018001b900 f   libvcruntime:frame.obj
 0001:0001ab58       __TypeMatch                000000018001bb58 f   libvcruntime:frame.obj
 0001:0001ac98       __std_terminate            000000018001bc98 f   libvcruntime:frame.obj
 0001:0001aca4       __std_exception_copy       000000018001bca4 f   libvcruntime:std_exception.obj
 0001:0001ad34       __std_exception_destroy    000000018001bd34 f   libvcruntime:std_exception.obj
 0001:0001ad5c       _CxxThrowException         000000018001bd5c f   libvcruntime:throw.obj
 0001:0001ae34       ?_GetEstablisherFrame@@YAPEA_KPEA_KPEAU_xDISPATCHER_CONTEXT@@PEBU_s_FuncInfo@@0@Z 000000018001be34 f   libvcruntime:trnsctrl.obj
 0001:0001af00       ?_GetRangeOfTrysToCheck@@YAPEBU_s_TryBlockMapEntry@@PEA_KPEBU_s_FuncInfo@@HHPEAI2PEAU_xDISPATCHER_CONTEXT@@@Z 000000018001bf00 f   libvcruntime:trnsctrl.obj
 0001:0001b02c       ?__FrameUnwindToEmptyState@@YAXPEA_KPEAU_xDISPATCHER_CONTEXT@@PEBU_s_FuncInfo@@@Z 000000018001c02c f   libvcruntime:trnsctrl.obj
 0001:0001b0c0       ?__SehTransFilter@@YAHPEAU_EXCEPTION_POINTERS@@PEAUEHExceptionRecord@@PEA_KPEAU_CONTEXT@@PEAU_xDISPATCHER_CONTEXT@@PEBU_s_FuncInfo@@PEAH@Z 000000018001c0c0 f   libvcruntime:trnsctrl.obj
 0001:0001b158       _CallSETranslator          000000018001c158 f   libvcruntime:trnsctrl.obj
 0001:0001b1b0       _CreateFrameInfo           000000018001c1b0 f   libvcruntime:trnsctrl.obj
 0001:0001b1ec       _FindAndUnlinkFrame        000000018001c1ec f   libvcruntime:trnsctrl.obj
 0001:0001b244       _GetImageBase              000000018001c244 f   libvcruntime:trnsctrl.obj
 0001:0001b258       _GetThrowImageBase         000000018001c258 f   libvcruntime:trnsctrl.obj
 0001:0001b26c       _IsExceptionObjectToBeDestroyed 000000018001c26c f   libvcruntime:trnsctrl.obj
 0001:0001b29c       _SetImageBase              000000018001c29c f   libvcruntime:trnsctrl.obj
 0001:0001b2b4       _SetThrowImageBase         000000018001c2b4 f   libvcruntime:trnsctrl.obj
 0001:0001b2cc       _UnwindNestedFrames        000000018001c2cc f   libvcruntime:trnsctrl.obj
 0001:0001b3f0       __CxxFrameHandler3         000000018001c3f0 f   libvcruntime:trnsctrl.obj
 0001:0001b480       memset                     000000018001c480 f   libvcruntime:memset.obj
 0001:0001b630       memcmp                     000000018001c630 f   libvcruntime:memcmp.obj
 0001:0001b8c0       __vcrt_EventRegister       000000018001c8c0 f   libvcruntime:winapi_downlevel.obj
 0001:0001b944       __vcrt_EventSetInformation 000000018001c944 f   libvcruntime:winapi_downlevel.obj
 0001:0001b9c8       __vcrt_EventUnregister     000000018001c9c8 f   libvcruntime:winapi_downlevel.obj
 0001:0001ba1c       __vcrt_EventWriteTransfer  000000018001ca1c f   libvcruntime:winapi_downlevel.obj
 0001:0001bab4       __vcrt_FlsAlloc            000000018001cab4 f   libvcruntime:winapi_downlevel.obj
 0001:0001bb08       __vcrt_FlsFree             000000018001cb08 f   libvcruntime:winapi_downlevel.obj
 0001:0001bb5c       __vcrt_FlsGetValue         000000018001cb5c f   libvcruntime:winapi_downlevel.obj
 0001:0001bbb0       __vcrt_FlsSetValue         000000018001cbb0 f   libvcruntime:winapi_downlevel.obj
 0001:0001bc18       __vcrt_InitializeCriticalSectionEx 000000018001cc18 f   libvcruntime:winapi_downlevel.obj
 0001:0001bc90       __vcrt_initialize_winapi_thunks 000000018001cc90 f   libvcruntime:winapi_downlevel.obj
 0001:0001bcc8       __vcrt_uninitialize_winapi_thunks 000000018001ccc8 f   libvcruntime:winapi_downlevel.obj
 0001:0001bd08       __vcrt_initialize          000000018001cd08 f   libvcruntime:initialization.obj
 0001:0001bd40       __vcrt_thread_attach       000000018001cd40 f   libvcruntime:initialization.obj
 0001:0001bd54       __vcrt_thread_detach       000000018001cd54 f   libvcruntime:initialization.obj
 0001:0001bd68       __vcrt_uninitialize        000000018001cd68 f   libvcruntime:initialization.obj
 0001:0001bd94       __vcrt_uninitialize_critical 000000018001cd94 f   libvcruntime:initialization.obj
 0001:0001bda4       __C_specific_handler       000000018001cda4 f   libvcruntime:_chandler_.obj
 0001:0001bf98       __telemetry_main_invoke_trigger 000000018001cf98 f   libvcruntime:telemetry.obj
 0001:0001c0b0       __telemetry_main_return_trigger 000000018001d0b0 f   libvcruntime:telemetry.obj
 0001:0001c1c8       __vcrt_initialize_telemetry_provider 000000018001d1c8 f   libvcruntime:telemetry.obj
 0001:0001c1dc       __vcrt_uninitialize_telemetry_provider 000000018001d1dc f   libvcruntime:telemetry.obj
 0001:0001c1fc       __std_type_info_compare    000000018001d1fc f   libvcruntime:std_type_info.obj
 0001:0001c224       __std_type_info_destroy_list 000000018001d224 f   libvcruntime:std_type_info.obj
 0001:0001c250       __vcrt_initialize_pure_virtual_call_handler 000000018001d250 f   libvcruntime:purevirt_data.obj
 0001:0001c274       __vcrt_freefls             000000018001d274 f   libvcruntime:per_thread_data.obj
 0001:0001c294       __vcrt_freeptd             000000018001d294 f   libvcruntime:per_thread_data.obj
 0001:0001c2e4       __vcrt_getptd              000000018001d2e4 f   libvcruntime:per_thread_data.obj
 0001:0001c300       __vcrt_getptd_noexit       000000018001d300 f   libvcruntime:per_thread_data.obj
 0001:0001c3a8       __vcrt_initialize_ptd      000000018001d3a8 f   libvcruntime:per_thread_data.obj
 0001:0001c3e8       __vcrt_uninitialize_ptd    000000018001d3e8 f   libvcruntime:per_thread_data.obj
 0001:0001c40c       ?__GetCurrentState@@YAHPEA_KPEAU_xDISPATCHER_CONTEXT@@PEBU_s_FuncInfo@@@Z 000000018001d40c f   libvcruntime:ehstate.obj
 0001:0001c434       ?__GetUnwindTryBlock@@YAHPEA_KPEAU_xDISPATCHER_CONTEXT@@PEBU_s_FuncInfo@@@Z 000000018001d434 f   libvcruntime:ehstate.obj
 0001:0001c460       ?__SetState@@YAXPEA_KPEAU_xDISPATCHER_CONTEXT@@PEBU_s_FuncInfo@@H@Z 000000018001d460 f   libvcruntime:ehstate.obj
 0001:0001c46c       ?__SetUnwindTryBlock@@YAXPEA_KPEAU_xDISPATCHER_CONTEXT@@PEBU_s_FuncInfo@@H@Z 000000018001d46c f   libvcruntime:ehstate.obj
 0001:0001c4a8       ?__StateFromControlPc@@YAHPEBU_s_FuncInfo@@PEAU_xDISPATCHER_CONTEXT@@@Z 000000018001d4a8 f   libvcruntime:ehstate.obj
 0001:0001c4b0       ?__StateFromIp@@YAHPEBU_s_FuncInfo@@PEAU_xDISPATCHER_CONTEXT@@_J@Z 000000018001d4b0 f   libvcruntime:ehstate.obj
 0001:0001c530       _CallSettingFrame          000000018001d530 f   libvcruntime:handlers.obj
 0001:0001c580       _local_unwind              000000018001d580 f   libvcruntime:_jmpuwind_.obj
 0001:0001c5b0       _NLG_Notify                000000018001d5b0 f   libvcruntime:_jmpuwind_.obj
 0001:0001c5d0       __NLG_Dispatch2            000000018001d5d0 f   libvcruntime:_jmpuwind_.obj
 0001:0001c5e0       __NLG_Return2              000000018001d5e0 f   libvcruntime:_jmpuwind_.obj
 0001:0001c5e4       __vcrt_initialize_locks    000000018001d5e4 f   libvcruntime:locks.obj
 0001:0001c62c       __vcrt_uninitialize_locks  000000018001d62c f   libvcruntime:locks.obj
 0001:0001c664       __acrt_call_reportfault    000000018001d664 f   libucrt:invalid_parameter.obj
 0001:0001c7c0       __acrt_initialize_invalid_parameter_handler 000000018001d7c0 f   libucrt:invalid_parameter.obj
 0001:0001c7c8       _invalid_parameter         000000018001d7c8 f   libucrt:invalid_parameter.obj
 0001:0001c870       _invalid_parameter_noinfo  000000018001d870 f   libucrt:invalid_parameter.obj
 0001:0001c890       _invalid_parameter_noinfo_noreturn 000000018001d890 f   libucrt:invalid_parameter.obj
 0001:0001c8c0       _invoke_watson             000000018001d8c0 f   libucrt:invalid_parameter.obj
 0001:0001c908       abort                      000000018001d908 f   libucrt:abort.obj
 0001:0001c960       calloc                     000000018001d960 f   libucrt:calloc.obj
 0001:0001c968       __acrt_initialize_stdio    000000018001d968 f   libucrt:_file.obj
 0001:0001ca88       __acrt_iob_func            000000018001da88 f   libucrt:_file.obj
 0001:0001ca9c       __acrt_uninitialize_stdio  000000018001da9c f   libucrt:_file.obj
 0001:0001caf8       _get_stream_buffer_pointers 000000018001daf8 f   libucrt:_file.obj
 0001:0001cb40       _lock_file                 000000018001db40 f   libucrt:_file.obj
 0001:0001cb4c       _unlock_file               000000018001db4c f   libucrt:_file.obj
 0001:0001cb58       strcspn                    000000018001db58 f   libucrt:strcspn.obj
 0001:0001cbf8       ??$?RV<lambda_aa279a7bcb127014629d5b1d62c7325d>@@AEAV<lambda_0a64b6a4deda75c01876f29c44fc5eb3>@@V<lambda_3323e69fbefe9d1a11713e670d47cdfa>@@@?$__crt_seh_guarded_call@H@@QEAAH$$QEAV<lambda_aa279a7bcb127014629d5b1d62c7325d>@@AEAV<lambda_0a64b6a4deda75c01876f29c44fc5eb3>@@$$QEAV<lambda_3323e69fbefe9d1a11713e670d47cdfa>@@@Z 000000018001dbf8 f i libucrt:output.obj
 0001:0001cde0       ??$ensure_buffer_is_big_enough@D@formatting_buffer@__crt_stdio_output@@QEAA_N_K@Z 000000018001dde0 f i libucrt:output.obj
 0001:0001ce8c       ??$is_wide_character_specifier@D@__crt_stdio_output@@YA_N_KDW4length_modifier@0@@Z 000000018001de8c f i libucrt:output.obj
 0001:0001cebc       ??$type_case_integer_parse_into_buffer@I@?$output_processor@DV?$stream_output_adapter@D@__crt_stdio_output@@V?$standard_base@DV?$stream_output_adapter@D@__crt_stdio_output@@@2@@__crt_stdio_output@@AEAAXII_N@Z 000000018001debc f i libucrt:output.obj
 0001:0001cebc       ??$type_case_integer_parse_into_buffer@I@?$output_processor@DV?$string_output_adapter@D@__crt_stdio_output@@V?$format_validation_base@DV?$string_output_adapter@D@__crt_stdio_output@@@2@@__crt_stdio_output@@AEAAXII_N@Z 000000018001debc f i libucrt:output.obj
 0001:0001cf58       ??$type_case_integer_parse_into_buffer@_K@?$output_processor@DV?$stream_output_adapter@D@__crt_stdio_output@@V?$standard_base@DV?$stream_output_adapter@D@__crt_stdio_output@@@2@@__crt_stdio_output@@AEAAX_KI_N@Z 000000018001df58 f i libucrt:output.obj
 0001:0001cf58       ??$type_case_integer_parse_into_buffer@_K@?$output_processor@DV?$string_output_adapter@D@__crt_stdio_output@@V?$format_validation_base@DV?$string_output_adapter@D@__crt_stdio_output@@@2@@__crt_stdio_output@@AEAAX_KI_N@Z 000000018001df58 f i libucrt:output.obj
 0001:0001cff4       ??$write_multiple_characters@V?$stream_output_adapter@D@__crt_stdio_output@@D@__crt_stdio_output@@YAXAEBV?$stream_output_adapter@D@0@DHQEAH@Z 000000018001dff4 f i libucrt:output.obj
 0001:0001d078       ??$write_multiple_characters@V?$string_output_adapter@D@__crt_stdio_output@@D@__crt_stdio_output@@YAXAEBV?$string_output_adapter@D@0@DHQEAH@Z 000000018001e078 f i libucrt:output.obj
 0001:0001d0d4       ??0?$output_processor@DV?$stream_output_adapter@D@__crt_stdio_output@@V?$standard_base@DV?$stream_output_adapter@D@__crt_stdio_output@@@2@@__crt_stdio_output@@QEAA@AEBV?$stream_output_adapter@D@1@_KQEBDQEAU__crt_locale_pointers@@QEAD@Z 000000018001e0d4 f i libucrt:output.obj
 0001:0001d0d4       ??0?$output_processor@DV?$string_output_adapter@D@__crt_stdio_output@@V?$format_validation_base@DV?$string_output_adapter@D@__crt_stdio_output@@@2@@__crt_stdio_output@@QEAA@AEBV?$string_output_adapter@D@1@_KQEBDQEAU__crt_locale_pointers@@QEAD@Z 000000018001e0d4 f i libucrt:output.obj
 0001:0001d150       ??0_LocaleUpdate@@QEAA@QEAU__crt_locale_pointers@@@Z 000000018001e150 f i libucrt:output.obj
 0001:0001d2d0       ?force_decimal_point@__crt_stdio_output@@YAXPEADQEAU__crt_locale_pointers@@@Z 000000018001e2d0 f i libucrt:output.obj
 0001:0001d340       ?parse_int_from_format_string@?$output_processor@DV?$string_output_adapter@D@__crt_stdio_output@@V?$format_validation_base@DV?$string_output_adapter@D@__crt_stdio_output@@@2@@__crt_stdio_output@@AEAA_NQEAH@Z 000000018001e340 f i libucrt:output.obj
 0001:0001d340       ?parse_int_from_format_string@?$output_processor@DV?$stream_output_adapter@D@__crt_stdio_output@@V?$standard_base@DV?$stream_output_adapter@D@__crt_stdio_output@@@2@@__crt_stdio_output@@AEAA_NQEAH@Z 000000018001e340 f i libucrt:output.obj
 0001:0001d3c4       ?process@?$output_processor@DV?$stream_output_adapter@D@__crt_stdio_output@@V?$standard_base@DV?$stream_output_adapter@D@__crt_stdio_output@@@2@@__crt_stdio_output@@QEAAHXZ 000000018001e3c4 f i libucrt:output.obj
 0001:0001d5d4       ?process@?$output_processor@DV?$string_output_adapter@D@__crt_stdio_output@@V?$format_validation_base@DV?$string_output_adapter@D@__crt_stdio_output@@@2@@__crt_stdio_output@@QEAAHXZ 000000018001e5d4 f i libucrt:output.obj
 0001:0001d7e8       ?state_case_normal@?$output_processor@DV?$stream_output_adapter@D@__crt_stdio_output@@V?$standard_base@DV?$stream_output_adapter@D@__crt_stdio_output@@@2@@__crt_stdio_output@@AEAA_NXZ 000000018001e7e8 f i libucrt:output.obj
 0001:0001d858       ?state_case_normal@?$output_processor@DV?$string_output_adapter@D@__crt_stdio_output@@V?$format_validation_base@DV?$string_output_adapter@D@__crt_stdio_output@@@2@@__crt_stdio_output@@AEAA_NXZ 000000018001e858 f i libucrt:output.obj
 0001:0001d8cc       ?state_case_normal_tchar@?$output_processor@DV?$stream_output_adapter@D@__crt_stdio_output@@V?$standard_base@DV?$stream_output_adapter@D@__crt_stdio_output@@@2@@__crt_stdio_output@@AEAA_ND@Z 000000018001e8cc f i libucrt:output.obj
 0001:0001d960       ?state_case_normal_tchar@?$output_processor@DV?$string_output_adapter@D@__crt_stdio_output@@V?$format_validation_base@DV?$string_output_adapter@D@__crt_stdio_output@@@2@@__crt_stdio_output@@AEAA_ND@Z 000000018001e960 f i libucrt:output.obj
 0001:0001d9f8       ?state_case_size@?$output_processor@DV?$stream_output_adapter@D@__crt_stdio_output@@V?$standard_base@DV?$stream_output_adapter@D@__crt_stdio_output@@@2@@__crt_stdio_output@@AEAA_NXZ 000000018001e9f8 f i libucrt:output.obj
 0001:0001db74       ?state_case_size@?$output_processor@DV?$string_output_adapter@D@__crt_stdio_output@@V?$format_validation_base@DV?$string_output_adapter@D@__crt_stdio_output@@@2@@__crt_stdio_output@@AEAA_NXZ 000000018001eb74 f i libucrt:output.obj
 0001:0001dcf0       ?state_case_type@?$output_processor@DV?$stream_output_adapter@D@__crt_stdio_output@@V?$standard_base@DV?$stream_output_adapter@D@__crt_stdio_output@@@2@@__crt_stdio_output@@AEAA_NXZ 000000018001ecf0 f i libucrt:output.obj
 0001:0001df6c       ?state_case_type@?$output_processor@DV?$string_output_adapter@D@__crt_stdio_output@@V?$format_validation_base@DV?$string_output_adapter@D@__crt_stdio_output@@@2@@__crt_stdio_output@@AEAA_NXZ 000000018001ef6c f i libucrt:output.obj
 0001:0001e1e8       ?type_case_Z@?$output_processor@DV?$stream_output_adapter@D@__crt_stdio_output@@V?$standard_base@DV?$stream_output_adapter@D@__crt_stdio_output@@@2@@__crt_stdio_output@@AEAA_NXZ 000000018001f1e8 f i libucrt:output.obj
 0001:0001e1e8       ?type_case_Z@?$output_processor@DV?$string_output_adapter@D@__crt_stdio_output@@V?$format_validation_base@DV?$string_output_adapter@D@__crt_stdio_output@@@2@@__crt_stdio_output@@AEAA_NXZ 000000018001f1e8 f i libucrt:output.obj
 0001:0001e268       ?type_case_a@?$output_processor@DV?$stream_output_adapter@D@__crt_stdio_output@@V?$standard_base@DV?$stream_output_adapter@D@__crt_stdio_output@@@2@@__crt_stdio_output@@AEAA_NXZ 000000018001f268 f i libucrt:output.obj
 0001:0001e268       ?type_case_a@?$output_processor@DV?$string_output_adapter@D@__crt_stdio_output@@V?$format_validation_base@DV?$string_output_adapter@D@__crt_stdio_output@@@2@@__crt_stdio_output@@AEAA_NXZ 000000018001f268 f i libucrt:output.obj
 0001:0001e484       ?type_case_c_tchar@?$output_processor@DV?$string_output_adapter@D@__crt_stdio_output@@V?$format_validation_base@DV?$string_output_adapter@D@__crt_stdio_output@@@2@@__crt_stdio_output@@AEAA_ND@Z 000000018001f484 f i libucrt:output.obj
 0001:0001e484       ?type_case_c_tchar@?$output_processor@DV?$stream_output_adapter@D@__crt_stdio_output@@V?$standard_base@DV?$stream_output_adapter@D@__crt_stdio_output@@@2@@__crt_stdio_output@@AEAA_ND@Z 000000018001f484 f i libucrt:output.obj
 0001:0001e538       ?type_case_integer@?$output_processor@DV?$stream_output_adapter@D@__crt_stdio_output@@V?$standard_base@DV?$stream_output_adapter@D@__crt_stdio_output@@@2@@__crt_stdio_output@@AEAA_NI_N@Z 000000018001f538 f i libucrt:output.obj
 0001:0001e538       ?type_case_integer@?$output_processor@DV?$string_output_adapter@D@__crt_stdio_output@@V?$format_validation_base@DV?$string_output_adapter@D@__crt_stdio_output@@@2@@__crt_stdio_output@@AEAA_NI_N@Z 000000018001f538 f i libucrt:output.obj
 0001:0001e6d8       ?type_case_n@?$output_processor@DV?$string_output_adapter@D@__crt_stdio_output@@V?$format_validation_base@DV?$string_output_adapter@D@__crt_stdio_output@@@2@@__crt_stdio_output@@AEAA_NXZ 000000018001f6d8 f i libucrt:output.obj
 0001:0001e6d8       ?type_case_n@?$output_processor@DV?$stream_output_adapter@D@__crt_stdio_output@@V?$standard_base@DV?$stream_output_adapter@D@__crt_stdio_output@@@2@@__crt_stdio_output@@AEAA_NXZ 000000018001f6d8 f i libucrt:output.obj
 0001:0001e7b4       ?type_case_s@?$output_processor@DV?$string_output_adapter@D@__crt_stdio_output@@V?$format_validation_base@DV?$string_output_adapter@D@__crt_stdio_output@@@2@@__crt_stdio_output@@AEAA_NXZ 000000018001f7b4 f i libucrt:output.obj
 0001:0001e7b4       ?type_case_s@?$output_processor@DV?$stream_output_adapter@D@__crt_stdio_output@@V?$standard_base@DV?$stream_output_adapter@D@__crt_stdio_output@@@2@@__crt_stdio_output@@AEAA_NXZ 000000018001f7b4 f i libucrt:output.obj
 0001:0001e844       ?validate_stream_is_ansi_if_required@?$__acrt_stdio_char_traits@D@@SA_NQEAU_iobuf@@@Z 000000018001f844 f i libucrt:output.obj
 0001:0001e8d0       ?write_stored_string_tchar@?$output_processor@DV?$stream_output_adapter@D@__crt_stdio_output@@V?$standard_base@DV?$stream_output_adapter@D@__crt_stdio_output@@@2@@__crt_stdio_output@@AEAA_ND@Z 000000018001f8d0 f i libucrt:output.obj
 0001:0001e9a8       ?write_stored_string_tchar@?$output_processor@DV?$string_output_adapter@D@__crt_stdio_output@@V?$format_validation_base@DV?$string_output_adapter@D@__crt_stdio_output@@@2@@__crt_stdio_output@@AEAA_ND@Z 000000018001f9a8 f i libucrt:output.obj
 0001:0001ea80       ?write_string@?$stream_output_adapter@D@__crt_stdio_output@@QEBAXQEBDHQEAH1@Z 000000018001fa80 f i libucrt:output.obj
 0001:0001eb78       ?write_string@?$string_output_adapter@D@__crt_stdio_output@@QEBAXQEBDHQEAH1@Z 000000018001fb78 f i libucrt:output.obj
 0001:0001ec34       __stdio_common_vfprintf    000000018001fc34 f   libucrt:output.obj
 0001:0001ecc0       __stdio_common_vsprintf_s  000000018001fcc0 f   libucrt:output.obj
 0001:0001ed24       localeconv                 000000018001fd24 f   libucrt:localeconv.obj
 0001:0001ed58       free                       000000018001fd58 f   libucrt:free.obj
 0001:0001ed60       frexp                      000000018001fd60 f   libucrt:frexp.obj
 0001:0001f088       __acrt_initialize_thread_local_exit_callback 0000000180020088 f   libucrt:exit.obj
 0001:0001f090       _cexit                     0000000180020090 f   libucrt:exit.obj
 0001:0001f0a0       _exit                      00000001800200a0 f   libucrt:exit.obj
 0001:0001f0ac       _is_c_termination_complete 00000001800200ac f   libucrt:exit.obj
 0001:0001f0b4       __acrt_initialize_clock    00000001800200b4 f   libucrt:clock.obj
 0001:0001f108       clock                      0000000180020108 f   libucrt:clock.obj
 0001:0001f174       roundf                     0000000180020174 f   libucrt:roundf.obj
 0001:0001f1dc       round                      00000001800201dc f   libucrt:round.obj
 0001:0001f244       __ascii_stricmp            0000000180020244 f   libucrt:stricmp.obj
 0001:0001f280       _stricmp                   0000000180020280 f   libucrt:stricmp.obj
 0001:0001f2c8       _stricmp_l                 00000001800202c8 f   libucrt:stricmp.obj
 0001:0001f37c       __acrt_initialize_locks    000000018002037c f   libucrt:locks.obj
 0001:0001f3c4       __acrt_lock                00000001800203c4 f   libucrt:locks.obj
 0001:0001f3e0       __acrt_uninitialize_locks  00000001800203e0 f   libucrt:locks.obj
 0001:0001f418       __acrt_unlock              0000000180020418 f   libucrt:locks.obj
 0001:0001f434       _lock_locales              0000000180020434 f   libucrt:locks.obj
 0001:0001f444       _unlock_locales            0000000180020444 f   libucrt:locks.obj
 0001:0001f454       __acrt_errno_from_os_error 0000000180020454 f   libucrt:errno.obj
 0001:0001f49c       __acrt_errno_map_os_error  000000018002049c f   libucrt:errno.obj
 0001:0001f4ec       __doserrno                 00000001800204ec f   libucrt:errno.obj
 0001:0001f50c       _errno                     000000018002050c f   libucrt:errno.obj
 0001:0001f52c       _fclose_nolock             000000018002052c f   libucrt:fclose.obj
 0001:0001f5b0       fclose                     00000001800205b0 f   libucrt:fclose.obj
 0001:0001f61c       __acrt_stdio_flush_nolock  000000018002061c f   libucrt:fflush.obj
 0001:0001f694       _fflush_nolock             0000000180020694 f   libucrt:fflush.obj
 0001:0001f6e0       _flushall                  00000001800206e0 f   libucrt:fflush.obj
 0001:0001f7d0       fflush                     00000001800207d0 f   libucrt:fflush.obj
 0001:0001f814       _fgetc_nolock              0000000180020814 f   libucrt:fgetc.obj
 0001:0001f858       fgetc                      0000000180020858 f   libucrt:fgetc.obj
 0001:0001f95c       fgetpos                    000000018002095c f   libucrt:fgetpos.obj
 0001:0001f9a8       _fputc_nolock              00000001800209a8 f   libucrt:fputc.obj
 0001:0001f9c0       fputc                      00000001800209c0 f   libucrt:fputc.obj
 0001:0001fae0       fsetpos                    0000000180020ae0 f   libucrt:fsetpos.obj
 0001:0001fd8c       _fseeki64                  0000000180020d8c f   libucrt:fseek.obj
 0001:0001fd94       ??$?RV<lambda_5d4c3fee44080f75d5d9762853974fe0>@@AEAV<lambda_532e024f4337e6fc7ad266c2bef9f4ed>@@V<lambda_c87bdc10097eb2402edb8ba9bdf0697b>@@@?$__crt_seh_guarded_call@_K@@QEAA_K$$QEAV<lambda_5d4c3fee44080f75d5d9762853974fe0>@@AEAV<lambda_532e024f4337e6fc7ad266c2bef9f4ed>@@$$QEAV<lambda_c87bdc10097eb2402edb8ba9bdf0697b>@@@Z 0000000180020d94 f i libucrt:fwrite.obj
 0001:0001fe38       _fwrite_nolock             0000000180020e38 f   libucrt:fwrite.obj
 0001:0001ffd4       fwrite                     0000000180020fd4 f   libucrt:fwrite.obj
 0001:00020058       ??$?RV<lambda_7a5ef57ff966f610505f1d28a3d40618>@@AEAV<lambda_b721fa326cdb32351d23dfa67958c160>@@V<lambda_5e0fb27672408a07956fe59e48ccb2aa>@@@?$__crt_seh_guarded_call@H@@QEAAH$$QEAV<lambda_7a5ef57ff966f610505f1d28a3d40618>@@AEAV<lambda_b721fa326cdb32351d23dfa67958c160>@@$$QEAV<lambda_5e0fb27672408a07956fe59e48ccb2aa>@@@Z 0000000180021058 f i libucrt:setvbuf.obj
 0001:00020188       setvbuf                    0000000180021188 f   libucrt:setvbuf.obj
 0001:00020228       _ungetc_nolock             0000000180021228 f   libucrt:ungetc.obj
 0001:00020338       ungetc                     0000000180021338 f   libucrt:ungetc.obj
 0001:00020398       malloc                     0000000180021398 f   libucrt:malloc.obj
 0001:00020488       setlocale                  0000000180021488 f   libucrt:setlocale.obj
 0001:00020654       _calloc_base               0000000180021654 f   libucrt:calloc_base.obj
 0001:000206cc       __pctype_func              00000001800216cc f   libucrt:ctype.obj
 0001:000206fc       isdigit                    00000001800216fc f i libucrt:_ctype.obj
 0001:00020770       islower                    0000000180021770 f i libucrt:_ctype.obj
 0001:000207e4       isupper                    00000001800217e4 f i libucrt:_ctype.obj
 0001:00020858       _wcsdup                    0000000180021858 f   libucrt:wcsdup.obj
 0001:000208dc       ___lc_codepage_func        00000001800218dc f   libucrt:initctype.obj
 0001:0002090c       ___lc_locale_name_func     000000018002190c f   libucrt:initctype.obj
 0001:00020940       ___mb_cur_max_func         0000000180021940 f   libucrt:initctype.obj
 0001:00020970       __acrt_locale_initialize_ctype 0000000180021970 f   libucrt:initctype.obj
 0001:00020fbc       _ismbblead                 0000000180021fbc f   libucrt:ismbbyte.obj
 0001:00020fd0       _malloc_base               0000000180021fd0 f   libucrt:malloc_base.obj
 0001:00021030       _realloc_base              0000000180022030 f   libucrt:realloc_base.obj
 0001:000210b4       __strncnt                  00000001800220b4 f   libucrt:strncnt.obj
 0001:000210cc       _free_base                 00000001800220cc f   libucrt:free_base.obj
 0001:0002115c       _tolower_l                 000000018002215c f   libucrt:tolower_toupper.obj
 0001:0002129c       tolower                    000000018002229c f   libucrt:tolower_toupper.obj
 0001:000212c8       wcscpy_s                   00000001800222c8 f   libucrt:wcscpy_s.obj
 0001:00021330       strnlen                    0000000180022330 f   libucrt:strnlen.obj
 0001:0002148c       wcsnlen                    000000018002248c f   libucrt:strnlen.obj
 0001:0002167c       sqrt                       000000018002267c f   libucrt:sqrt.obj
 0001:00021750       __acrt_initialize_new_handler 0000000180022750 f   libucrt:new_handler.obj
 0001:00021758       _callnewh                  0000000180022758 f   libucrt:new_handler.obj
 0001:00021798       _query_new_handler         0000000180022798 f   libucrt:new_handler.obj
 0001:000217cc       _seh_filter_dll            00000001800227cc f   libucrt:exception_filter.obj
 0001:000217e0       _seh_filter_exe            00000001800227e0 f   libucrt:exception_filter.obj
 0001:00021b54       __dcrt_uninitialize_environments_nolock 0000000180022b54 f   libucrt:environment_initialization.obj
 0001:00021b8c       _initialize_narrow_environment 0000000180022b8c f   libucrt:environment_initialization.obj
 0001:00021b94       ??$?RV<lambda_b8c45f8f788dd370798f47cfe8ac3a86>@@AEAV<lambda_4e60a939b0d047cfe11ddc22648dfba9>@@V<lambda_332c3edc96d0294ec56c57d38c1cdfd5>@@@?$__crt_seh_guarded_call@H@@QEAAH$$QEAV<lambda_b8c45f8f788dd370798f47cfe8ac3a86>@@AEAV<lambda_4e60a939b0d047cfe11ddc22648dfba9>@@$$QEAV<lambda_332c3edc96d0294ec56c57d38c1cdfd5>@@@Z 0000000180022b94 f i libucrt:onexit.obj
 0001:00021bd0       ??$?RV<lambda_e24bbb7b643b32fcea6fa61b31d4c984>@@AEAV<lambda_275893d493268fdec8709772e3fcec0e>@@V<lambda_9d71df4d7cf3f480f8d633942495c3b0>@@@?$__crt_seh_guarded_call@H@@QEAAH$$QEAV<lambda_e24bbb7b643b32fcea6fa61b31d4c984>@@AEAV<lambda_275893d493268fdec8709772e3fcec0e>@@$$QEAV<lambda_9d71df4d7cf3f480f8d633942495c3b0>@@@Z 0000000180022bd0 f i libucrt:onexit.obj
 0001:00021f4c       _crt_atexit                0000000180022f4c f   libucrt:onexit.obj
 0001:00021f5c       _execute_onexit_table      0000000180022f5c f   libucrt:onexit.obj
 0001:00021f98       _initialize_onexit_table   0000000180022f98 f   libucrt:onexit.obj
 0001:00021fd8       _register_onexit_function  0000000180022fd8 f   libucrt:onexit.obj
 0001:00022058       ?do_always_noconv@?$codecvt@DDU_Mbstatet@@@std@@MEBA_NXZ 0000000180023058 f   libcpmt:cout.obj
 0001:00022058       __acrt_uninitialize_command_line 0000000180023058 f   libucrt:argv_data.obj
 0001:00022158       __acrt_initialize          0000000180023158 f   libucrt:initialization.obj
 0001:0002216c       __acrt_thread_attach       000000018002316c f   libucrt:initialization.obj
 0001:00022180       __acrt_thread_detach       0000000180023180 f   libucrt:initialization.obj
 0001:00022190       __acrt_uninitialize        0000000180023190 f   libucrt:initialization.obj
 0001:000221a4       __acrt_uninitialize_critical 00000001800231a4 f   libucrt:initialization.obj
 0001:000221b4       _initterm                  00000001800231b4 f   libucrt:initterm.obj
 0001:0002222c       _initterm_e                000000018002322c f   libucrt:initterm.obj
 0001:00022278       terminate                  0000000180023278 f   libucrt:terminate.obj
 0001:000222a0       strcpy_s                   00000001800232a0 f   libucrt:strcpy_s.obj
 0001:00022300       ??$is_overflow_condition@K@__crt_strtox@@YA_NIK@Z 0000000180023300 f i libucrt:atox.obj
 0001:0002232c       ??$make_c_string_character_source@DPEAPEAD@__crt_strtox@@YA?AV?$c_string_character_source@D@0@QEBDQEAPEAD@Z 000000018002332c f i libucrt:strtox.obj
 0001:0002232c       ??$make_c_string_character_source@_W$$T@__crt_strtox@@YA?AV?$c_string_character_source@_W@0@QEB_W$$T@Z 000000018002332c f i libucrt:atox.obj
 0001:00022340       ??$parse_integer@KV?$c_string_character_source@D@__crt_strtox@@@__crt_strtox@@YAKQEAU__crt_locale_pointers@@V?$c_string_character_source@D@0@H_N@Z 0000000180023340 f i libucrt:atox.obj
 0001:00022654       ??$parse_integer@KV?$c_string_character_source@_W@__crt_strtox@@@__crt_strtox@@YAKQEAU__crt_locale_pointers@@V?$c_string_character_source@_W@0@H_N@Z 0000000180023654 f i libucrt:atox.obj
 0001:00022d28       _wtol                      0000000180023d28 f   libucrt:atox.obj
 0001:00022d54       ??$?RV<lambda_46352004c1216016012b18bd6f87e700>@@AEAV<lambda_3bd07e1a1191394380780325891bf33f>@@V<lambda_334532d3f185bcaa59b5be82d7d22bff>@@@?$__crt_seh_guarded_call@X@@QEAAX$$QEAV<lambda_46352004c1216016012b18bd6f87e700>@@AEAV<lambda_3bd07e1a1191394380780325891bf33f>@@$$QEAV<lambda_334532d3f185bcaa59b5be82d7d22bff>@@@Z 0000000180023d54 f i libucrt:per_thread_data.obj
 0001:00022db4       ??$?RV<lambda_5e887d1dcbef67a5eb4283622ba103bf>@@AEAV<lambda_4466841279450cc726390878d4a41900>@@V<lambda_341c25c0346d94847f1f3c463c57e077>@@@?$__crt_seh_guarded_call@X@@QEAAX$$QEAV<lambda_5e887d1dcbef67a5eb4283622ba103bf>@@AEAV<lambda_4466841279450cc726390878d4a41900>@@$$QEAV<lambda_341c25c0346d94847f1f3c463c57e077>@@@Z 0000000180023db4 f i libucrt:per_thread_data.obj
 0001:00022dfc       ??$?RV<lambda_72d1df2b273a38828b1ce30cbf4cdab5>@@AEAV<lambda_876a65b173b8412d3a47c70a915b0cf4>@@V<lambda_41932305e351933ebe8f8be3ed8bb5dc>@@@?$__crt_seh_guarded_call@X@@QEAAX$$QEAV<lambda_72d1df2b273a38828b1ce30cbf4cdab5>@@AEAV<lambda_876a65b173b8412d3a47c70a915b0cf4>@@$$QEAV<lambda_41932305e351933ebe8f8be3ed8bb5dc>@@@Z 0000000180023dfc f i libucrt:per_thread_data.obj
 0001:00022e3c       ??$?RV<lambda_fb3a7dec4e47f37f22dae91bb15c9095>@@AEAV<lambda_698284760c8add0bfb0756c19673e34b>@@V<lambda_dfb8eca1e75fef3034a8fb18dd509707>@@@?$__crt_seh_guarded_call@X@@QEAAX$$QEAV<lambda_fb3a7dec4e47f37f22dae91bb15c9095>@@AEAV<lambda_698284760c8add0bfb0756c19673e34b>@@$$QEAV<lambda_dfb8eca1e75fef3034a8fb18dd509707>@@@Z 0000000180023e3c f i libucrt:per_thread_data.obj
 0001:000230cc       __acrt_freeptd             00000001800240cc f   libucrt:per_thread_data.obj
 0001:00023110       __acrt_getptd              0000000180024110 f   libucrt:per_thread_data.obj
 0001:000231a4       __acrt_getptd_noexit       00000001800241a4 f   libucrt:per_thread_data.obj
 0001:00023244       __acrt_initialize_ptd      0000000180024244 f   libucrt:per_thread_data.obj
 0001:00023280       __acrt_uninitialize_ptd    0000000180024280 f   libucrt:per_thread_data.obj
 0001:000232a4       ??$?RV<lambda_c36588078e9f5dfd39652860aa6b3aaf>@@AEAV<lambda_ec61778202f4f5fc7e7711acc23c3bca>@@V<lambda_dc9d2797ccde5d239b4a0efae8ebd7db>@@@?$__crt_seh_guarded_call@P6AXH@Z@@QEAAP6AXH@Z$$QEAV<lambda_c36588078e9f5dfd39652860aa6b3aaf>@@AEAV<lambda_ec61778202f4f5fc7e7711acc23c3bca>@@$$QEAV<lambda_dc9d2797ccde5d239b4a0efae8ebd7db>@@@Z 00000001800242a4 f i libucrt:signal.obj
 0001:000232ec       __acrt_get_sigabrt_handler 00000001800242ec f   libucrt:signal.obj
 0001:0002331c       __acrt_initialize_signal_handlers 000000018002431c f   libucrt:signal.obj
 0001:0002333c       raise                      000000018002433c f   libucrt:signal.obj
 0001:0002361c       ??$?RV<lambda_630b2aca97f6d20d5b5ea6529ea6b6af>@@AEAV<lambda_af91936f1d075d609f72d9d8cba980af>@@V<lambda_e82fa975f615b5c7c7b0e4d178fdae67>@@@?$__crt_seh_guarded_call@H@@QEAAH$$QEAV<lambda_630b2aca97f6d20d5b5ea6529ea6b6af>@@AEAV<lambda_af91936f1d075d609f72d9d8cba980af>@@$$QEAV<lambda_e82fa975f615b5c7c7b0e4d178fdae67>@@@Z 000000018002461c f i libucrt:winapi_thunks.obj
 0001:00023854       __acrt_EnumSystemLocalesEx 0000000180024854 f   libucrt:winapi_thunks.obj
 0001:000238fc       __acrt_FlsAlloc            00000001800248fc f   libucrt:winapi_thunks.obj
 0001:00023954       __acrt_FlsFree             0000000180024954 f   libucrt:winapi_thunks.obj
 0001:000239ac       __acrt_FlsGetValue         00000001800249ac f   libucrt:winapi_thunks.obj
 0001:00023a04       __acrt_FlsSetValue         0000000180024a04 f   libucrt:winapi_thunks.obj
 0001:00023a6c       __acrt_GetLocaleInfoEx     0000000180024a6c f   libucrt:winapi_thunks.obj
 0001:00023b04       __acrt_GetUserDefaultLocaleName 0000000180024b04 f   libucrt:winapi_thunks.obj
 0001:00023b78       __acrt_InitializeCriticalSectionEx 0000000180024b78 f   libucrt:winapi_thunks.obj
 0001:00023bf0       __acrt_IsValidLocaleName   0000000180024bf0 f   libucrt:winapi_thunks.obj
 0001:00023c58       __acrt_LCIDToLocaleName    0000000180024c58 f   libucrt:winapi_thunks.obj
 0001:00023ce4       __acrt_LCMapStringEx       0000000180024ce4 f   libucrt:winapi_thunks.obj
 0001:00023dd4       __acrt_LocaleNameToLCID    0000000180024dd4 f   libucrt:winapi_thunks.obj
 0001:00023e3c       __acrt_can_use_vista_locale_apis 0000000180024e3c f   libucrt:winapi_thunks.obj
 0001:00023e6c       __acrt_initialize_winapi_thunks 0000000180024e6c f   libucrt:winapi_thunks.obj
 0001:00023ea4       __acrt_is_packaged_app     0000000180024ea4 f   libucrt:winapi_thunks.obj
 0001:00023f2c       __acrt_uninitialize_winapi_thunks 0000000180024f2c f   libucrt:winapi_thunks.obj
 0001:00023f70       _fcloseall                 0000000180024f70 f   libucrt:closeall.obj
 0001:00024024       __acrt_stdio_free_buffer_nolock 0000000180025024 f   libucrt:_freebuf.obj
 0001:0002424c       __acrt_initialize_lowio    000000018002524c f   libucrt:ioinit.obj
 0001:00024288       __acrt_uninitialize_lowio  0000000180025288 f   libucrt:ioinit.obj
 0001:000242c8       strtol                     00000001800252c8 f   libucrt:strtox.obj
 0001:000242f8       _mbtowc_l                  00000001800252f8 f   libucrt:mbtowc.obj
 0001:00024440       mbtowc                     0000000180025440 f   libucrt:mbtowc.obj
 0001:00024448       _wctomb_s_l                0000000180025448 f   libucrt:wctomb.obj
 0001:000245cc       wctomb_s                   00000001800255cc f   libucrt:wctomb.obj
 0001:000245e0       __acrt_update_locale_info  00000001800255e0 f   libucrt:locale_update.obj
 0001:00024614       __acrt_update_multibyte_info 0000000180025614 f   libucrt:locale_update.obj
 0001:00024648       ?__acrt_fp_classify@@YA?AW4__acrt_fp_class@@AEBN@Z 0000000180025648 f i libucrt:cvt.obj
 0001:00025080       __acrt_fp_format           0000000180026080 f   libucrt:cvt.obj
 0001:000252c4       _fileno                    00000001800262c4 f   libucrt:fileno.obj
 0001:000252ec       _get_printf_count_output   00000001800262ec f   libucrt:printf_count_output.obj
 0001:00025304       __acrt_stdio_begin_temporary_buffering_nolock 0000000180026304 f   libucrt:_sftbuf.obj
 0001:000253d4       __acrt_stdio_end_temporary_buffering_nolock 00000001800263d4 f   libucrt:_sftbuf.obj
 0001:00025410       ??$?RV<lambda_5df02c53a8f32f81fd64e5bbb78039f1>@@AEAV<lambda_2af78c5f5901b1372d98f9ab3177dfa6>@@AEAV<lambda_f51fe5fd7c79a33db34fc9310f277369>@@@?$__crt_seh_guarded_call@X@@QEAAX$$QEAV<lambda_5df02c53a8f32f81fd64e5bbb78039f1>@@AEAV<lambda_2af78c5f5901b1372d98f9ab3177dfa6>@@AEAV<lambda_f51fe5fd7c79a33db34fc9310f277369>@@@Z 0000000180026410 f i libucrt:wsetlocale.obj
 0001:0002543c       ??$?RV<lambda_d67e8342c384adda8f857579ab50b2ae>@@AEAV<lambda_30712929f77e709619002f448b6a9510>@@V<lambda_4525336fd7e478d965fb7ca7a337cad8>@@@?$__crt_seh_guarded_call@X@@QEAAX$$QEAV<lambda_d67e8342c384adda8f857579ab50b2ae>@@AEAV<lambda_30712929f77e709619002f448b6a9510>@@$$QEAV<lambda_4525336fd7e478d965fb7ca7a337cad8>@@@Z 000000018002643c f i libucrt:wsetlocale.obj
 0001:00025608       __acrt_copy_locale_name    0000000180026608 f   libucrt:wsetlocale.obj
 0001:0002568c       __acrt_set_locale_changed  000000018002668c f   libucrt:wsetlocale.obj
 0001:00025698       __acrt_uninitialize_locale 0000000180026698 f   libucrt:wsetlocale.obj
 0001:000256e0       __lc_lctowcs               00000001800266e0 f   libucrt:wsetlocale.obj
 0001:00025784       __lc_wcstolc               0000000180026784 f   libucrt:wsetlocale.obj
 0001:000259fc       _expandlocale              00000001800269fc f   libucrt:wsetlocale.obj
 0001:00025df8       _wcscats                   0000000180026df8 f   libucrt:wsetlocale.obj
 0001:00025e60       _wsetlocale                0000000180026e60 f   libucrt:wsetlocale.obj
 0001:000266ac       _dsign                     00000001800276ac f   libucrt:nan.obj
 0001:000266c4       _errcode                   00000001800276c4 f   libucrt:fpexcept.obj
 0001:00026708       _except1                   0000000180027708 f   libucrt:fpexcept.obj
 0001:000267fc       _handle_exc                00000001800277fc f   libucrt:fpexcept.obj
 0001:00026a64       _raise_exc                 0000000180027a64 f   libucrt:fpexcept.obj
 0001:00026a8c       _raise_exc_ex              0000000180027a8c f   libucrt:fpexcept.obj
 0001:00026d94       _raise_excf                0000000180027d94 f   libucrt:fpexcept.obj
 0001:00026dc0       _set_errno_from_matherr    0000000180027dc0 f   libucrt:fpexcept.obj
 0001:00026df0       _umatherr                  0000000180027df0 f   libucrt:fpexcept.obj
 0001:00026ec4       _decomp                    0000000180027ec4 f   libucrt:util.obj
 0001:00026ff8       _sptype                    0000000180027ff8 f   libucrt:util.obj
 0001:0002706c       _clrfp                     000000018002806c f   libucrt:fpctrl.obj
 0001:0002708c       _ctrlfp                    000000018002808c f   libucrt:fpctrl.obj
 0001:00027108       _set_statfp                0000000180028108 f   libucrt:fpctrl.obj
 0001:00027128       _statfp                    0000000180028128 f   libucrt:fpctrl.obj
 0001:0002713c       _d_int                     000000018002813c f   libucrt:_test.obj
 0001:00027254       _fd_int                    0000000180028254 f   libucrt:_test.obj
 0001:0002732c       ??$?RV<lambda_bfedae4ebbf01fab1bb6dcc6a9e276e0>@@AEAV<lambda_2fe9b910cf3cbf4a0ab98a02ba45b3ec>@@V<lambda_237c231691f317818eb88cc1d5d642d6>@@@?$__crt_seh_guarded_call@H@@QEAAH$$QEAV<lambda_bfedae4ebbf01fab1bb6dcc6a9e276e0>@@AEAV<lambda_2fe9b910cf3cbf4a0ab98a02ba45b3ec>@@$$QEAV<lambda_237c231691f317818eb88cc1d5d642d6>@@@Z 000000018002832c f i libucrt:close.obj
 0001:000273a0       _close                     00000001800283a0 f   libucrt:close.obj
 0001:00027444       _close_nolock              0000000180028444 f   libucrt:close.obj
 0001:00027500       ?__acrt_stdio_free_stream@@YAXV__crt_stdio_stream@@@Z 0000000180028500 f   libucrt:stream.obj
 0001:00027544       ??$?RV<lambda_b521505b218e5242e90febf6bfebc422>@@AEAV<lambda_6978c1fb23f02e42e1d9e99668cc68aa>@@V<lambda_314360699dd331753a4119843814e9a7>@@@?$__crt_seh_guarded_call@H@@QEAAH$$QEAV<lambda_b521505b218e5242e90febf6bfebc422>@@AEAV<lambda_6978c1fb23f02e42e1d9e99668cc68aa>@@$$QEAV<lambda_314360699dd331753a4119843814e9a7>@@@Z 0000000180028544 f i libucrt:commit.obj
 0001:000275d0       _commit                    00000001800285d0 f   libucrt:commit.obj
 0001:00027c04       _write                     0000000180028c04 f   libucrt:write.obj
 0001:00027cf0       _write_nolock              0000000180028cf0 f   libucrt:write.obj
 0001:0002817c       __acrt_stdio_refill_and_read_narrow_nolock 000000018002917c f   libucrt:_filbuf.obj
 0001:00028640       _ftelli64                  0000000180029640 f   libucrt:ftell.obj
 0001:00028648       _ftelli64_nolock           0000000180029648 f   libucrt:ftell.obj
 0001:00028754       __acrt_stdio_flush_and_write_narrow_nolock 0000000180029754 f   libucrt:_flsbuf.obj
 0001:000289c8       _lseeki64                  00000001800299c8 f   libucrt:lseek.obj
 0001:000289d0       _lseeki64_nolock           00000001800299d0 f   libucrt:lseek.obj
 0001:000289d8       __acrt_stdio_allocate_buffer_nolock 00000001800299d8 f   libucrt:_getbuf.obj
 0001:00028c18       _mbstowcs_s_l              0000000180029c18 f   libucrt:mbstowcs.obj
 0001:00028d48       mbstowcs_s                 0000000180029d48 f   libucrt:mbstowcs.obj
 0001:0002909c       _wcstombs_s_l              000000018002a09c f   libucrt:wcstombs.obj
 0001:00029188       _query_new_mode            000000018002a188 f   libucrt:new_mode.obj
 0001:00029190       __acrt_initialize_heap     000000018002a190 f   libucrt:heap_handle.obj
 0001:000291ac       __acrt_uninitialize_heap   000000018002a1ac f   libucrt:heap_handle.obj
 0001:000291b8       _isctype_l                 000000018002a1b8 f   libucrt:isctype.obj
 0001:00029468       __acrt_GetLocaleInfoA      000000018002a468 f   libucrt:getlocaleinfoa.obj
 0001:00029630       __acrt_GetStringTypeA      000000018002a630 f   libucrt:getstringtypea.obj
 0001:00029b40       __acrt_LCMapStringA        000000018002ab40 f   libucrt:lcmapstringa.obj
 0001:00029bd8       _wcsicmp                   000000018002abd8 f   libucrt:wcsicmp.obj
 0001:00029c60       _wcsicmp_l                 000000018002ac60 f   libucrt:wcsicmp.obj
 0001:00029d50       __acrt_initialize_timeset  000000018002ad50 f   libucrt:timeset.obj
 0001:00029d80       _isleadbyte_l              000000018002ad80 f i libucrt:_wctype.obj
 0001:00029ee4       _handle_error              000000018002aee4 f   libucrt:libm_error.obj
 0001:0002a00c       _handle_errorf             000000018002b00c f   libucrt:libm_error.obj
 0001:0002a140       _handle_nan                000000018002b140 f   libucrt:libm_error.obj
 0001:0002a15c       _handle_nanf               000000018002b15c f   libucrt:libm_error.obj
 0001:0002a16c       ??$?RV<lambda_99476a1ad63dd22509b5d3e65b0ffc95>@@AEAV<lambda_ad1ced32f4ac17aa236e5ef05d6b3b7c>@@V<lambda_f7424dd8d45958661754dc4f2697e9c3>@@@?$__crt_seh_guarded_call@X@@QEAAX$$QEAV<lambda_99476a1ad63dd22509b5d3e65b0ffc95>@@AEAV<lambda_ad1ced32f4ac17aa236e5ef05d6b3b7c>@@$$QEAV<lambda_f7424dd8d45958661754dc4f2697e9c3>@@@Z 000000018002b16c f i libucrt:mbctype.obj
 0001:0002a868       __acrt_initialize_multibyte 000000018002b868 f   libucrt:mbctype.obj
 0001:0002a890       __acrt_update_thread_multibyte_data 000000018002b890 f   libucrt:mbctype.obj
 0001:0002a950       _setmbcp_nolock            000000018002b950 f   libucrt:mbctype.obj
 0001:0002abf8       __dcrt_get_narrow_environment_from_os 000000018002bbf8 f   libucrt:get_environment_from_os.obj
 0001:0002acfc       _recalloc                  000000018002bcfc f   libucrt:recalloc.obj
 0001:0002ad04       _recalloc_base             000000018002bd04 f   libucrt:recalloc.obj
 0001:0002ad9c       __acrt_initialize_command_line 000000018002bd9c f   libucrt:argv_data.obj
 0001:0002adc4       __acrt_execute_initializers 000000018002bdc4 f   libucrt:shared_initialization.obj
 0001:0002ae58       __acrt_execute_uninitializers 000000018002be58 f   libucrt:shared_initialization.obj
 0001:0002aea8       __acrt_has_user_matherr    000000018002bea8 f   libucrt:matherr.obj
 0001:0002aec8       __acrt_initialize_user_matherr 000000018002bec8 f   libucrt:matherr.obj
 0001:0002aed0       __acrt_invoke_user_matherr 000000018002bed0 f   libucrt:matherr.obj
 0001:0002af18       iswctype                   000000018002bf18 f   libucrt:iswctype.obj
 0001:0002af88       __acrt_add_locale_ref      000000018002bf88 f   libucrt:locale_refcounting.obj
 0001:0002b014       __acrt_free_locale         000000018002c014 f   libucrt:locale_refcounting.obj
 0001:0002b18c       __acrt_locale_add_lc_time_reference 000000018002c18c f   libucrt:locale_refcounting.obj
 0001:0002b1b4       __acrt_locale_free_lc_time_if_unreferenced 000000018002c1b4 f   libucrt:locale_refcounting.obj
 0001:0002b1ec       __acrt_locale_release_lc_time_reference 000000018002c1ec f   libucrt:locale_refcounting.obj
 0001:0002b214       __acrt_release_locale_ref  000000018002c214 f   libucrt:locale_refcounting.obj
 0001:0002b2bc       __acrt_update_thread_locale_data 000000018002c2bc f   libucrt:locale_refcounting.obj
 0001:0002b32c       _updatetlocinfoEx_nolock   000000018002c32c f   libucrt:locale_refcounting.obj
 0001:0002b45c       __acrt_DownlevelLCIDToLocaleName 000000018002c45c f   libucrt:lcidtoname_downlevel.obj
 0001:0002b540       __acrt_DownlevelLocaleNameToLCID 000000018002c540 f   libucrt:lcidtoname_downlevel.obj
 0001:0002b574       __acrt_lowio_create_handle_array 000000018002c574 f   libucrt:osfinfo.obj
 0001:0002b60c       __acrt_lowio_destroy_handle_array 000000018002c60c f   libucrt:osfinfo.obj
 0001:0002b65c       __acrt_lowio_ensure_fh_exists 000000018002c65c f   libucrt:osfinfo.obj
 0001:0002b714       __acrt_lowio_lock_fh       000000018002c714 f   libucrt:osfinfo.obj
 0001:0002b738       __acrt_lowio_unlock_fh     000000018002c738 f   libucrt:osfinfo.obj
 0001:0002b75c       _free_osfhnd               000000018002c75c f   libucrt:osfinfo.obj
 0001:0002b818       _get_osfhandle             000000018002c818 f   libucrt:osfinfo.obj
 0001:0002b890       __acrt_fp_strflt_to_string 000000018002c890 f   libucrt:_fptostr.obj
 0001:0002b950       ?divide@__crt_strtox@@YA_KAEAUbig_integer@1@AEBU21@@Z 000000018002c950 f i libucrt:cfout.obj
 0001:0002be20       __acrt_fltout              000000018002ce20 f   libucrt:cfout.obj
 0001:0002d214       _isatty                    000000018002e214 f   libucrt:isatty.obj
 0001:0002d274       __acrt_locale_free_monetary 000000018002e274 f   libucrt:initmon.obj
 0001:0002d380       __acrt_locale_initialize_monetary 000000018002e380 f   libucrt:initmon.obj
 0001:0002d8b8       __acrt_locale_free_numeric 000000018002e8b8 f   libucrt:initnum.obj
 0001:0002d924       __acrt_locale_initialize_numeric 000000018002e924 f   libucrt:initnum.obj
 0001:0002dfa8       __acrt_locale_free_time    000000018002efa8 f   libucrt:inittime.obj
 0001:0002e0b0       __acrt_locale_initialize_time 000000018002f0b0 f   libucrt:inittime.obj
 0001:0002e144       wcscat_s                   000000018002f144 f   libucrt:wcscat_s.obj
 0001:0002e1c4       wcsncpy_s                  000000018002f1c4 f   libucrt:wcsncpy_s.obj
 0001:0002e2a8       wcscspn                    000000018002f2a8 f   libucrt:wcscspn.obj
 0001:0002e2e8       wcsncmp                    000000018002f2e8 f   libucrt:wcsncmp.obj
 0001:0002e314       wcspbrk                    000000018002f314 f   libucrt:wcspbrk.obj
 0001:0002ebb8       __acrt_get_qualified_locale 000000018002fbb8 f   libucrt:get_qualified_locale.obj
 0001:0002f5a4       __acrt_get_qualified_locale_downlevel 00000001800305a4 f   libucrt:getqloc_downlevel.obj
 0001:0002f850       _get_fpsr                  0000000180030850 f   libucrt:fpsr.obj
 0001:0002f860       _set_fpsr                  0000000180030860 f   libucrt:fpsr.obj
 0001:0002f86a       _fclrf                     000000018003086a f   libucrt:fpsr.obj
 0001:0002f87e       _frnd                      000000018003087e f   libucrt:fpsr.obj
 0001:0002f8a0       _getfpcontrolword          00000001800308a0 f   libucrt:_fenvutils.obj
 0001:0002f8b8       _getfpstatusword           00000001800308b8 f   libucrt:_fenvutils.obj
 0001:0002f8cc       _setfpcontrolword          00000001800308cc f   libucrt:_fenvutils.obj
 0001:0002f8d8       _setfpstatusword           00000001800308d8 f   libucrt:_fenvutils.obj
 0001:0002f928       _putwch_nolock             0000000180030928 f   libucrt:putwch.obj
 0001:0002feb4       _read                      0000000180030eb4 f   libucrt:read.obj
 0001:0002ffcc       _read_nolock               0000000180030fcc f   libucrt:read.obj
 0001:00030434       strncpy_s                  0000000180031434 f   libucrt:strncpy_s.obj
 0001:00030508       _towlower_l                0000000180031508 f   libucrt:towlower.obj
 0001:000305e4       _msize                     00000001800315e4 f   libucrt:msize.obj
 0001:00030620       _query_app_type            0000000180031620 f   libucrt:report_runtime_error.obj
 0001:00030628       fegetenv                   0000000180031628 f   libucrt:fegetenv.obj
 0001:00030648       fesetenv                   0000000180031648 f   libucrt:fesetenv.obj
 0001:00030694       feholdexcept               0000000180031694 f   libucrt:feholdexcept.obj
 0001:000306e4       ceil                       00000001800316e4 f   libucrt:ceil.obj
 0001:000307b0       log10                      00000001800317b0 f   libucrt:log10.obj
 0001:00030e84       _itow_s                    0000000180031e84 f   libucrt:xtoa.obj
 0001:00030ea4       _wcsnicmp                  0000000180031ea4 f   libucrt:wcsnicmp.obj
 0001:00030f40       _wcsnicmp_l                0000000180031f40 f   libucrt:wcsnicmp.obj
 0001:00031058       wcscmp                     0000000180032058 f   libucrt:wcscmp.obj
 0001:00031090       _clearfp                   0000000180032090 f   libucrt:ieee.obj
 0001:000310e4       _controlfp                 00000001800320e4 f   libucrt:ieee.obj
 0001:000310f0       _statusfp                  00000001800320f0 f   libucrt:ieee.obj
 0001:000313d0       __dcrt_lowio_initialize_console_output 00000001800323d0 f   libucrt:initcon.obj
 0001:0003140c       __dcrt_terminate_console_output 000000018003240c f   libucrt:initcon.obj
 0001:0003142c       __acrt_LCMapStringW        000000018003242c f   libucrt:lcmapstringw.obj
 0001:000314c0       __acrt_initialize_fma3     00000001800324c0 f   libucrt:fma3_available.obj
 0001:00031530       _log10_special             0000000180032530 f   libucrt:log_special.obj
 0001:000315e6       IsProcessorFeaturePresent  00000001800325e6 f   kernel32:KERNEL32.dll
 0001:000315ec       RtlUnwindEx                00000001800325ec f   kernel32:KERNEL32.dll
 0001:000315f2       SystemFunction036          00000001800325f2 f   advapi32:ADVAPI32.dll
 0001:000315f8       ?DloadAcquireSectionWriteAccess@@YAXXZ 00000001800325f8 f i DelayImp:delayhlp.obj
 0001:000316b4       ?DloadGetSRWLockFunctionPointers@@YAEXZ 00000001800326b4 f i DelayImp:delayhlp.obj
 0001:00031750       ?DloadMakePermanentImageCommit@@YAXPEAX_K@Z 0000000180032750 f i DelayImp:delayhlp.obj
 0001:000317e8       ?DloadObtainSection@@YAPEAXPEAK0@Z 00000001800327e8 f i DelayImp:delayhlp.obj
 0001:00031880       ?DloadProtectSection@@YAXKPEAK@Z 0000000180032880 f i DelayImp:delayhlp.obj
 0001:00031910       ?DloadReleaseSectionWriteAccess@@YAXXZ 0000000180032910 f i DelayImp:delayhlp.obj
 0001:000319b4       __delayLoadHelper2         00000001800329b4 f   DelayImp:delayhlp.obj
 0001:00031cc0       _FindPESection             0000000180032cc0 f   LIBCMT:pesect.obj
 0001:00031d10       _IsNonwritableInCurrentImage 0000000180032d10 f   LIBCMT:pesect.obj
 0001:00031d60       _ValidateImageBase         0000000180032d60 f   LIBCMT:pesect.obj
 0001:00031d90       strrchr                    0000000180032d90 f   libvcruntime:strrchr.obj
 0001:00031ed4       wcschr                     0000000180032ed4 f   libvcruntime:wcschr.obj
 0001:00031f60       atanf                      0000000180032f60 f   libucrt:atanf.obj
 0001:00032160       cos                        0000000180033160 f   libucrt:cos.obj
 0001:000326e0       sin                        00000001800336e0 f   libucrt:sin.obj
 0001:00032c4c       sqrtf                      0000000180033c4c f   libucrt:sqrtf.obj
 0001:00032d00       __remainder_piby2_forAsm   0000000180033d00 f   libucrt:remainder_piby2_forasm.obj
 0001:00032f10       __remainder_piby2_cw_forAsm 0000000180033f10 f   libucrt:remainder_piby2_forasm.obj
 0001:00033050       __remainder_piby2_fma3     0000000180034050 f   libucrt:remainder_piby2_forfma3.obj
 0001:00033240       __remainder_piby2_fma3_bdl 0000000180034240 f   libucrt:remainder_piby2_forfma3.obj
 0001:000332b8       _cos_special               00000001800342b8 f   libucrt:sincos_special.obj
 0001:000332cc       _sin_special               00000001800342cc f   libucrt:sincos_special.obj
 0001:000333a0       _guard_dispatch_icall_nop  00000001800343a0 f   LIBCMT:_guard_dispatch_.obj
 0001:000338a0       ??__F_Static@?1???$_Immortalize@V_Iostream_error_category@std@@@std@@YAAEAV_Iostream_error_category@0@XZ@YAXXZ 00000001800348a0 f i Learn_Image.obj
 0002:00000000       __imp_SystemFunction036    0000000180035000     advapi32:ADVAPI32.dll
 0002:00000008       \177ADVAPI32_NULL_THUNK_DATA 0000000180035008     advapi32:ADVAPI32.dll
 0002:00000010       __imp_VirtualProtect       0000000180035010     kernel32:KERNEL32.dll
 0002:00000018       __imp_GetSystemInfo        0000000180035018     kernel32:KERNEL32.dll
 0002:00000020       __imp_VirtualQuery         0000000180035020     kernel32:KERNEL32.dll
 0002:00000028       __imp_GetModuleHandleA     0000000180035028     kernel32:KERNEL32.dll
 0002:00000030       __imp_CreateFileW          0000000180035030     kernel32:KERNEL32.dll
 0002:00000038       __imp_HeapSize             0000000180035038     kernel32:KERNEL32.dll
 0002:00000040       __imp_ReadConsoleW         0000000180035040     kernel32:KERNEL32.dll
 0002:00000048       __imp_WriteConsoleW        0000000180035048     kernel32:KERNEL32.dll
 0002:00000050       __imp_SetStdHandle         0000000180035050     kernel32:KERNEL32.dll
 0002:00000058       __imp_GetCommandLineW      0000000180035058     kernel32:KERNEL32.dll
 0002:00000060       __imp_GetCommandLineA      0000000180035060     kernel32:KERNEL32.dll
 0002:00000068       __imp_FreeEnvironmentStringsW 0000000180035068     kernel32:KERNEL32.dll
 0002:00000070       __imp_GetEnvironmentStringsW 0000000180035070     kernel32:KERNEL32.dll
 0002:00000078       __imp_GetOEMCP             0000000180035078     kernel32:KERNEL32.dll
 0002:00000080       __imp_IsValidCodePage      0000000180035080     kernel32:KERNEL32.dll
 0002:00000088       __imp_GetProcessHeap       0000000180035088     kernel32:KERNEL32.dll
 0002:00000090       __imp_SetFilePointerEx     0000000180035090     kernel32:KERNEL32.dll
 0002:00000098       __imp_ReadFile             0000000180035098     kernel32:KERNEL32.dll
 0002:000000a0       __imp_GetConsoleMode       00000001800350a0     kernel32:KERNEL32.dll
 0002:000000a8       __imp_GetConsoleCP         00000001800350a8     kernel32:KERNEL32.dll
 0002:000000b0       __imp_WriteFile            00000001800350b0     kernel32:KERNEL32.dll
 0002:000000b8       __imp_FlushFileBuffers     00000001800350b8     kernel32:KERNEL32.dll
 0002:000000c0       __imp_GetACP               00000001800350c0     kernel32:KERNEL32.dll
 0002:000000c8       __imp_GetFileType          00000001800350c8     kernel32:KERNEL32.dll
 0002:000000d0       __imp_GetStdHandle         00000001800350d0     kernel32:KERNEL32.dll
 0002:000000d8       __imp_EnumSystemLocalesW   00000001800350d8     kernel32:KERNEL32.dll
 0002:000000e0       __imp_GetUserDefaultLCID   00000001800350e0     kernel32:KERNEL32.dll
 0002:000000e8       __imp_IsValidLocale        00000001800350e8     kernel32:KERNEL32.dll
 0002:000000f0       __imp_HeapFree             00000001800350f0     kernel32:KERNEL32.dll
 0002:000000f8       __imp_HeapReAlloc          00000001800350f8     kernel32:KERNEL32.dll
 0002:00000100       __imp_HeapAlloc            0000000180035100     kernel32:KERNEL32.dll
 0002:00000108       __imp_QueryPerformanceFrequency 0000000180035108     kernel32:KERNEL32.dll
 0002:00000110       __imp_GetModuleHandleExW   0000000180035110     kernel32:KERNEL32.dll
 0002:00000118       __imp_ExitProcess          0000000180035118     kernel32:KERNEL32.dll
 0002:00000120       __imp_InterlockedFlushSList 0000000180035120     kernel32:KERNEL32.dll
 0002:00000128       __imp_GetModuleFileNameW   0000000180035128     kernel32:KERNEL32.dll
 0002:00000130       __imp_LoadLibraryExW       0000000180035130     kernel32:KERNEL32.dll
 0002:00000138       __imp_FreeLibrary          0000000180035138     kernel32:KERNEL32.dll
 0002:00000140       __imp_GetLastError         0000000180035140     kernel32:KERNEL32.dll
 0002:00000148       __imp_RtlUnwindEx          0000000180035148     kernel32:KERNEL32.dll
 0002:00000150       __imp_RaiseException       0000000180035150     kernel32:KERNEL32.dll
 0002:00000158       __imp_RtlPcToFileHeader    0000000180035158     kernel32:KERNEL32.dll
 0002:00000160       __imp_InitializeSListHead  0000000180035160     kernel32:KERNEL32.dll
 0002:00000168       __imp_GetCurrentThreadId   0000000180035168     kernel32:KERNEL32.dll
 0002:00000170       __imp_GetCurrentProcessId  0000000180035170     kernel32:KERNEL32.dll
 0002:00000178       __imp_QueryPerformanceCounter 0000000180035178     kernel32:KERNEL32.dll
 0002:00000180       __imp_GetStartupInfoW      0000000180035180     kernel32:KERNEL32.dll
 0002:00000188       __imp_IsDebuggerPresent    0000000180035188     kernel32:KERNEL32.dll
 0002:00000190       __imp_IsProcessorFeaturePresent 0000000180035190     kernel32:KERNEL32.dll
 0002:00000198       __imp_TerminateProcess     0000000180035198     kernel32:KERNEL32.dll
 0002:000001a0       __imp_GetCurrentProcess    00000001800351a0     kernel32:KERNEL32.dll
 0002:000001a8       __imp_SetUnhandledExceptionFilter 00000001800351a8     kernel32:KERNEL32.dll
 0002:000001b0       __imp_UnhandledExceptionFilter 00000001800351b0     kernel32:KERNEL32.dll
 0002:000001b8       __imp_RtlVirtualUnwind     00000001800351b8     kernel32:KERNEL32.dll
 0002:000001c0       __imp_RtlLookupFunctionEntry 00000001800351c0     kernel32:KERNEL32.dll
 0002:000001c8       __imp_RtlCaptureContext    00000001800351c8     kernel32:KERNEL32.dll
 0002:000001d0       __imp_WaitForSingleObjectEx 00000001800351d0     kernel32:KERNEL32.dll
 0002:000001d8       __imp_ResetEvent           00000001800351d8     kernel32:KERNEL32.dll
 0002:000001e0       __imp_SetEvent             00000001800351e0     kernel32:KERNEL32.dll
 0002:000001e8       __imp_CloseHandle          00000001800351e8     kernel32:KERNEL32.dll
 0002:000001f0       __imp_GetCPInfo            00000001800351f0     kernel32:KERNEL32.dll
 0002:000001f8       __imp_GetStringTypeW       00000001800351f8     kernel32:KERNEL32.dll
 0002:00000200       __imp_GetLocaleInfoW       0000000180035200     kernel32:KERNEL32.dll
 0002:00000208       __imp_LCMapStringW         0000000180035208     kernel32:KERNEL32.dll
 0002:00000210       __imp_GetProcAddress       0000000180035210     kernel32:KERNEL32.dll
 0002:00000218       __imp_GetModuleHandleW     0000000180035218     kernel32:KERNEL32.dll
 0002:00000220       __imp_GetSystemTimeAsFileTime 0000000180035220     kernel32:KERNEL32.dll
 0002:00000228       __imp_TlsFree              0000000180035228     kernel32:KERNEL32.dll
 0002:00000230       __imp_TlsSetValue          0000000180035230     kernel32:KERNEL32.dll
 0002:00000238       __imp_TlsGetValue          0000000180035238     kernel32:KERNEL32.dll
 0002:00000240       __imp_TlsAlloc             0000000180035240     kernel32:KERNEL32.dll
 0002:00000248       __imp_CreateEventW         0000000180035248     kernel32:KERNEL32.dll
 0002:00000250       __imp_InitializeCriticalSectionAndSpinCount 0000000180035250     kernel32:KERNEL32.dll
 0002:00000258       __imp_SetLastError         0000000180035258     kernel32:KERNEL32.dll
 0002:00000260       __imp_MultiByteToWideChar  0000000180035260     kernel32:KERNEL32.dll
 0002:00000268       __imp_DecodePointer        0000000180035268     kernel32:KERNEL32.dll
 0002:00000270       __imp_EncodePointer        0000000180035270     kernel32:KERNEL32.dll
 0002:00000278       __imp_DeleteCriticalSection 0000000180035278     kernel32:KERNEL32.dll
 0002:00000280       __imp_LeaveCriticalSection 0000000180035280     kernel32:KERNEL32.dll
 0002:00000288       __imp_EnterCriticalSection 0000000180035288     kernel32:KERNEL32.dll
 0002:00000290       __imp_WideCharToMultiByte  0000000180035290     kernel32:KERNEL32.dll
 0002:00000298       __imp_LoadLibraryExA       0000000180035298     kernel32:KERNEL32.dll
 0002:000002a0       \177KERNEL32_NULL_THUNK_DATA 00000001800352a0     kernel32:KERNEL32.dll
 0002:000002a8       __imp_?deallocate@Mat@cv@@QEAAXXZ 00000001800352a8     opencv_core2411:opencv_core2411.dll
 0002:000002b0       __imp_?create@Mat@cv@@QEAAXHPEBHH@Z 00000001800352b0     opencv_core2411:opencv_core2411.dll
 0002:000002b8       __imp_?zeros@Mat@cv@@SA?AVMatExpr@2@V?$Size_@H@2@H@Z 00000001800352b8     opencv_core2411:opencv_core2411.dll
 0002:000002c0       __imp_?copySize@Mat@cv@@QEAAXAEBV12@@Z 00000001800352c0     opencv_core2411:opencv_core2411.dll
 0002:000002c8       __imp_?clear@_OutputArray@cv@@UEBAXXZ 00000001800352c8     opencv_core2411:opencv_core2411.dll
 0002:000002d0       __imp_?release@_OutputArray@cv@@UEBAXXZ 00000001800352d0     opencv_core2411:opencv_core2411.dll
 0002:000002d8       __imp_?create@_OutputArray@cv@@UEBAXV?$Size_@H@2@HH_NH@Z 00000001800352d8     opencv_core2411:opencv_core2411.dll
 0002:000002e0       __imp_?create@_OutputArray@cv@@UEBAXHHHH_NH@Z 00000001800352e0     opencv_core2411:opencv_core2411.dll
 0002:000002e8       __imp_?copyTo@Mat@cv@@QEBAXAEBV_OutputArray@2@@Z 00000001800352e8     opencv_core2411:opencv_core2411.dll
 0002:000002f0       __imp_?zeros@Mat@cv@@SA?AVMatExpr@2@HHH@Z 00000001800352f0     opencv_core2411:opencv_core2411.dll
 0002:000002f8       __imp_?countNonZero@cv@@YAHAEBV_InputArray@1@@Z 00000001800352f8     opencv_core2411:opencv_core2411.dll
 0002:00000300       __imp_?create@_OutputArray@cv@@UEBAXHPEBHHH_NH@Z 0000000180035300     opencv_core2411:opencv_core2411.dll
 0002:00000308       __imp_?getMatRef@_OutputArray@cv@@UEBAAEAVMat@2@H@Z 0000000180035308     opencv_core2411:opencv_core2411.dll
 0002:00000310       __imp_?needed@_OutputArray@cv@@UEBA_NXZ 0000000180035310     opencv_core2411:opencv_core2411.dll
 0002:00000318       __imp_?fixedType@_OutputArray@cv@@UEBA_NXZ 0000000180035318     opencv_core2411:opencv_core2411.dll
 0002:00000320       __imp_?fixedSize@_OutputArray@cv@@UEBA_NXZ 0000000180035320     opencv_core2411:opencv_core2411.dll
 0002:00000328       __imp_??0_OutputArray@cv@@QEAA@AEAVMat@1@@Z 0000000180035328     opencv_core2411:opencv_core2411.dll
 0002:00000330       __imp_??Ocv@@YA?AVMatExpr@0@AEBVMat@0@N@Z 0000000180035330     opencv_core2411:opencv_core2411.dll
 0002:00000338       __imp_?fastFree@cv@@YAXPEAX@Z 0000000180035338     opencv_core2411:opencv_core2411.dll
 0002:00000340       __imp_?empty@_InputArray@cv@@UEBA_NXZ 0000000180035340     opencv_core2411:opencv_core2411.dll
 0002:00000348       __imp_?channels@_InputArray@cv@@UEBAHH@Z 0000000180035348     opencv_core2411:opencv_core2411.dll
 0002:00000350       __imp_?depth@_InputArray@cv@@UEBAHH@Z 0000000180035350     opencv_core2411:opencv_core2411.dll
 0002:00000358       __imp_?type@_InputArray@cv@@UEBAHH@Z 0000000180035358     opencv_core2411:opencv_core2411.dll
 0002:00000360       __imp_?total@_InputArray@cv@@UEBA_KH@Z 0000000180035360     opencv_core2411:opencv_core2411.dll
 0002:00000368       __imp_?size@_InputArray@cv@@UEBA?AV?$Size_@H@2@H@Z 0000000180035368     opencv_core2411:opencv_core2411.dll
 0002:00000370       __imp_?kind@_InputArray@cv@@UEBAHXZ 0000000180035370     opencv_core2411:opencv_core2411.dll
 0002:00000378       __imp_?getGpuMat@_InputArray@cv@@UEBA?AVGpuMat@gpu@2@XZ 0000000180035378     opencv_core2411:opencv_core2411.dll
 0002:00000380       __imp_?getGlTexture@_InputArray@cv@@UEBA?AVGlTexture@2@XZ 0000000180035380     opencv_core2411:opencv_core2411.dll
 0002:00000388       __imp_?getGlBuffer@_InputArray@cv@@UEBA?AVGlBuffer@2@XZ 0000000180035388     opencv_core2411:opencv_core2411.dll
 0002:00000390       __imp_?getMatVector@_InputArray@cv@@UEBAXAEAV?$vector@VMat@cv@@V?$allocator@VMat@cv@@@std@@@std@@@Z 0000000180035390     opencv_core2411:opencv_core2411.dll
 0002:00000398       __imp_?getMat@_InputArray@cv@@UEBA?AVMat@2@H@Z 0000000180035398     opencv_core2411:opencv_core2411.dll
 0002:000003a0       __imp_??0_InputArray@cv@@QEAA@AEBVMat@1@@Z 00000001800353a0     opencv_core2411:opencv_core2411.dll
 0002:000003a8       __imp_??0Mat@cv@@QEAA@AEBV01@AEBV?$Rect_@H@1@@Z 00000001800353a8     opencv_core2411:opencv_core2411.dll
 0002:000003b0       __imp_??0_InputArray@cv@@QEAA@AEBN@Z 00000001800353b0     opencv_core2411:opencv_core2411.dll
 0002:000003b8       __imp_?pow@cv@@YAXAEBV_InputArray@1@NAEBV_OutputArray@1@@Z 00000001800353b8     opencv_core2411:opencv_core2411.dll
 0002:000003c0       __imp_?minMaxLoc@cv@@YAXAEBV_InputArray@1@PEAN1PEAV?$Point_@H@1@20@Z 00000001800353c0     opencv_core2411:opencv_core2411.dll
 0002:000003c8       __imp_??Gcv@@YA?AVMatExpr@0@AEBV?$Scalar_@N@0@AEBV10@@Z 00000001800353c8     opencv_core2411:opencv_core2411.dll
 0002:000003d0       __imp_??Kcv@@YA?AVMatExpr@0@AEBVMat@0@N@Z 00000001800353d0     opencv_core2411:opencv_core2411.dll
 0002:000003d8       __imp_?sum@cv@@YA?AV?$Scalar_@N@1@AEBV_InputArray@1@@Z 00000001800353d8     opencv_core2411:opencv_core2411.dll
 0002:000003e0       __imp_?subtract@cv@@YAXAEBV_InputArray@1@0AEBV_OutputArray@1@0H@Z 00000001800353e0     opencv_core2411:opencv_core2411.dll
 0002:000003e8       __imp_?findNonZero@cv@@YAXAEBV_InputArray@1@AEBV_OutputArray@1@@Z 00000001800353e8     opencv_core2411:opencv_core2411.dll
 0002:000003f0       __imp_??Dcv@@YA?AVMatExpr@0@AEBV10@N@Z 00000001800353f0     opencv_core2411:opencv_core2411.dll
 0002:000003f8       __imp_??Dcv@@YA?AVMatExpr@0@NAEBVMat@0@@Z 00000001800353f8     opencv_core2411:opencv_core2411.dll
 0002:00000400       __imp_??Dcv@@YA?AVMatExpr@0@AEBVMat@0@N@Z 0000000180035400     opencv_core2411:opencv_core2411.dll
 0002:00000408       __imp_??0_OutputArray@cv@@QEAA@AEBVMat@1@@Z 0000000180035408     opencv_core2411:opencv_core2411.dll
 0002:00000410       __imp_??Hcv@@YA?AVMatExpr@0@AEBVMat@0@0@Z 0000000180035410     opencv_core2411:opencv_core2411.dll
 0002:00000418       __imp_??0Mat@cv@@QEAA@AEBV01@AEBVRange@1@1@Z 0000000180035418     opencv_core2411:opencv_core2411.dll
 0002:00000420       __imp_?ones@Mat@cv@@SA?AVMatExpr@2@V?$Size_@H@2@H@Z 0000000180035420     opencv_core2411:opencv_core2411.dll
 0002:00000428       __imp_??0_InputArray@cv@@QEAA@AEBVMatExpr@1@@Z 0000000180035428     opencv_core2411:opencv_core2411.dll
 0002:00000430       __imp_?noArray@cv@@YAAEBV_OutputArray@1@XZ 0000000180035430     opencv_core2411:opencv_core2411.dll
 0002:00000438       __imp_?convertTo@Mat@cv@@QEBAXAEBV_OutputArray@2@HNN@Z 0000000180035438     opencv_core2411:opencv_core2411.dll
 0002:00000440       __imp_?setTo@Mat@cv@@QEAAAEAV12@AEBV_InputArray@2@0@Z 0000000180035440     opencv_core2411:opencv_core2411.dll
 0002:00000448       __imp_?reshape@Mat@cv@@QEBA?AV12@HHPEBH@Z 0000000180035448     opencv_core2411:opencv_core2411.dll
 0002:00000450       __imp_?reshape@Mat@cv@@QEBA?AV12@HH@Z 0000000180035450     opencv_core2411:opencv_core2411.dll
 0002:00000458       __imp_?dot@Mat@cv@@QEBANAEBV_InputArray@2@@Z 0000000180035458     opencv_core2411:opencv_core2411.dll
 0002:00000460       __imp_?push_back@Mat@cv@@QEAAXAEBV12@@Z 0000000180035460     opencv_core2411:opencv_core2411.dll
 0002:00000468       __imp_?seek@MatConstIterator@cv@@QEAAXPEBH_N@Z 0000000180035468     opencv_core2411:opencv_core2411.dll
 0002:00000470       __imp_?seek@MatConstIterator@cv@@QEAAX_J_N@Z 0000000180035470     opencv_core2411:opencv_core2411.dll
 0002:00000478       __imp_?get@Formatter@cv@@SAPEBV12@PEBD@Z 0000000180035478     opencv_core2411:opencv_core2411.dll
 0002:00000480       __imp_?_interlockedExchangeAdd@cv@@YAHPEAHH@Z 0000000180035480     opencv_core2411:opencv_core2411.dll
 0002:00000488       \177opencv_core2411_NULL_THUNK_DATA 0000000180035488     opencv_core2411:opencv_core2411.dll
 0002:00000490       __imp_?imshow@cv@@YAXAEBV?$basic_string@DU?$char_traits@D@std@@V?$allocator@D@2@@std@@AEBV_InputArray@1@@Z 0000000180035490     opencv_highgui2411:opencv_highgui2411.dll
 0002:00000498       __imp_?waitKey@cv@@YAHH@Z  0000000180035498     opencv_highgui2411:opencv_highgui2411.dll
 0002:000004a0       __imp_cvWaitKey            00000001800354a0     opencv_highgui2411:opencv_highgui2411.dll
 0002:000004a8       __imp_?imdecode@cv@@YA?AVMat@1@AEBV_InputArray@1@H@Z 00000001800354a8     opencv_highgui2411:opencv_highgui2411.dll
 0002:000004b0       __imp_?imread@cv@@YA?AVMat@1@AEBV?$basic_string@DU?$char_traits@D@std@@V?$allocator@D@2@@std@@H@Z 00000001800354b0     opencv_highgui2411:opencv_highgui2411.dll
 0002:000004b8       \177opencv_highgui2411_NULL_THUNK_DATA 00000001800354b8     opencv_highgui2411:opencv_highgui2411.dll
 0002:000004c0       __imp_?drawContours@cv@@YAXAEBV_OutputArray@1@AEBV_InputArray@1@HAEBV?$Scalar_@N@1@HH1HV?$Point_@H@1@@Z 00000001800354c0     opencv_imgproc2411:opencv_imgproc2411.dll
 0002:000004c8       __imp_?GaussianBlur@cv@@YAXAEBV_InputArray@1@AEBV_OutputArray@1@V?$Size_@H@1@NNH@Z 00000001800354c8     opencv_imgproc2411:opencv_imgproc2411.dll
 0002:000004d0       __imp_?minAreaRect@cv@@YA?AVRotatedRect@1@AEBV_InputArray@1@@Z 00000001800354d0     opencv_imgproc2411:opencv_imgproc2411.dll
 0002:000004d8       __imp_?getRotationMatrix2D@cv@@YA?AVMat@1@V?$Point_@M@1@NN@Z 00000001800354d8     opencv_imgproc2411:opencv_imgproc2411.dll
 0002:000004e0       __imp_?threshold@cv@@YANAEBV_InputArray@1@AEBV_OutputArray@1@NNH@Z 00000001800354e0     opencv_imgproc2411:opencv_imgproc2411.dll
 0002:000004e8       __imp_?Canny@cv@@YAXAEBV_InputArray@1@AEBV_OutputArray@1@NNH_N@Z 00000001800354e8     opencv_imgproc2411:opencv_imgproc2411.dll
 0002:000004f0       __imp_?resize@cv@@YAXAEBV_InputArray@1@AEBV_OutputArray@1@V?$Size_@H@1@NNH@Z 00000001800354f0     opencv_imgproc2411:opencv_imgproc2411.dll
 0002:000004f8       __imp_?findContours@cv@@YAXAEBV_OutputArray@1@00HHV?$Point_@H@1@@Z 00000001800354f8     opencv_imgproc2411:opencv_imgproc2411.dll
 0002:00000500       __imp_?copyMakeBorder@cv@@YAXAEBV_InputArray@1@AEBV_OutputArray@1@HHHHHAEBV?$Scalar_@N@1@@Z 0000000180035500     opencv_imgproc2411:opencv_imgproc2411.dll
 0002:00000508       __imp_?warpAffine@cv@@YAXAEBV_InputArray@1@AEBV_OutputArray@1@0V?$Size_@H@1@HHAEBV?$Scalar_@N@1@@Z 0000000180035508     opencv_imgproc2411:opencv_imgproc2411.dll
 0002:00000510       \177opencv_imgproc2411_NULL_THUNK_DATA 0000000180035510     opencv_imgproc2411:opencv_imgproc2411.dll
 0002:00000518       __guard_check_icall_fptr   0000000180035518     LIBCMT:guard_support.obj
 0002:00000520       __guard_dispatch_icall_fptr 0000000180035520     LIBCMT:guard_support.obj
 0002:00000528       __xc_a                     0000000180035528     LIBCMT:initializers.obj
 0002:00000578       _register_addon_           0000000180035578     jsmsc.obj
 0002:000005b0       __xc_z                     00000001800355b0     LIBCMT:initializers.obj
 0002:000005b8       __xi_a                     00000001800355b8     LIBCMT:initializers.obj
 0002:000005d0       __acrt_stdio_initializer   00000001800355d0     libucrt:stdio_initializer.obj
 0002:000005d8       __acrt_clock_initializer   00000001800355d8     libucrt:clock_initializer.obj
 0002:000005e0       __acrt_timeset_initializer 00000001800355e0     libucrt:timeset_initializer.obj
 0002:000005e8       __acrt_multibyte_initializer 00000001800355e8     libucrt:multibyte_initializer.obj
 0002:000005f0       __acrt_tran_fma3_initializer 00000001800355f0     libucrt:fma3_initializer.obj
 0002:000005f8       __xi_z                     00000001800355f8     LIBCMT:initializers.obj
 0002:00000600       __xl_a                     0000000180035600     LIBCMT:tlssup.obj
 0002:00000608       __xl_z                     0000000180035608     LIBCMT:tlssup.obj
 0002:00000610       __xp_a                     0000000180035610     LIBCMT:initializers.obj
 0002:00000618       __acrt_locale_terminator   0000000180035618     libucrt:locale_initializer.obj
 0002:00000620       __dcrt_console_output_terminator 0000000180035620     libucrt:console_output_initializer.obj
 0002:00000628       __acrt_stdio_terminator    0000000180035628     libucrt:stdio_initializer.obj
 0002:00000630       __xp_z                     0000000180035630     LIBCMT:initializers.obj
 0002:00000638       __xt_a                     0000000180035638     LIBCMT:initializers.obj
 0002:00000640       __xt_z                     0000000180035640     LIBCMT:initializers.obj
 0002:00000650       __sz_node_exe              0000000180035650     node:node.exe
 0002:000008c0       ??_7exception@std@@6B@     00000001800358c0     libcpmt:cout.obj
 0002:000008d0       ??_C@_0BC@EOODALEL@Unknown?5exception?$AA@ 00000001800358d0     libcpmt:cout.obj
 0002:000008f0       ??_7runtime_error@std@@6B@ 00000001800358f0     libcpmt:cout.obj
 0002:00000908       ??_7bad_cast@std@@6B@      0000000180035908     libcpmt:cout.obj
 0002:00000918       ??_C@_08EPJLHIJG@bad?5cast?$AA@ 0000000180035918     libcpmt:cout.obj
 0002:00000930       ??_7_Facet_base@std@@6B@   0000000180035930     libcpmt:cout.obj
 0002:00000950       ??_7?$ctype@D@std@@6B@     0000000180035950     libcpmt:cout.obj
 0002:000009b0       ??_7error_category@std@@6B@ 00000001800359b0     libcpmt:cout.obj
 0002:000009e8       ??_7_System_error@std@@6B@ 00000001800359e8     libcpmt:cout.obj
 0002:00000a00       ??_7_Iostream_error_category@std@@6B@ 0000000180035a00     libcpmt:cout.obj
 0002:00000a38       ??_7failure@ios_base@std@@6B@ 0000000180035a38     libcpmt:cout.obj
 0002:00000a50       ??_7ios_base@std@@6B@      0000000180035a50     libcpmt:cout.obj
 0002:00000a60       ??_7?$basic_streambuf@DU?$char_traits@D@std@@@std@@6B@ 0000000180035a60     libcpmt:cout.obj
 0002:00000ae0       ??_7?$basic_filebuf@DU?$char_traits@D@std@@@std@@6B@ 0000000180035ae0     libcpmt:cout.obj
 0002:00000b60       ??_7?$basic_ios@DU?$char_traits@D@std@@@std@@6B@ 0000000180035b60     libcpmt:cout.obj
 0002:00000b70       ??_7?$basic_ostream@DU?$char_traits@D@std@@@std@@6B@ 0000000180035b70     libcpmt:cout.obj
 0002:00000b78       ??_8?$basic_ostream@DU?$char_traits@D@std@@@std@@7B@ 0000000180035b78     libcpmt:cout.obj
 0002:00000b88       ??_7?$codecvt@DDU_Mbstatet@@@std@@6B@ 0000000180035b88     libcpmt:cout.obj
 0002:00000ca8       ??_7_Locimp@locale@std@@6B@ 0000000180035ca8     libcpmt:locale0.obj
 0002:00000cc0       ??_C@_01NBENCBCI@?$CK?$AA@ 0000000180035cc0     libcpmt:locale0.obj
 0002:00000cc4       ??_C@_01GFHCPBMG@C?$AA@    0000000180035cc4     libcpmt:locale0.obj
 0002:00000cd0       ??_7bad_alloc@std@@6B@     0000000180035cd0     libcpmt:xthrow.obj
 0002:00000ce0       ??_C@_0P@GHFPNOJB@bad?5allocation?$AA@ 0000000180035ce0     libcpmt:xthrow.obj
 0002:00000cf8       ??_7logic_error@std@@6B@   0000000180035cf8     libcpmt:xthrow.obj
 0002:00000d10       ??_7length_error@std@@6B@  0000000180035d10     libcpmt:xthrow.obj
 0002:00000d28       ??_7out_of_range@std@@6B@  0000000180035d28     libcpmt:xthrow.obj
 0002:00001470       ??_C@_0BN@LKKBCCDB@address?5family?5not?5supported?$AA@ 0000000180036470     libcpmt:syserror.obj
 0002:00001490       ??_C@_0P@LDMLAFHI@address?5in?5use?$AA@ 0000000180036490     libcpmt:syserror.obj
 0002:000014a0       ??_C@_0BG@DHPCNBJB@address?5not?5available?$AA@ 00000001800364a0     libcpmt:syserror.obj
 0002:000014b8       ??_C@_0BC@DFIBIBIL@already?5connected?$AA@ 00000001800364b8     libcpmt:syserror.obj
 0002:000014d0       ??_C@_0BH@CAKOHOMI@argument?5list?5too?5long?$AA@ 00000001800364d0     libcpmt:syserror.obj
 0002:000014e8       ??_C@_0BH@CGIMPKIM@argument?5out?5of?5domain?$AA@ 00000001800364e8     libcpmt:syserror.obj
 0002:00001500       ??_C@_0M@KGHGGJGL@bad?5address?$AA@ 0000000180036500     libcpmt:syserror.obj
 0002:00001510       ??_C@_0BE@MPJPGCEO@bad?5file?5descriptor?$AA@ 0000000180036510     libcpmt:syserror.obj
 0002:00001528       ??_C@_0M@PMMIEFCP@bad?5message?$AA@ 0000000180036528     libcpmt:syserror.obj
 0002:00001538       ??_C@_0M@KPHOFDBE@broken?5pipe?$AA@ 0000000180036538     libcpmt:syserror.obj
 0002:00001548       ??_C@_0BD@MGNDDEGM@connection?5aborted?$AA@ 0000000180036548     libcpmt:syserror.obj
 0002:00001560       ??_C@_0BP@KAIHPOGN@connection?5already?5in?5progress?$AA@ 0000000180036560     libcpmt:syserror.obj
 0002:00001580       ??_C@_0BD@PJLIIJEL@connection?5refused?$AA@ 0000000180036580     libcpmt:syserror.obj
 0002:00001598       ??_C@_0BB@IECNJNOI@connection?5reset?$AA@ 0000000180036598     libcpmt:syserror.obj
 0002:000015b0       ??_C@_0BC@PPHBOELF@cross?5device?5link?$AA@ 00000001800365b0     libcpmt:syserror.obj
 0002:000015c8       ??_C@_0BN@KDMIFEIP@destination?5address?5required?$AA@ 00000001800365c8     libcpmt:syserror.obj
 0002:000015e8       ??_C@_0BI@NGCEHDD@device?5or?5resource?5busy?$AA@ 00000001800365e8     libcpmt:syserror.obj
 0002:00001600       ??_C@_0BE@JIDOCPHM@directory?5not?5empty?$AA@ 0000000180036600     libcpmt:syserror.obj
 0002:00001618       ??_C@_0BI@BNCLIGPB@executable?5format?5error?$AA@ 0000000180036618     libcpmt:syserror.obj
 0002:00001630       ??_C@_0M@MIDIAGJP@file?5exists?$AA@ 0000000180036630     libcpmt:syserror.obj
 0002:00001640       ??_C@_0P@DNAJLBJK@file?5too?5large?$AA@ 0000000180036640     libcpmt:syserror.obj
 0002:00001650       ??_C@_0BC@EJHOMAAK@filename?5too?5long?$AA@ 0000000180036650     libcpmt:syserror.obj
 0002:00001668       ??_C@_0BH@KEFGLDAF@function?5not?5supported?$AA@ 0000000180036668     libcpmt:syserror.obj
 0002:00001680       ??_C@_0BB@DHFDFGDM@host?5unreachable?$AA@ 0000000180036680     libcpmt:syserror.obj
 0002:00001698       ??_C@_0BD@JPHBMONG@identifier?5removed?$AA@ 0000000180036698     libcpmt:syserror.obj
 0002:000016b0       ??_C@_0BG@CDNPAGJK@illegal?5byte?5sequence?$AA@ 00000001800366b0     libcpmt:syserror.obj
 0002:000016c8       ??_C@_0CD@BNPLBMNA@inappropriate?5io?5control?5operati@ 00000001800366c8     libcpmt:syserror.obj
 0002:000016f0       ??_C@_0M@EGEKIIMP@interrupted?$AA@ 00000001800366f0     libcpmt:syserror.obj
 0002:00001700       ??_C@_0BB@FCMFBGOM@invalid?5argument?$AA@ 0000000180036700     libcpmt:syserror.obj
 0002:00001718       ??_C@_0N@OHAFKDEK@invalid?5seek?$AA@ 0000000180036718     libcpmt:syserror.obj
 0002:00001728       ??_C@_08GLNPIFBN@io?5error?$AA@ 0000000180036728     libcpmt:syserror.obj
 0002:00001738       ??_C@_0P@FLLDBIDK@is?5a?5directory?$AA@ 0000000180036738     libcpmt:syserror.obj
 0002:00001748       ??_C@_0N@IFLPBIOP@message?5size?$AA@ 0000000180036748     libcpmt:syserror.obj
 0002:00001758       ??_C@_0N@KIIEAAIO@network?5down?$AA@ 0000000180036758     libcpmt:syserror.obj
 0002:00001768       ??_C@_0O@FNPDBHEE@network?5reset?$AA@ 0000000180036768     libcpmt:syserror.obj
 0002:00001778       ??_C@_0BE@IFNCKGE@network?5unreachable?$AA@ 0000000180036778     libcpmt:syserror.obj
 0002:00001790       ??_C@_0BA@PFFCAOFK@no?5buffer?5space?$AA@ 0000000180036790     libcpmt:syserror.obj
 0002:000017a0       ??_C@_0BB@IEPBLJHK@no?5child?5process?$AA@ 00000001800367a0     libcpmt:syserror.obj
 0002:000017b8       ??_C@_07PLECNNKG@no?5link?$AA@ 00000001800367b8     libcpmt:syserror.obj
 0002:000017c0       ??_C@_0BC@NJECKMKE@no?5lock?5available?$AA@ 00000001800367c0     libcpmt:syserror.obj
 0002:000017d8       ??_C@_0BF@PBGGPKKE@no?5message?5available?$AA@ 00000001800367d8     libcpmt:syserror.obj
 0002:000017f0       ??_C@_0L@EDOLMPAK@no?5message?$AA@ 00000001800367f0     libcpmt:syserror.obj
 0002:00001800       ??_C@_0BD@EAMBFIDF@no?5protocol?5option?$AA@ 0000000180036800     libcpmt:syserror.obj
 0002:00001818       ??_C@_0BD@IJDJKDEA@no?5space?5on?5device?$AA@ 0000000180036818     libcpmt:syserror.obj
 0002:00001830       ??_C@_0BE@MKFDAFMP@no?5stream?5resources?$AA@ 0000000180036830     libcpmt:syserror.obj
 0002:00001848       ??_C@_0BK@IMCPHCBI@no?5such?5device?5or?5address?$AA@ 0000000180036848     libcpmt:syserror.obj
 0002:00001868       ??_C@_0P@FDINDDOK@no?5such?5device?$AA@ 0000000180036868     libcpmt:syserror.obj
 0002:00001878       ??_C@_0BK@NDOCBPGE@no?5such?5file?5or?5directory?$AA@ 0000000180036878     libcpmt:syserror.obj
 0002:00001898       ??_C@_0BA@ENLPPKBN@no?5such?5process?$AA@ 0000000180036898     libcpmt:syserror.obj
 0002:000018a8       ??_C@_0BA@DOCPFFJG@not?5a?5directory?$AA@ 00000001800368a8     libcpmt:syserror.obj
 0002:000018b8       ??_C@_0N@POEIPGGF@not?5a?5socket?$AA@ 00000001800368b8     libcpmt:syserror.obj
 0002:000018c8       ??_C@_0N@LGAPMMPI@not?5a?5stream?$AA@ 00000001800368c8     libcpmt:syserror.obj
 0002:000018d8       ??_C@_0O@GLMIBBEG@not?5connected?$AA@ 00000001800368d8     libcpmt:syserror.obj
 0002:000018e8       ??_C@_0BC@ENOOLCNF@not?5enough?5memory?$AA@ 00000001800368e8     libcpmt:syserror.obj
 0002:00001900       ??_C@_0O@NHEDABJP@not?5supported?$AA@ 0000000180036900     libcpmt:syserror.obj
 0002:00001910       ??_C@_0BD@MOLBPMEA@operation?5canceled?$AA@ 0000000180036910     libcpmt:syserror.obj
 0002:00001928       ??_C@_0BG@KDKHOPCO@operation?5in?5progress?$AA@ 0000000180036928     libcpmt:syserror.obj
 0002:00001940       ??_C@_0BI@OHIEJAAB@operation?5not?5permitted?$AA@ 0000000180036940     libcpmt:syserror.obj
 0002:00001958       ??_C@_0BI@LNEGIFLN@operation?5not?5supported?$AA@ 0000000180036958     libcpmt:syserror.obj
 0002:00001970       ??_C@_0BG@OEMDKMEE@operation?5would?5block?$AA@ 0000000180036970     libcpmt:syserror.obj
 0002:00001988       ??_C@_0L@BLPOFLNJ@owner?5dead?$AA@ 0000000180036988     libcpmt:syserror.obj
 0002:00001998       ??_C@_0BC@CIJDGCDI@permission?5denied?$AA@ 0000000180036998     libcpmt:syserror.obj
 0002:000019b0       ??_C@_0P@FNPOCJBE@protocol?5error?$AA@ 00000001800369b0     libcpmt:syserror.obj
 0002:000019c0       ??_C@_0BH@JPPPLHJB@protocol?5not?5supported?$AA@ 00000001800369c0     libcpmt:syserror.obj
 0002:000019d8       ??_C@_0BG@EICBIHDP@read?5only?5file?5system?$AA@ 00000001800369d8     libcpmt:syserror.obj
 0002:000019f0       ??_C@_0BO@BJBOMOEJ@resource?5deadlock?5would?5occur?$AA@ 00000001800369f0     libcpmt:syserror.obj
 0002:00001a10       ??_C@_0BP@LKNGHENJ@resource?5unavailable?5try?5again?$AA@ 0000000180036a10     libcpmt:syserror.obj
 0002:00001a30       ??_C@_0BE@GOIPJJHG@result?5out?5of?5range?$AA@ 0000000180036a30     libcpmt:syserror.obj
 0002:00001a48       ??_C@_0BG@MPLKFPAE@state?5not?5recoverable?$AA@ 0000000180036a48     libcpmt:syserror.obj
 0002:00001a60       ??_C@_0P@DIIFGFCG@stream?5timeout?$AA@ 0000000180036a60     libcpmt:syserror.obj
 0002:00001a70       ??_C@_0P@IPFDMIFL@text?5file?5busy?$AA@ 0000000180036a70     libcpmt:syserror.obj
 0002:00001a80       ??_C@_09KJPPMAOI@timed?5out?$AA@ 0000000180036a80     libcpmt:syserror.obj
 0002:00001a90       ??_C@_0BO@HACHBEKI@too?5many?5files?5open?5in?5system?$AA@ 0000000180036a90     libcpmt:syserror.obj
 0002:00001ab0       ??_C@_0BE@GHAFMPAH@too?5many?5files?5open?$AA@ 0000000180036ab0     libcpmt:syserror.obj
 0002:00001ac8       ??_C@_0P@HCOMKFCC@too?5many?5links?$AA@ 0000000180036ac8     libcpmt:syserror.obj
 0002:00001ad8       ??_C@_0BO@EFGOJEF@too?5many?5symbolic?5link?5levels?$AA@ 0000000180036ad8     libcpmt:syserror.obj
 0002:00001af8       ??_C@_0BA@KGKGOOJA@value?5too?5large?$AA@ 0000000180036af8     libcpmt:syserror.obj
 0002:00001b08       ??_C@_0BE@MIEJDDNH@wrong?5protocol?5type?$AA@ 0000000180036b08     libcpmt:syserror.obj
 0002:00001b20       ??_C@_0O@BFJCFAAK@unknown?5error?$AA@ 0000000180036b20     libcpmt:syserror.obj
 0002:00001b30       ?_BADOFF@std@@3_JB         0000000180036b30     libcpmt:ios.obj
 0002:00001b68       ??_7?$num_put@DV?$ostreambuf_iterator@DU?$char_traits@D@std@@@std@@@std@@6B@ 0000000180036b68     libcpmt:locale.obj
 0002:00001bc8       ??_7?$numpunct@D@std@@6B@  0000000180036bc8     libcpmt:locale.obj
 0002:00001c08       ??_C@_1BK@MGMFAEKH@?$AAk?$AAe?$AAr?$AAn?$AAe?$AAl?$AA3?$AA2?$AA?4?$AAd?$AAl?$AAl?$AA?$AA@ 0000000180036c08     libcpmt:winapisupp.obj
 0002:00001c28       ??_C@_08KNHFBNJ@FlsAlloc?$AA@ 0000000180036c28     libcpmt:winapisupp.obj
 0002:00001c38       ??_C@_07PEJMOBNF@FlsFree?$AA@ 0000000180036c38     libcpmt:winapisupp.obj
 0002:00001c40       ??_C@_0M@GDNOONDI@FlsGetValue?$AA@ 0000000180036c40     libcpmt:winapisupp.obj
 0002:00001c50       ??_C@_0M@JCPCPOEF@FlsSetValue?$AA@ 0000000180036c50     libcpmt:winapisupp.obj
 0002:00001c60       ??_C@_0BM@HCFOFFN@InitializeCriticalSectionEx?$AA@ 0000000180036c60     libcpmt:winapisupp.obj
 0002:00001c80       ??_C@_0BE@GPLMMCMH@InitOnceExecuteOnce?$AA@ 0000000180036c80     libcpmt:winapisupp.obj
 0002:00001c98       ??_C@_0P@DLHPPCNH@CreateEventExW?$AA@ 0000000180036c98     libcpmt:winapisupp.obj
 0002:00001ca8       ??_C@_0BB@MEFPJLHN@CreateSemaphoreW?$AA@ 0000000180036ca8     libcpmt:winapisupp.obj
 0002:00001cc0       ??_C@_0BD@KIEEOEEH@CreateSemaphoreExW?$AA@ 0000000180036cc0     libcpmt:winapisupp.obj
 0002:00001cd8       ??_C@_0BG@OGFAJCKC@CreateThreadpoolTimer?$AA@ 0000000180036cd8     libcpmt:winapisupp.obj
 0002:00001cf0       ??_C@_0BD@LPLEMMDI@SetThreadpoolTimer?$AA@ 0000000180036cf0     libcpmt:winapisupp.obj
 0002:00001d08       ??_C@_0CA@FMNJENH@WaitForThreadpoolTimerCallbacks?$AA@ 0000000180036d08     libcpmt:winapisupp.obj
 0002:00001d28       ??_C@_0BF@DCFCCNOC@CloseThreadpoolTimer?$AA@ 0000000180036d28     libcpmt:winapisupp.obj
 0002:00001d40       ??_C@_0BF@FLABGKKM@CreateThreadpoolWait?$AA@ 0000000180036d40     libcpmt:winapisupp.obj
 0002:00001d58       ??_C@_0BC@MGCOHNA@SetThreadpoolWait?$AA@ 0000000180036d58     libcpmt:winapisupp.obj
 0002:00001d70       ??_C@_0BE@OCIOMIMP@CloseThreadpoolWait?$AA@ 0000000180036d70     libcpmt:winapisupp.obj
 0002:00001d88       ??_C@_0BJ@LKGHFHBO@FlushProcessWriteBuffers?$AA@ 0000000180036d88     libcpmt:winapisupp.obj
 0002:00001da8       ??_C@_0BP@KALKKPMO@FreeLibraryWhenCallbackReturns?$AA@ 0000000180036da8     libcpmt:winapisupp.obj
 0002:00001dc8       ??_C@_0BK@DFNBACLA@GetCurrentProcessorNumber?$AA@ 0000000180036dc8     libcpmt:winapisupp.obj
 0002:00001de8       ??_C@_0BE@FKKLLFLM@CreateSymbolicLinkW?$AA@ 0000000180036de8     libcpmt:winapisupp.obj
 0002:00001e00       ??_C@_0BE@JOGNEJCI@GetCurrentPackageId?$AA@ 0000000180036e00     libcpmt:winapisupp.obj
 0002:00001e18       ??_C@_0P@CDHHOHKP@GetTickCount64?$AA@ 0000000180036e18     libcpmt:winapisupp.obj
 0002:00001e28       ??_C@_0BN@NEEHBBPO@GetFileInformationByHandleEx?$AA@ 0000000180036e28     libcpmt:winapisupp.obj
 0002:00001e48       ??_C@_0BL@KBBHGKCM@SetFileInformationByHandle?$AA@ 0000000180036e48     libcpmt:winapisupp.obj
 0002:00001e68       ??_C@_0BP@FPNJPEJC@GetSystemTimePreciseAsFileTime?$AA@ 0000000180036e68     libcpmt:winapisupp.obj
 0002:00001e88       ??_C@_0BM@HLJJNPAH@InitializeConditionVariable?$AA@ 0000000180036e88     libcpmt:winapisupp.obj
 0002:00001ea8       ??_C@_0BG@BFNILBLN@WakeConditionVariable?$AA@ 0000000180036ea8     libcpmt:winapisupp.obj
 0002:00001ec0       ??_C@_0BJ@PGPPEPCC@WakeAllConditionVariable?$AA@ 0000000180036ec0     libcpmt:winapisupp.obj
 0002:00001ee0       ??_C@_0BJ@JEBJOJFJ@SleepConditionVariableCS?$AA@ 0000000180036ee0     libcpmt:winapisupp.obj
 0002:00001f00       ??_C@_0BC@MMLHEBPB@InitializeSRWLock?$AA@ 0000000180036f00     libcpmt:winapisupp.obj
 0002:00001f18       ??_C@_0BI@OMNLIJDB@AcquireSRWLockExclusive?$AA@ 0000000180036f18     libcpmt:winapisupp.obj
 0002:00001f30       ??_C@_0BL@OGHFEMNA@TryAcquireSRWLockExclusive?$AA@ 0000000180036f30     libcpmt:winapisupp.obj
 0002:00001f50       ??_C@_0BI@HMIEPCNJ@ReleaseSRWLockExclusive?$AA@ 0000000180036f50     libcpmt:winapisupp.obj
 0002:00001f68       ??_C@_0BK@LGACAGIC@SleepConditionVariableSRW?$AA@ 0000000180036f68     libcpmt:winapisupp.obj
 0002:00001f88       ??_C@_0BF@GGPHFPJA@CreateThreadpoolWork?$AA@ 0000000180036f88     libcpmt:winapisupp.obj
 0002:00001fa0       ??_C@_0BF@NHDAIMMO@SubmitThreadpoolWork?$AA@ 0000000180036fa0     libcpmt:winapisupp.obj
 0002:00001fb8       ??_C@_0BE@NPHIPNPD@CloseThreadpoolWork?$AA@ 0000000180036fb8     libcpmt:winapisupp.obj
 0002:00001fd0       ??_C@_0BA@IHGNDAEB@CompareStringEx?$AA@ 0000000180036fd0     libcpmt:winapisupp.obj
 0002:00001fe0       ??_C@_0BA@ONOKGCMP@GetLocaleInfoEx?$AA@ 0000000180036fe0     libcpmt:winapisupp.obj
 0002:00001ff0       ??_C@_0O@KKBNKAPF@LCMapStringEx?$AA@ 0000000180036ff0     libcpmt:winapisupp.obj
 0002:00002000       ??_C@_11LOCGONAA@?$AA?$AA@ 0000000180037000     libcpmt:wlocale.obj
 0002:00002004       ??_C@_01JOAMLHOP@?9?$AA@   0000000180037004     libcpmt:wlocale.obj
 0002:000020a8       ??_C@_1M@GMDGLDOB@?$AAe?$AAn?$AA?9?$AAp?$AAh?$AA?$AA@ 00000001800370a8     libcpmt:winapinls.obj
 0002:000020b8       ??_C@_1M@ONGIBJNA@?$AAe?$AAn?$AA?9?$AAt?$AAt?$AA?$AA@ 00000001800370b8     libcpmt:winapinls.obj
 0002:000020c8       ??_C@_1M@LLODPCMM@?$AAe?$AAn?$AA?9?$AAu?$AAs?$AA?$AA@ 00000001800370c8     libcpmt:winapinls.obj
 0002:000020d8       ??_C@_1M@LAKFNPAN@?$AAe?$AAn?$AA?9?$AAz?$AAa?$AA?$AA@ 00000001800370d8     libcpmt:winapinls.obj
 0002:000020e8       ??_C@_1M@MFNHNHEO@?$AAe?$AAn?$AA?9?$AAz?$AAw?$AA?$AA@ 00000001800370e8     libcpmt:winapinls.obj
 0002:000020f8       ??_C@_1M@EJEINPHM@?$AAe?$AAs?$AA?9?$AAa?$AAr?$AA?$AA@ 00000001800370f8     libcpmt:winapinls.obj
 0002:00002108       ??_C@_1M@GNKPCCJA@?$AAe?$AAs?$AA?9?$AAb?$AAo?$AA?$AA@ 0000000180037108     libcpmt:winapinls.obj
 0002:00002118       ??_C@_1M@LEEGFONL@?$AAe?$AAs?$AA?9?$AAc?$AAl?$AA?$AA@ 0000000180037118     libcpmt:winapinls.obj
 0002:00002128       ??_C@_1M@KGPDPBDF@?$AAe?$AAs?$AA?9?$AAc?$AAo?$AA?$AA@ 0000000180037128     libcpmt:winapinls.obj
 0002:00002138       ??_C@_1M@EIAHOHH@?$AAe?$AAs?$AA?9?$AAc?$AAr?$AA?$AA@ 0000000180037138     libcpmt:winapinls.obj
 0002:00002148       ??_C@_1M@LLPGMBIN@?$AAe?$AAs?$AA?9?$AAd?$AAo?$AA?$AA@ 0000000180037148     libcpmt:winapinls.obj
 0002:00002158       ??_C@_1M@DKHMKNJA@?$AAe?$AAs?$AA?9?$AAe?$AAc?$AA?$AA@ 0000000180037158     libcpmt:winapinls.obj
 0002:00002168       ??_C@_1M@GKGFPKAP@?$AAe?$AAs?$AA?9?$AAe?$AAs?$AA?$AA@ 0000000180037168     libcpmt:winapinls.obj
 0002:00002178       ??_C@_1M@LKHKGDLN@?$AAe?$AAs?$AA?9?$AAg?$AAt?$AA?$AA@ 0000000180037178     libcpmt:winapinls.obj
 0002:00002188       ??_C@_1M@HEIIGGJD@?$AAe?$AAs?$AA?9?$AAh?$AAn?$AA?$AA@ 0000000180037188     libcpmt:winapinls.obj
 0002:00002198       ??_C@_1M@FBDHPPGD@?$AAe?$AAs?$AA?9?$AAm?$AAx?$AA?$AA@ 0000000180037198     libcpmt:winapinls.obj
 0002:000021a8       ??_C@_1M@DPAGLNDH@?$AAe?$AAs?$AA?9?$AAn?$AAi?$AA?$AA@ 00000001800371a8     libcpmt:winapinls.obj
 0002:000021b8       ??_C@_1M@MDGOPGDD@?$AAe?$AAs?$AA?9?$AAp?$AAa?$AA?$AA@ 00000001800371b8     libcpmt:winapinls.obj
 0002:000021c8       ??_C@_1M@EMAMGBGE@?$AAe?$AAs?$AA?9?$AAp?$AAe?$AA?$AA@ 00000001800371c8     libcpmt:winapinls.obj
 0002:000021d8       ??_C@_1M@IBMCAOEC@?$AAe?$AAs?$AA?9?$AAp?$AAr?$AA?$AA@ 00000001800371d8     libcpmt:winapinls.obj
 0002:000021e8       ??_C@_1M@FGMDIJED@?$AAe?$AAs?$AA?9?$AAp?$AAy?$AA?$AA@ 00000001800371e8     libcpmt:winapinls.obj
 0002:000021f8       ??_C@_1M@IIDEOLLL@?$AAe?$AAs?$AA?9?$AAs?$AAv?$AA?$AA@ 00000001800371f8     libcpmt:winapinls.obj
 0002:00002208       ??_C@_1M@GAOBIPA@?$AAe?$AAs?$AA?9?$AAu?$AAy?$AA?$AA@ 0000000180037208     libcpmt:winapinls.obj
 0002:00002218       ??_C@_1M@JKFFICHJ@?$AAe?$AAs?$AA?9?$AAv?$AAe?$AA?$AA@ 0000000180037218     libcpmt:winapinls.obj
 0002:00002228       ??_C@_1M@PNMLOJDF@?$AAe?$AAt?$AA?9?$AAe?$AAe?$AA?$AA@ 0000000180037228     libcpmt:winapinls.obj
 0002:00002238       ??_C@_1M@GHHLIKEI@?$AAe?$AAu?$AA?9?$AAe?$AAs?$AA?$AA@ 0000000180037238     libcpmt:winapinls.obj
 0002:00002248       ??_C@_1M@PBNONODE@?$AAf?$AAa?$AA?9?$AAi?$AAr?$AA?$AA@ 0000000180037248     libcpmt:winapinls.obj
 0002:00002258       ??_C@_1M@JEEHPMIL@?$AAf?$AAi?$AA?9?$AAf?$AAi?$AA?$AA@ 0000000180037258     libcpmt:winapinls.obj
 0002:00002268       ??_C@_1M@LMDCNDBA@?$AAf?$AAo?$AA?9?$AAf?$AAo?$AA?$AA@ 0000000180037268     libcpmt:winapinls.obj
 0002:00002278       ??_C@_1M@JKEOHLDK@?$AAf?$AAr?$AA?9?$AAb?$AAe?$AA?$AA@ 0000000180037278     libcpmt:winapinls.obj
 0002:00002288       ??_C@_1M@NOHADPMI@?$AAf?$AAr?$AA?9?$AAc?$AAa?$AA?$AA@ 0000000180037288     libcpmt:winapinls.obj
 0002:00002298       ??_C@_1M@KDHIHAEC@?$AAf?$AAr?$AA?9?$AAc?$AAh?$AA?$AA@ 0000000180037298     libcpmt:winapinls.obj
 0002:000022a8       ??_C@_1M@MMBBFGAK@?$AAf?$AAr?$AA?9?$AAf?$AAr?$AA?$AA@ 00000001800372a8     libcpmt:winapinls.obj
 0002:000022b8       ??_C@_1M@PAFNENNF@?$AAf?$AAr?$AA?9?$AAl?$AAu?$AA?$AA@ 00000001800372b8     libcpmt:winapinls.obj
 0002:000022c8       ??_C@_1M@EOHDJGDD@?$AAf?$AAr?$AA?9?$AAm?$AAc?$AA?$AA@ 00000001800372c8     libcpmt:winapinls.obj
 0002:000022d8       ??_C@_1M@FAPLLOPF@?$AAg?$AAl?$AA?9?$AAe?$AAs?$AA?$AA@ 00000001800372d8     libcpmt:winapinls.obj
 0002:000022e8       ??_C@_1M@FOPBFLOO@?$AAg?$AAu?$AA?9?$AAi?$AAn?$AA?$AA@ 00000001800372e8     libcpmt:winapinls.obj
 0002:000022f8       ??_C@_1M@KBMCINPM@?$AAh?$AAe?$AA?9?$AAi?$AAl?$AA?$AA@ 00000001800372f8     libcpmt:winapinls.obj
 0002:00002308       ??_C@_1M@BBPHKFPJ@?$AAh?$AAi?$AA?9?$AAi?$AAn?$AA?$AA@ 0000000180037308     libcpmt:winapinls.obj
 0002:00002318       ??_C@_1M@PMBNDPHD@?$AAh?$AAr?$AA?9?$AAb?$AAa?$AA?$AA@ 0000000180037318     libcpmt:winapinls.obj
 0002:00002328       ??_C@_1M@BPCKOEGE@?$AAh?$AAr?$AA?9?$AAh?$AAr?$AA?$AA@ 0000000180037328     libcpmt:winapinls.obj
 0002:00002338       ??_C@_1M@GACBMHKE@?$AAh?$AAu?$AA?9?$AAh?$AAu?$AA?$AA@ 0000000180037338     libcpmt:winapinls.obj
 0002:00002348       ??_C@_1M@MILPAJJC@?$AAh?$AAy?$AA?9?$AAa?$AAm?$AA?$AA@ 0000000180037348     libcpmt:winapinls.obj
 0002:00002358       ??_C@_1M@BABBICEC@?$AAi?$AAd?$AA?9?$AAi?$AAd?$AA?$AA@ 0000000180037358     libcpmt:winapinls.obj
 0002:00002368       ??_C@_1M@BIKNHHPF@?$AAi?$AAs?$AA?9?$AAi?$AAs?$AA?$AA@ 0000000180037368     libcpmt:winapinls.obj
 0002:00002378       ??_C@_1M@NMPCJPHE@?$AAi?$AAt?$AA?9?$AAc?$AAh?$AA?$AA@ 0000000180037378     libcpmt:winapinls.obj
 0002:00002388       ??_C@_1M@GHKGFEDF@?$AAi?$AAt?$AA?9?$AAi?$AAt?$AA?$AA@ 0000000180037388     libcpmt:winapinls.obj
 0002:00002398       ??_C@_1M@NIEJCJJA@?$AAj?$AAa?$AA?9?$AAj?$AAp?$AA?$AA@ 0000000180037398     libcpmt:winapinls.obj
 0002:000023a8       ??_C@_1M@JILFNBIM@?$AAk?$AAa?$AA?9?$AAg?$AAe?$AA?$AA@ 00000001800373a8     libcpmt:winapinls.obj
 0002:000023b8       ??_C@_1M@PACPMGPH@?$AAk?$AAk?$AA?9?$AAk?$AAz?$AA?$AA@ 00000001800373b8     libcpmt:winapinls.obj
 0002:000023c8       ??_C@_1M@IELFGMHA@?$AAk?$AAn?$AA?9?$AAi?$AAn?$AA?$AA@ 00000001800373c8     libcpmt:winapinls.obj
 0002:000023d8       ??_C@_1M@DMHAEOGC@?$AAk?$AAo?$AA?9?$AAk?$AAr?$AA?$AA@ 00000001800373d8     libcpmt:winapinls.obj
 0002:000023e8       ??_C@_1O@IBBJHCH@?$AAk?$AAo?$AAk?$AA?9?$AAi?$AAn?$AA?$AA@ 00000001800373e8     libcpmt:winapinls.obj
 0002:000023f8       ??_C@_1M@HBAHBIGA@?$AAk?$AAy?$AA?9?$AAk?$AAg?$AA?$AA@ 00000001800373f8     libcpmt:winapinls.obj
 0002:00002408       ??_C@_1M@KPMILCJG@?$AAl?$AAt?$AA?9?$AAl?$AAt?$AA?$AA@ 0000000180037408     libcpmt:winapinls.obj
 0002:00002418       ??_C@_1M@BDEKKCA@?$AAl?$AAv?$AA?9?$AAl?$AAv?$AA?$AA@ 0000000180037418     libcpmt:winapinls.obj
 0002:00002428       ??_C@_1M@ELCKCCJJ@?$AAm?$AAi?$AA?9?$AAn?$AAz?$AA?$AA@ 0000000180037428     libcpmt:winapinls.obj
 0002:00002438       ??_C@_1M@CBOOLAPA@?$AAm?$AAk?$AA?9?$AAm?$AAk?$AA?$AA@ 0000000180037438     libcpmt:winapinls.obj
 0002:00002448       ??_C@_1M@GPHNBJKN@?$AAm?$AAl?$AA?9?$AAi?$AAn?$AA?$AA@ 0000000180037448     libcpmt:winapinls.obj
 0002:00002458       ??_C@_1M@PABJILIG@?$AAm?$AAn?$AA?9?$AAm?$AAn?$AA?$AA@ 0000000180037458     libcpmt:winapinls.obj
 0002:00002468       ??_C@_1M@FGBKKIPG@?$AAm?$AAr?$AA?9?$AAi?$AAn?$AA?$AA@ 0000000180037468     libcpmt:winapinls.obj
 0002:00002478       ??_C@_1M@NDBPDDAL@?$AAm?$AAs?$AA?9?$AAb?$AAn?$AA?$AA@ 0000000180037478     libcpmt:winapinls.obj
 0002:00002488       ??_C@_1M@OPIHOOPI@?$AAm?$AAs?$AA?9?$AAm?$AAy?$AA?$AA@ 0000000180037488     libcpmt:winapinls.obj
 0002:00002498       ??_C@_1M@PPDBCNFM@?$AAm?$AAt?$AA?9?$AAm?$AAt?$AA?$AA@ 0000000180037498     libcpmt:winapinls.obj
 0002:000024a8       ??_C@_1M@KDJDKMDD@?$AAn?$AAb?$AA?9?$AAn?$AAo?$AA?$AA@ 00000001800374a8     libcpmt:winapinls.obj
 0002:000024b8       ??_C@_1M@KFCFLMJP@?$AAn?$AAl?$AA?9?$AAb?$AAe?$AA?$AA@ 00000001800374b8     libcpmt:winapinls.obj
 0002:000024c8       ??_C@_1M@KPOPDDGO@?$AAn?$AAl?$AA?9?$AAn?$AAl?$AA?$AA@ 00000001800374c8     libcpmt:winapinls.obj
 0002:000024d8       ??_C@_1M@LJKPEMLN@?$AAn?$AAn?$AA?9?$AAn?$AAo?$AA?$AA@ 00000001800374d8     libcpmt:winapinls.obj
 0002:000024e8       ??_C@_1M@BDGHHBFL@?$AAn?$AAs?$AA?9?$AAz?$AAa?$AA?$AA@ 00000001800374e8     libcpmt:winapinls.obj
 0002:000024f8       ??_C@_1M@IDEHOAP@?$AAp?$AAa?$AA?9?$AAi?$AAn?$AA?$AA@ 00000001800374f8     libcpmt:winapinls.obj
 0002:00002508       ??_C@_1M@HDBKGOGH@?$AAp?$AAl?$AA?9?$AAp?$AAl?$AA?$AA@ 0000000180037508     libcpmt:winapinls.obj
 0002:00002518       ??_C@_1M@LJLLCMEH@?$AAp?$AAt?$AA?9?$AAb?$AAr?$AA?$AA@ 0000000180037518     libcpmt:winapinls.obj
 0002:00002528       ??_C@_1M@NCMONAAL@?$AAp?$AAt?$AA?9?$AAp?$AAt?$AA?$AA@ 0000000180037528     libcpmt:winapinls.obj
 0002:00002538       ??_C@_1O@EAKMAJDN@?$AAq?$AAu?$AAz?$AA?9?$AAb?$AAo?$AA?$AA@ 0000000180037538     libcpmt:winapinls.obj
 0002:00002548       ??_C@_1O@BHHPIGDN@?$AAq?$AAu?$AAz?$AA?9?$AAe?$AAc?$AA?$AA@ 0000000180037548     libcpmt:winapinls.obj
 0002:00002558       ??_C@_1O@GBAPEKMJ@?$AAq?$AAu?$AAz?$AA?9?$AAp?$AAe?$AA?$AA@ 0000000180037558     libcpmt:winapinls.obj
 0002:00002568       ??_C@_1M@CLGLEFBO@?$AAr?$AAo?$AA?9?$AAr?$AAo?$AA?$AA@ 0000000180037568     libcpmt:winapinls.obj
 0002:00002578       ??_C@_1M@CEEDODME@?$AAr?$AAu?$AA?9?$AAr?$AAu?$AA?$AA@ 0000000180037578     libcpmt:winapinls.obj
 0002:00002588       ??_C@_1M@HPKKKMPP@?$AAs?$AAa?$AA?9?$AAi?$AAn?$AA?$AA@ 0000000180037588     libcpmt:winapinls.obj
 0002:00002598       ??_C@_1M@BKMAIGOJ@?$AAs?$AAe?$AA?9?$AAf?$AAi?$AA?$AA@ 0000000180037598     libcpmt:winapinls.obj
 0002:000025a8       ??_C@_1M@NDPIFLFI@?$AAs?$AAe?$AA?9?$AAn?$AAo?$AA?$AA@ 00000001800375a8     libcpmt:winapinls.obj
 0002:000025b8       ??_C@_1M@DANKKHJ@?$AAs?$AAe?$AA?9?$AAs?$AAe?$AA?$AA@ 00000001800375b8     libcpmt:winapinls.obj
 0002:000025c8       ??_C@_1M@PNBLONPJ@?$AAs?$AAk?$AA?9?$AAs?$AAk?$AA?$AA@ 00000001800375c8     libcpmt:winapinls.obj
 0002:000025d8       ??_C@_1M@LFMODOAL@?$AAs?$AAl?$AA?9?$AAs?$AAi?$AA?$AA@ 00000001800375d8     libcpmt:winapinls.obj
 0002:000025e8       ??_C@_1O@DFKOMPG@?$AAs?$AAm?$AAa?$AA?9?$AAn?$AAo?$AA?$AA@ 00000001800375e8     libcpmt:winapinls.obj
 0002:000025f8       ??_C@_1O@NDKPBNNH@?$AAs?$AAm?$AAa?$AA?9?$AAs?$AAe?$AA?$AA@ 00000001800375f8     libcpmt:winapinls.obj
 0002:00002608       ??_C@_1O@PLLKBHAB@?$AAs?$AAm?$AAj?$AA?9?$AAn?$AAo?$AA?$AA@ 0000000180037608     libcpmt:winapinls.obj
 0002:00002618       ??_C@_1O@CLEPOGCA@?$AAs?$AAm?$AAj?$AA?9?$AAs?$AAe?$AA?$AA@ 0000000180037618     libcpmt:winapinls.obj
 0002:00002628       ??_C@_1O@DLGJGKMK@?$AAs?$AAm?$AAn?$AA?9?$AAf?$AAi?$AA?$AA@ 0000000180037628     libcpmt:winapinls.obj
 0002:00002638       ??_C@_1O@OJDJGAJC@?$AAs?$AAm?$AAs?$AA?9?$AAf?$AAi?$AA?$AA@ 0000000180037638     libcpmt:winapinls.obj
 0002:00002648       ??_C@_1M@BOFOGHPB@?$AAs?$AAq?$AA?9?$AAa?$AAl?$AA?$AA@ 0000000180037648     libcpmt:winapinls.obj
 0002:00002658       ??_C@_1BG@LJBBIPGB@?$AAs?$AAr?$AA?9?$AAb?$AAa?$AA?9?$AAc?$AAy?$AAr?$AAl?$AA?$AA@ 0000000180037658     libcpmt:winapinls.obj
 0002:00002670       ??_C@_1BG@JLBENFOE@?$AAs?$AAr?$AA?9?$AAb?$AAa?$AA?9?$AAl?$AAa?$AAt?$AAn?$AA?$AA@ 0000000180037670     libcpmt:winapinls.obj
 0002:00002688       ??_C@_1BG@KODPNHE@?$AAs?$AAr?$AA?9?$AAs?$AAp?$AA?9?$AAc?$AAy?$AAr?$AAl?$AA?$AA@ 0000000180037688     libcpmt:winapinls.obj
 0002:000026a0       ??_C@_1BG@CIOGKHPB@?$AAs?$AAr?$AA?9?$AAs?$AAp?$AA?9?$AAl?$AAa?$AAt?$AAn?$AA?$AA@ 00000001800376a0     libcpmt:winapinls.obj
 0002:000026b8       ??_C@_1M@NGFJLMAC@?$AAs?$AAv?$AA?9?$AAf?$AAi?$AA?$AA@ 00000001800376b8     libcpmt:winapinls.obj
 0002:000026c8       ??_C@_1M@MPJEJAJC@?$AAs?$AAv?$AA?9?$AAs?$AAe?$AA?$AA@ 00000001800376c8     libcpmt:winapinls.obj
 0002:000026d8       ??_C@_1M@MPNDHLFK@?$AAs?$AAw?$AA?9?$AAk?$AAe?$AA?$AA@ 00000001800376d8     libcpmt:winapinls.obj
 0002:000026e8       ??_C@_1O@KOHBJJI@?$AAs?$AAy?$AAr?$AA?9?$AAs?$AAy?$AA?$AA@ 00000001800376e8     libcpmt:winapinls.obj
 0002:000026f8       ??_C@_1M@LDCEFHA@?$AAt?$AAa?$AA?9?$AAi?$AAn?$AA?$AA@ 00000001800376f8     libcpmt:winapinls.obj
 0002:00002708       ??_C@_1M@CNJOFAK@?$AAt?$AAe?$AA?9?$AAi?$AAn?$AA?$AA@ 0000000180037708     libcpmt:winapinls.obj
 0002:00002718       ??_C@_1M@GNAECACD@?$AAt?$AAh?$AA?9?$AAt?$AAh?$AA?$AA@ 0000000180037718     libcpmt:winapinls.obj
 0002:00002728       ??_C@_1M@CHBIHOJO@?$AAt?$AAn?$AA?9?$AAz?$AAa?$AA?$AA@ 0000000180037728     libcpmt:winapinls.obj
 0002:00002738       ??_C@_1M@GCCMIGPJ@?$AAt?$AAr?$AA?9?$AAt?$AAr?$AA?$AA@ 0000000180037738     libcpmt:winapinls.obj
 0002:00002748       ??_C@_1M@CELMCNBK@?$AAt?$AAt?$AA?9?$AAr?$AAu?$AA?$AA@ 0000000180037748     libcpmt:winapinls.obj
 0002:00002758       ??_C@_1M@KLMCELGA@?$AAu?$AAk?$AA?9?$AAu?$AAa?$AA?$AA@ 0000000180037758     libcpmt:winapinls.obj
 0002:00002768       ??_C@_1M@EPAJJAJF@?$AAu?$AAr?$AA?9?$AAp?$AAk?$AA?$AA@ 0000000180037768     libcpmt:winapinls.obj
 0002:00002778       ??_C@_1BG@GEGPMCDJ@?$AAu?$AAz?$AA?9?$AAu?$AAz?$AA?9?$AAc?$AAy?$AAr?$AAl?$AA?$AA@ 0000000180037778     libcpmt:winapinls.obj
 0002:00002790       ??_C@_1BG@EGGKJILM@?$AAu?$AAz?$AA?9?$AAu?$AAz?$AA?9?$AAl?$AAa?$AAt?$AAn?$AA?$AA@ 0000000180037790     libcpmt:winapinls.obj
 0002:000027a8       ??_C@_1M@GFOCLFF@?$AAv?$AAi?$AA?9?$AAv?$AAn?$AA?$AA@ 00000001800377a8     libcpmt:winapinls.obj
 0002:000027b8       ??_C@_1M@CPAMEDFI@?$AAx?$AAh?$AA?9?$AAz?$AAa?$AA?$AA@ 00000001800377b8     libcpmt:winapinls.obj
 0002:000027c8       ??_C@_1O@EBKIFIGN@?$AAz?$AAh?$AA?9?$AAc?$AAh?$AAs?$AA?$AA@ 00000001800377c8     libcpmt:winapinls.obj
 0002:000027d8       ??_C@_1O@NMHPGANE@?$AAz?$AAh?$AA?9?$AAc?$AAh?$AAt?$AA?$AA@ 00000001800377d8     libcpmt:winapinls.obj
 0002:000027e8       ??_C@_1M@LPINJOMC@?$AAz?$AAh?$AA?9?$AAc?$AAn?$AA?$AA@ 00000001800377e8     libcpmt:winapinls.obj
 0002:000027f8       ??_C@_1M@OCJEJODD@?$AAz?$AAh?$AA?9?$AAh?$AAk?$AA?$AA@ 00000001800377f8     libcpmt:winapinls.obj
 0002:00002808       ??_C@_1M@DNDLJINH@?$AAz?$AAh?$AA?9?$AAm?$AAo?$AA?$AA@ 0000000180037808     libcpmt:winapinls.obj
 0002:00002818       ??_C@_1M@MBFDNDND@?$AAz?$AAh?$AA?9?$AAs?$AAg?$AA?$AA@ 0000000180037818     libcpmt:winapinls.obj
 0002:00002828       ??_C@_1M@IMEPLEPE@?$AAz?$AAh?$AA?9?$AAt?$AAw?$AA?$AA@ 0000000180037828     libcpmt:winapinls.obj
 0002:00002838       ??_C@_1M@BBGHNHJP@?$AAz?$AAu?$AA?9?$AAz?$AAa?$AA?$AA@ 0000000180037838     libcpmt:winapinls.obj
 0002:000044d0       ??_C@_15EMKDOKLE@?$AAa?$AAr?$AA?$AA@ 00000001800394d0     libcpmt:winapinls.obj
 0002:000044d8       ??_C@_15KNPADPLH@?$AAb?$AAg?$AA?$AA@ 00000001800394d8     libcpmt:winapinls.obj
 0002:000044e0       ??_C@_15EDMHLDMO@?$AAc?$AAa?$AA?$AA@ 00000001800394e0     libcpmt:winapinls.obj
 0002:000044e8       ??_C@_1O@BPEAJADD@?$AAz?$AAh?$AA?9?$AAC?$AAH?$AAS?$AA?$AA@ 00000001800394e8     libcpmt:winapinls.obj
 0002:000044f8       ??_C@_15LJNHCMNK@?$AAc?$AAs?$AA?$AA@ 00000001800394f8     libcpmt:winapinls.obj
 0002:00004500       ??_C@_15FOMCIDHG@?$AAd?$AAa?$AA?$AA@ 0000000180039500     libcpmt:winapinls.obj
 0002:00004508       ??_C@_15NBKABECB@?$AAd?$AAe?$AA?$AA@ 0000000180039508     libcpmt:winapinls.obj
 0002:00004510       ??_C@_15GHPEIIAO@?$AAe?$AAl?$AA?$AA@ 0000000180039510     libcpmt:winapinls.obj
 0002:00004518       ??_C@_15MNPNEAIF@?$AAe?$AAn?$AA?$AA@ 0000000180039518     libcpmt:winapinls.obj
 0002:00004520       ??_C@_15GPIOMPMH@?$AAe?$AAs?$AA?$AA@ 0000000180039520     libcpmt:winapinls.obj
 0002:00004528       ??_C@_15NGLOAKJC@?$AAf?$AAi?$AA?$AA@ 0000000180039528     libcpmt:winapinls.obj
 0002:00004530       ??_C@_15FBKGNKAM@?$AAf?$AAr?$AA?$AA@ 0000000180039530     libcpmt:winapinls.obj
 0002:00004538       ??_C@_15KGGCNEFK@?$AAh?$AAe?$AA?$AA@ 0000000180039538     libcpmt:winapinls.obj
 0002:00004540       ??_C@_15PGHLIDMF@?$AAh?$AAu?$AA?$AA@ 0000000180039540     libcpmt:winapinls.obj
 0002:00004548       ??_C@_15BIEMAPLM@?$AAi?$AAs?$AA?$AA@ 0000000180039548     libcpmt:winapinls.obj
 0002:00004550       ??_C@_15IFJLDHAF@?$AAi?$AAt?$AA?$AA@ 0000000180039550     libcpmt:winapinls.obj
 0002:00004558       ??_C@_15GEMIOCAG@?$AAj?$AAa?$AA?$AA@ 0000000180039558     libcpmt:winapinls.obj
 0002:00004560       ??_C@_15EPELEGJA@?$AAk?$AAo?$AA?$AA@ 0000000180039560     libcpmt:winapinls.obj
 0002:00004568       ??_C@_15NDDHIMN@?$AAn?$AAl?$AA?$AA@ 0000000180039568     libcpmt:winapinls.obj
 0002:00004570       ??_C@_15BPIGNHCD@?$AAn?$AAo?$AA?$AA@ 0000000180039570     libcpmt:winapinls.obj
 0002:00004578       ??_C@_15DEOPBLCG@?$AAp?$AAl?$AA?$AA@ 0000000180039578     libcpmt:winapinls.obj
 0002:00004580       ??_C@_15KBECGEFG@?$AAp?$AAt?$AA?$AA@ 0000000180039580     libcpmt:winapinls.obj
 0002:00004588       ??_C@_15GLJCBFMD@?$AAr?$AAo?$AA?$AA@ 0000000180039588     libcpmt:winapinls.obj
 0002:00004590       ??_C@_15FEDGKCDI@?$AAr?$AAu?$AA?$AA@ 0000000180039590     libcpmt:winapinls.obj
 0002:00004598       ??_C@_15GLKMLLHM@?$AAh?$AAr?$AA?$AA@ 0000000180039598     libcpmt:winapinls.obj
 0002:000045a0       ??_C@_15CPKMFBDB@?$AAs?$AAk?$AA?$AA@ 00000001800395a0     libcpmt:winapinls.obj
 0002:000045a8       ??_C@_15BAAIOGMK@?$AAs?$AAq?$AA?$AA@ 00000001800395a8     libcpmt:winapinls.obj
 0002:000045b0       ??_C@_15INNPNOHD@?$AAs?$AAv?$AA?$AA@ 00000001800395b0     libcpmt:winapinls.obj
 0002:000045b8       ??_C@_15CABMMOGH@?$AAt?$AAh?$AA?$AA@ 00000001800395b8     libcpmt:winapinls.obj
 0002:000045c0       ??_C@_15BPLIHJJM@?$AAt?$AAr?$AA?$AA@ 00000001800395c0     libcpmt:winapinls.obj
 0002:000045c8       ??_C@_15NEOEKKDJ@?$AAu?$AAr?$AA?$AA@ 00000001800395c8     libcpmt:winapinls.obj
 0002:000045d0       ??_C@_15NFICGAJK@?$AAi?$AAd?$AA?$AA@ 00000001800395d0     libcpmt:winapinls.obj
 0002:000045d8       ??_C@_15PJPFLCCM@?$AAu?$AAk?$AA?$AA@ 00000001800395d8     libcpmt:winapinls.obj
 0002:000045e0       ??_C@_15HPJPHDM@?$AAb?$AAe?$AA?$AA@ 00000001800395e0     libcpmt:winapinls.obj
 0002:000045e8       ??_C@_15LCHLGJII@?$AAs?$AAl?$AA?$AA@ 00000001800395e8     libcpmt:winapinls.obj
 0002:000045f0       ??_C@_15PCFJPHHO@?$AAe?$AAt?$AA?$AA@ 00000001800395f0     libcpmt:winapinls.obj
 0002:000045f8       ??_C@_15HPFPGODN@?$AAl?$AAv?$AA?$AA@ 00000001800395f8     libcpmt:winapinls.obj
 0002:00004600       ??_C@_15NFFGKGLG@?$AAl?$AAt?$AA?$AA@ 0000000180039600     libcpmt:winapinls.obj
 0002:00004608       ??_C@_15BDAKCCHN@?$AAf?$AAa?$AA?$AA@ 0000000180039608     libcpmt:winapinls.obj
 0002:00004610       ??_C@_15NFGIAIAJ@?$AAv?$AAi?$AA?$AA@ 0000000180039610     libcpmt:winapinls.obj
 0002:00004618       ??_C@_15LMKNDMHN@?$AAh?$AAy?$AA?$AA@ 0000000180039618     libcpmt:winapinls.obj
 0002:00004620       ??_C@_15IJBHMCFL@?$AAa?$AAz?$AA?$AA@ 0000000180039620     libcpmt:winapinls.obj
 0002:00004628       ??_C@_15EKOFJABL@?$AAe?$AAu?$AA?$AA@ 0000000180039628     libcpmt:winapinls.obj
 0002:00004630       ??_C@_15BGHADCNK@?$AAm?$AAk?$AA?$AA@ 0000000180039630     libcpmt:winapinls.obj
 0002:00004638       ??_C@_15JDNICKHM@?$AAa?$AAf?$AA?$AA@ 0000000180039638     libcpmt:winapinls.obj
 0002:00004640       ??_C@_15KPJEDBKD@?$AAk?$AAa?$AA?$AA@ 0000000180039640     libcpmt:winapinls.obj
 0002:00004648       ??_C@_15PDNFFFEO@?$AAf?$AAo?$AA?$AA@ 0000000180039648     libcpmt:winapinls.obj
 0002:00004650       ??_C@_15OMLEGLOC@?$AAh?$AAi?$AA?$AA@ 0000000180039650     libcpmt:winapinls.obj
 0002:00004658       ??_C@_15IDNNENKK@?$AAm?$AAs?$AA?$AA@ 0000000180039658     libcpmt:winapinls.obj
 0002:00004660       ??_C@_15MACJNBMH@?$AAk?$AAk?$AA?$AA@ 0000000180039660     libcpmt:winapinls.obj
 0002:00004668       ??_C@_15DKDJEOND@?$AAk?$AAy?$AA?$AA@ 0000000180039668     libcpmt:winapinls.obj
 0002:00004670       ??_C@_15DFGDLJBG@?$AAs?$AAw?$AA?$AA@ 0000000180039670     libcpmt:winapinls.obj
 0002:00004678       ??_C@_15BBFAICNG@?$AAu?$AAz?$AA?$AA@ 0000000180039678     libcpmt:winapinls.obj
 0002:00004680       ??_C@_15DKNDCGEA@?$AAt?$AAt?$AA?$AA@ 0000000180039680     libcpmt:winapinls.obj
 0002:00004688       ??_C@_15MGIFMDPL@?$AAp?$AAa?$AA?$AA@ 0000000180039688     libcpmt:winapinls.obj
 0002:00004690       ??_C@_15HCNDBBA@?$AAg?$AAu?$AA?$AA@ 0000000180039690     libcpmt:winapinls.obj
 0002:00004698       ??_C@_15FNBEIBON@?$AAt?$AAa?$AA?$AA@ 0000000180039698     libcpmt:winapinls.obj
 0002:000046a0       ??_C@_15NCHGBGLK@?$AAt?$AAe?$AA?$AA@ 00000001800396a0     libcpmt:winapinls.obj
 0002:000046a8       ??_C@_15PHPHCBPF@?$AAk?$AAn?$AA?$AA@ 00000001800396a8     libcpmt:winapinls.obj
 0002:000046b0       ??_C@_15DLGBCKMP@?$AAm?$AAr?$AA?$AA@ 00000001800396b0     libcpmt:winapinls.obj
 0002:000046b8       ??_C@_15EABBLBFF@?$AAs?$AAa?$AA?$AA@ 00000001800396b8     libcpmt:winapinls.obj
 0002:000046c0       ??_C@_15CBKOMCOI@?$AAm?$AAn?$AA?$AA@ 00000001800396c0     libcpmt:winapinls.obj
 0002:000046c8       ??_C@_15CKDMCJAF@?$AAg?$AAl?$AA?$AA@ 00000001800396c8     libcpmt:winapinls.obj
 0002:000046d0       ??_C@_17CNJFBPG@?$AAk?$AAo?$AAk?$AA?$AA@ 00000001800396d0     libcpmt:winapinls.obj
 0002:000046d8       ??_C@_17FFBJICPL@?$AAs?$AAy?$AAr?$AA?$AA@ 00000001800396d8     libcpmt:winapinls.obj
 0002:000046e0       ??_C@_17KPNDCPAF@?$AAd?$AAi?$AAv?$AA?$AA@ 00000001800396e0     libcpmt:winapinls.obj
 0002:000046e8       ??_C@_1M@OKAHONE@?$AAa?$AAr?$AA?9?$AAS?$AAA?$AA?$AA@ 00000001800396e8     libcpmt:winapinls.obj
 0002:000046f8       ??_C@_1M@FFFIGIGK@?$AAb?$AAg?$AA?9?$AAB?$AAG?$AA?$AA@ 00000001800396f8     libcpmt:winapinls.obj
 0002:00004708       ??_C@_1M@BJNKEDC@?$AAc?$AAa?$AA?9?$AAE?$AAS?$AA?$AA@ 0000000180039708     libcpmt:winapinls.obj
 0002:00004718       ??_C@_1M@CLNBBOPM@?$AAz?$AAh?$AA?9?$AAT?$AAW?$AA?$AA@ 0000000180039718     libcpmt:winapinls.obj
 0002:00004728       ??_C@_1M@IJJHFJHA@?$AAc?$AAs?$AA?9?$AAC?$AAZ?$AA?$AA@ 0000000180039728     libcpmt:winapinls.obj
 0002:00004738       ??_C@_1M@CLPEOBGI@?$AAd?$AAa?$AA?9?$AAD?$AAK?$AA?$AA@ 0000000180039738     libcpmt:winapinls.obj
 0002:00004748       ??_C@_1M@MCMADGCB@?$AAd?$AAe?$AA?9?$AAD?$AAE?$AA?$AA@ 0000000180039748     libcpmt:winapinls.obj
 0002:00004758       ??_C@_1M@OOCKEMAM@?$AAe?$AAl?$AA?9?$AAG?$AAR?$AA?$AA@ 0000000180039758     libcpmt:winapinls.obj
 0002:00004768       ??_C@_1M@BMHNFIME@?$AAe?$AAn?$AA?9?$AAU?$AAS?$AA?$AA@ 0000000180039768     libcpmt:winapinls.obj
 0002:00004778       ??_C@_1M@DDNJFGID@?$AAf?$AAi?$AA?9?$AAF?$AAI?$AA?$AA@ 0000000180039778     libcpmt:winapinls.obj
 0002:00004788       ??_C@_1M@GLIPPMAC@?$AAf?$AAr?$AA?9?$AAF?$AAR?$AA?$AA@ 0000000180039788     libcpmt:winapinls.obj
 0002:00004798       ??_C@_1M@GFMCHPE@?$AAh?$AAe?$AA?9?$AAI?$AAL?$AA?$AA@ 0000000180039798     libcpmt:winapinls.obj
 0002:000047a8       ??_C@_1M@MHLPGNKM@?$AAh?$AAu?$AA?9?$AAH?$AAU?$AA?$AA@ 00000001800397a8     libcpmt:winapinls.obj
 0002:000047b8       ??_C@_1M@LPDDNNPN@?$AAi?$AAs?$AA?9?$AAI?$AAS?$AA?$AA@ 00000001800397b8     libcpmt:winapinls.obj
 0002:000047c8       ??_C@_1M@MADIPODN@?$AAi?$AAt?$AA?9?$AAI?$AAT?$AA?$AA@ 00000001800397c8     libcpmt:winapinls.obj
 0002:000047d8       ??_C@_1M@HPNHIDJI@?$AAj?$AAa?$AA?9?$AAJ?$AAP?$AA?$AA@ 00000001800397d8     libcpmt:winapinls.obj
 0002:000047e8       ??_C@_1M@JLOOOEGK@?$AAk?$AAo?$AA?9?$AAK?$AAR?$AA?$AA@ 00000001800397e8     libcpmt:winapinls.obj
 0002:000047f8       ??_C@_1M@IHBJJGG@?$AAn?$AAl?$AA?9?$AAN?$AAL?$AA?$AA@ 00000001800397f8     libcpmt:winapinls.obj
 0002:00004808       ??_C@_1M@EANAGDL@?$AAn?$AAb?$AA?9?$AAN?$AAO?$AA?$AA@ 0000000180039808     libcpmt:winapinls.obj
 0002:00004818       ??_C@_1M@NEIEMEGP@?$AAp?$AAl?$AA?9?$AAP?$AAL?$AA?$AA@ 0000000180039818     libcpmt:winapinls.obj
 0002:00004828       ??_C@_1M@BOCFIGEP@?$AAp?$AAt?$AA?9?$AAB?$AAR?$AA?$AA@ 0000000180039828     libcpmt:winapinls.obj
 0002:00004838       ??_C@_1M@IMPFOPBG@?$AAr?$AAo?$AA?9?$AAR?$AAO?$AA?$AA@ 0000000180039838     libcpmt:winapinls.obj
 0002:00004848       ??_C@_1M@IDNNEJMM@?$AAr?$AAu?$AA?9?$AAR?$AAU?$AA?$AA@ 0000000180039848     libcpmt:winapinls.obj
 0002:00004858       ??_C@_1M@LILEEOGM@?$AAh?$AAr?$AA?9?$AAH?$AAR?$AA?$AA@ 0000000180039858     libcpmt:winapinls.obj
 0002:00004868       ??_C@_1M@FKIFEHPB@?$AAs?$AAk?$AA?9?$AAS?$AAK?$AA?$AA@ 0000000180039868     libcpmt:winapinls.obj
 0002:00004878       ??_C@_1M@LJMAMNPJ@?$AAs?$AAq?$AA?9?$AAA?$AAL?$AA?$AA@ 0000000180039878     libcpmt:winapinls.obj
 0002:00004888       ??_C@_1M@GIAKDKJK@?$AAs?$AAv?$AA?9?$AAS?$AAE?$AA?$AA@ 0000000180039888     libcpmt:winapinls.obj
 0002:00004898       ??_C@_1M@MKJKIKCL@?$AAt?$AAh?$AA?9?$AAT?$AAH?$AA?$AA@ 0000000180039898     libcpmt:winapinls.obj
 0002:000048a8       ??_C@_1M@MFLCCMPB@?$AAt?$AAr?$AA?9?$AAT?$AAR?$AA?$AA@ 00000001800398a8     libcpmt:winapinls.obj
 0002:000048b8       ??_C@_1M@OIJHDKJN@?$AAu?$AAr?$AA?9?$AAP?$AAK?$AA?$AA@ 00000001800398b8     libcpmt:winapinls.obj
 0002:000048c8       ??_C@_1M@LHIPCIEK@?$AAi?$AAd?$AA?9?$AAI?$AAD?$AA?$AA@ 00000001800398c8     libcpmt:winapinls.obj
 0002:000048d8       ??_C@_1M@MFMOBGI@?$AAu?$AAk?$AA?9?$AAU?$AAA?$AA?$AA@ 00000001800398d8     libcpmt:winapinls.obj
 0002:000048e8       ??_C@_1M@OBGLJIPL@?$AAb?$AAe?$AA?9?$AAB?$AAY?$AA?$AA@ 00000001800398e8     libcpmt:winapinls.obj
 0002:000048f8       ??_C@_1M@BCFAJEAD@?$AAs?$AAl?$AA?9?$AAS?$AAI?$AA?$AA@ 00000001800398f8     libcpmt:winapinls.obj
 0002:00004908       ??_C@_1M@FKFFEDDN@?$AAe?$AAt?$AA?9?$AAE?$AAE?$AA?$AA@ 0000000180039908     libcpmt:winapinls.obj
 0002:00004918       ??_C@_1M@KGKKAACI@?$AAl?$AAv?$AA?9?$AAL?$AAV?$AA?$AA@ 0000000180039918     libcpmt:winapinls.obj
 0002:00004928       ??_C@_1M@IFGBIJO@?$AAl?$AAt?$AA?9?$AAL?$AAT?$AA?$AA@ 0000000180039928     libcpmt:winapinls.obj
 0002:00004938       ??_C@_1M@FGEAHEDM@?$AAf?$AAa?$AA?9?$AAI?$AAR?$AA?$AA@ 0000000180039938     libcpmt:winapinls.obj
 0002:00004948       ??_C@_1M@KBMAIBFN@?$AAv?$AAi?$AA?9?$AAV?$AAN?$AA?$AA@ 0000000180039948     libcpmt:winapinls.obj
 0002:00004958       ??_C@_1M@GPCBKDJK@?$AAh?$AAy?$AA?9?$AAA?$AAM?$AA?$AA@ 0000000180039958     libcpmt:winapinls.obj
 0002:00004968       ??_C@_1BG@BECMDDJB@?$AAa?$AAz?$AA?9?$AAA?$AAZ?$AA?9?$AAL?$AAa?$AAt?$AAn?$AA?$AA@ 0000000180039968     libcpmt:winapinls.obj
 0002:00004980       ??_C@_1M@MAOFCAEA@?$AAe?$AAu?$AA?9?$AAE?$AAS?$AA?$AA@ 0000000180039980     libcpmt:winapinls.obj
 0002:00004990       ??_C@_1M@IGHABKPI@?$AAm?$AAk?$AA?9?$AAM?$AAK?$AA?$AA@ 0000000180039990     libcpmt:winapinls.obj
 0002:000049a0       ??_C@_1M@IAIGNEJG@?$AAt?$AAn?$AA?9?$AAZ?$AAA?$AA?$AA@ 00000001800399a0     libcpmt:winapinls.obj
 0002:000049b0       ??_C@_1M@IIJCOJFA@?$AAx?$AAh?$AA?9?$AAZ?$AAA?$AA?$AA@ 00000001800399b0     libcpmt:winapinls.obj
 0002:000049c0       ??_C@_1M@LGPJHNJH@?$AAz?$AAu?$AA?9?$AAZ?$AAA?$AA?$AA@ 00000001800399c0     libcpmt:winapinls.obj
 0002:000049d0       ??_C@_1M@HOKAOIO@?$AAa?$AAf?$AA?9?$AAZ?$AAA?$AA?$AA@ 00000001800399d0     libcpmt:winapinls.obj
 0002:000049e0       ??_C@_1M@DPCLHLIE@?$AAk?$AAa?$AA?9?$AAG?$AAE?$AA?$AA@ 00000001800399e0     libcpmt:winapinls.obj
 0002:000049f0       ??_C@_1M@BLKMHJBI@?$AAf?$AAo?$AA?9?$AAF?$AAO?$AA?$AA@ 00000001800399f0     libcpmt:winapinls.obj
 0002:00004a00       ??_C@_1M@LGGJAPPB@?$AAh?$AAi?$AA?9?$AAI?$AAN?$AA?$AA@ 0000000180039a00     libcpmt:winapinls.obj
 0002:00004a10       ??_C@_1M@FIKPIHFE@?$AAm?$AAt?$AA?9?$AAM?$AAT?$AA?$AA@ 0000000180039a10     libcpmt:winapinls.obj
 0002:00004a20       ??_C@_1M@HEGGPBFA@?$AAs?$AAe?$AA?9?$AAN?$AAO?$AA?$AA@ 0000000180039a20     libcpmt:winapinls.obj
 0002:00004a30       ??_C@_1M@EIBJEEPA@?$AAm?$AAs?$AA?9?$AAM?$AAY?$AA?$AA@ 0000000180039a30     libcpmt:winapinls.obj
 0002:00004a40       ??_C@_1M@FHLBGMPP@?$AAk?$AAk?$AA?9?$AAK?$AAZ?$AA?$AA@ 0000000180039a40     libcpmt:winapinls.obj
 0002:00004a50       ??_C@_1M@NGJJLCGI@?$AAk?$AAy?$AA?9?$AAK?$AAG?$AA?$AA@ 0000000180039a50     libcpmt:winapinls.obj
 0002:00004a60       ??_C@_1M@GIENNBFC@?$AAs?$AAw?$AA?9?$AAK?$AAE?$AA?$AA@ 0000000180039a60     libcpmt:winapinls.obj
 0002:00004a70       ??_C@_1BG@NDGMJIMJ@?$AAu?$AAz?$AA?9?$AAU?$AAZ?$AA?9?$AAL?$AAa?$AAt?$AAn?$AA?$AA@ 0000000180039a70     libcpmt:winapinls.obj
 0002:00004a88       ??_C@_1M@IDCCIHBC@?$AAt?$AAt?$AA?9?$AAR?$AAU?$AA?$AA@ 0000000180039a88     libcpmt:winapinls.obj
 0002:00004a98       ??_C@_1M@LOICPMOJ@?$AAb?$AAn?$AA?9?$AAI?$AAN?$AA?$AA@ 0000000180039a98     libcpmt:winapinls.obj
 0002:00004aa8       ??_C@_1M@KPKKNEAH@?$AAp?$AAa?$AA?9?$AAI?$AAN?$AA?$AA@ 0000000180039aa8     libcpmt:winapinls.obj
 0002:00004ab8       ??_C@_1M@PJGPPBOG@?$AAg?$AAu?$AA?9?$AAI?$AAN?$AA?$AA@ 0000000180039ab8     libcpmt:winapinls.obj
 0002:00004ac8       ??_C@_1M@KMKMOPHI@?$AAt?$AAa?$AA?9?$AAI?$AAN?$AA?$AA@ 0000000180039ac8     libcpmt:winapinls.obj
 0002:00004ad8       ??_C@_1M@KFEHEPAC@?$AAt?$AAe?$AA?9?$AAI?$AAN?$AA?$AA@ 0000000180039ad8     libcpmt:winapinls.obj
 0002:00004ae8       ??_C@_1M@CDCLMGHI@?$AAk?$AAn?$AA?9?$AAI?$AAN?$AA?$AA@ 0000000180039ae8     libcpmt:winapinls.obj
 0002:00004af8       ??_C@_1M@MIODLDKF@?$AAm?$AAl?$AA?9?$AAI?$AAN?$AA?$AA@ 0000000180039af8     libcpmt:winapinls.obj
 0002:00004b08       ??_C@_1M@PBIEACPO@?$AAm?$AAr?$AA?9?$AAI?$AAN?$AA?$AA@ 0000000180039b08     libcpmt:winapinls.obj
 0002:00004b18       ??_C@_1M@NIDEAGPH@?$AAs?$AAa?$AA?9?$AAI?$AAN?$AA?$AA@ 0000000180039b18     libcpmt:winapinls.obj
 0002:00004b28       ??_C@_1M@FHIHCBIO@?$AAm?$AAn?$AA?9?$AAM?$AAN?$AA?$AA@ 0000000180039b28     libcpmt:winapinls.obj
 0002:00004b38       ??_C@_1M@JAIJPENP@?$AAc?$AAy?$AA?9?$AAG?$AAB?$AA?$AA@ 0000000180039b38     libcpmt:winapinls.obj
 0002:00004b48       ??_C@_1M@PHGFBEPN@?$AAg?$AAl?$AA?9?$AAE?$AAS?$AA?$AA@ 0000000180039b48     libcpmt:winapinls.obj
 0002:00004b58       ??_C@_1O@KPIPDNCP@?$AAk?$AAo?$AAk?$AA?9?$AAI?$AAN?$AA?$AA@ 0000000180039b58     libcpmt:winapinls.obj
 0002:00004b68       ??_C@_1O@KNHJLDJA@?$AAs?$AAy?$AAr?$AA?9?$AAS?$AAY?$AA?$AA@ 0000000180039b68     libcpmt:winapinls.obj
 0002:00004b78       ??_C@_1O@MKEKBLAH@?$AAd?$AAi?$AAv?$AA?9?$AAM?$AAV?$AA?$AA@ 0000000180039b78     libcpmt:winapinls.obj
 0002:00004b88       ??_C@_1O@OHDCKDDF@?$AAq?$AAu?$AAz?$AA?9?$AAB?$AAO?$AA?$AA@ 0000000180039b88     libcpmt:winapinls.obj
 0002:00004b98       ??_C@_1M@LEPJNLFD@?$AAn?$AAs?$AA?9?$AAZ?$AAA?$AA?$AA@ 0000000180039b98     libcpmt:winapinls.obj
 0002:00004ba8       ??_C@_1M@OMLEIIJB@?$AAm?$AAi?$AA?9?$AAN?$AAZ?$AA?$AA@ 0000000180039ba8     libcpmt:winapinls.obj
 0002:00004bb8       ??_C@_1M@PMPEAILG@?$AAa?$AAr?$AA?9?$AAI?$AAQ?$AA?$AA@ 0000000180039bb8     libcpmt:winapinls.obj
 0002:00004bc8       ??_C@_1M@BIBDDEMK@?$AAz?$AAh?$AA?9?$AAC?$AAN?$AA?$AA@ 0000000180039bc8     libcpmt:winapinls.obj
 0002:00004bd8       ??_C@_1M@CNKPNOEE@?$AAd?$AAe?$AA?9?$AAC?$AAH?$AA?$AA@ 0000000180039bd8     libcpmt:winapinls.obj
 0002:00004be8       ??_C@_1M@LKMGMLKO@?$AAe?$AAn?$AA?9?$AAG?$AAB?$AA?$AA@ 0000000180039be8     libcpmt:winapinls.obj
 0002:00004bf8       ??_C@_1M@PGKJFFGL@?$AAe?$AAs?$AA?9?$AAM?$AAX?$AA?$AA@ 0000000180039bf8     libcpmt:winapinls.obj
 0002:00004c08       ??_C@_1M@DNNANBDC@?$AAf?$AAr?$AA?9?$AAB?$AAE?$AA?$AA@ 0000000180039c08     libcpmt:winapinls.obj
 0002:00004c18       ??_C@_1M@HLGMDFHM@?$AAi?$AAt?$AA?9?$AAC?$AAH?$AA?$AA@ 0000000180039c18     libcpmt:winapinls.obj
 0002:00004c28       ??_C@_1M@CLLBGJH@?$AAn?$AAl?$AA?9?$AAB?$AAE?$AA?$AA@ 0000000180039c28     libcpmt:winapinls.obj
 0002:00004c38       ??_C@_1M@BODBOGLF@?$AAn?$AAn?$AA?9?$AAN?$AAO?$AA?$AA@ 0000000180039c38     libcpmt:winapinls.obj
 0002:00004c48       ??_C@_1M@HFFAHKAD@?$AAp?$AAt?$AA?9?$AAP?$AAT?$AA?$AA@ 0000000180039c48     libcpmt:winapinls.obj
 0002:00004c58       ??_C@_1BG@LNOAKHIE@?$AAs?$AAr?$AA?9?$AAS?$AAP?$AA?9?$AAL?$AAa?$AAt?$AAn?$AA?$AA@ 0000000180039c58     libcpmt:winapinls.obj
 0002:00004c70       ??_C@_1M@HBMHBGAK@?$AAs?$AAv?$AA?9?$AAF?$AAI?$AA?$AA@ 0000000180039c70     libcpmt:winapinls.obj
 0002:00004c80       ??_C@_1BG@DGCJGJBE@?$AAa?$AAz?$AA?9?$AAA?$AAZ?$AA?9?$AAC?$AAy?$AAr?$AAl?$AA?$AA@ 0000000180039c80     libcpmt:winapinls.obj
 0002:00004c98       ??_C@_1M@KEJDAAHB@?$AAs?$AAe?$AA?9?$AAS?$AAE?$AA?$AA@ 0000000180039c98     libcpmt:winapinls.obj
 0002:00004ca8       ??_C@_1M@HEIBJJAD@?$AAm?$AAs?$AA?9?$AAB?$AAN?$AA?$AA@ 0000000180039ca8     libcpmt:winapinls.obj
 0002:00004cb8       ??_C@_1BG@PBGJMCEM@?$AAu?$AAz?$AA?9?$AAU?$AAZ?$AA?9?$AAC?$AAy?$AAr?$AAl?$AA?$AA@ 0000000180039cb8     libcpmt:winapinls.obj
 0002:00004cd0       ??_C@_1O@LAOBCMDF@?$AAq?$AAu?$AAz?$AA?9?$AAE?$AAC?$AA?$AA@ 0000000180039cd0     libcpmt:winapinls.obj
 0002:00004ce0       ??_C@_1M@POEEMAIO@?$AAa?$AAr?$AA?9?$AAE?$AAG?$AA?$AA@ 0000000180039ce0     libcpmt:winapinls.obj
 0002:00004cf0       ??_C@_1M@EFAKDEDL@?$AAz?$AAh?$AA?9?$AAH?$AAK?$AA?$AA@ 0000000180039cf0     libcpmt:winapinls.obj
 0002:00004d00       ??_C@_1M@HKKIJHGI@?$AAd?$AAe?$AA?9?$AAA?$AAT?$AA?$AA@ 0000000180039d00     libcpmt:winapinls.obj
 0002:00004d10       ??_C@_1M@KBFBEHJF@?$AAe?$AAn?$AA?9?$AAA?$AAU?$AA?$AA@ 0000000180039d10     libcpmt:winapinls.obj
 0002:00004d20       ??_C@_1M@MNPLFAAH@?$AAe?$AAs?$AA?9?$AAE?$AAS?$AA?$AA@ 0000000180039d20     libcpmt:winapinls.obj
 0002:00004d30       ??_C@_1M@HJOOJFMA@?$AAf?$AAr?$AA?9?$AAC?$AAA?$AA?$AA@ 0000000180039d30     libcpmt:winapinls.obj
 0002:00004d40       ??_C@_1BG@JPOFPNAB@?$AAs?$AAr?$AA?9?$AAS?$AAP?$AA?9?$AAC?$AAy?$AAr?$AAl?$AA?$AA@ 0000000180039d40     libcpmt:winapinls.obj
 0002:00004d58       ??_C@_1M@LNFOCMOB@?$AAs?$AAe?$AA?9?$AAF?$AAI?$AA?$AA@ 0000000180039d58     libcpmt:winapinls.obj
 0002:00004d68       ??_C@_1O@MGJBOAMB@?$AAq?$AAu?$AAz?$AA?9?$AAP?$AAE?$AA?$AA@ 0000000180039d68     libcpmt:winapinls.obj
 0002:00004d78       ??_C@_1M@GJINLBOK@?$AAa?$AAr?$AA?9?$AAL?$AAY?$AA?$AA@ 0000000180039d78     libcpmt:winapinls.obj
 0002:00004d88       ??_C@_1M@GGMNHJNL@?$AAz?$AAh?$AA?9?$AAS?$AAG?$AA?$AA@ 0000000180039d88     libcpmt:winapinls.obj
 0002:00004d98       ??_C@_1M@HOIKODND@?$AAd?$AAe?$AA?9?$AAL?$AAU?$AA?$AA@ 0000000180039d98     libcpmt:winapinls.obj
 0002:00004da8       ??_C@_1M@DDOCCGFG@?$AAe?$AAn?$AA?9?$AAC?$AAA?$AA?$AA@ 0000000180039da8     libcpmt:winapinls.obj
 0002:00004db8       ??_C@_1M@BNOEMJLF@?$AAe?$AAs?$AA?9?$AAG?$AAT?$AA?$AA@ 0000000180039db8     libcpmt:winapinls.obj
 0002:00004dc8       ??_C@_1M@EOGNKEK@?$AAf?$AAr?$AA?9?$AAC?$AAH?$AA?$AA@ 0000000180039dc8     libcpmt:winapinls.obj
 0002:00004dd8       ??_C@_1M@FLIDJFHL@?$AAh?$AAr?$AA?9?$AAB?$AAA?$AA?$AA@ 0000000180039dd8     libcpmt:winapinls.obj
 0002:00004de8       ??_C@_1O@FMCELNAJ@?$AAs?$AAm?$AAj?$AA?9?$AAN?$AAO?$AA?$AA@ 0000000180039de8     libcpmt:winapinls.obj
 0002:00004df8       ??_C@_1M@JHGLJMGJ@?$AAa?$AAr?$AA?9?$AAD?$AAZ?$AA?$AA@ 0000000180039df8     libcpmt:winapinls.obj
 0002:00004e08       ??_C@_1M@JKKFDCNP@?$AAz?$AAh?$AA?9?$AAM?$AAO?$AA?$AA@ 0000000180039e08     libcpmt:winapinls.obj
 0002:00004e18       ??_C@_1M@GEEFALPE@?$AAd?$AAe?$AA?9?$AAL?$AAI?$AA?$AA@ 0000000180039e18     libcpmt:winapinls.obj
 0002:00004e28       ??_C@_1M@IGEOFBG@?$AAe?$AAn?$AA?9?$AAN?$AAZ?$AA?$AA@ 0000000180039e28     libcpmt:winapinls.obj
 0002:00004e38       ??_C@_1M@KDBONEHP@?$AAe?$AAs?$AA?9?$AAC?$AAR?$AA?$AA@ 0000000180039e38     libcpmt:winapinls.obj
 0002:00004e48       ??_C@_1M@FHMDOHNN@?$AAf?$AAr?$AA?9?$AAL?$AAU?$AA?$AA@ 0000000180039e48     libcpmt:winapinls.obj
 0002:00004e58       ??_C@_1BG@NFKKMAFG@?$AAb?$AAs?$AA?9?$AAB?$AAA?$AA?9?$AAL?$AAa?$AAt?$AAn?$AA?$AA@ 0000000180039e58     libcpmt:winapinls.obj
 0002:00004e70       ??_C@_1O@IMNBEMCI@?$AAs?$AAm?$AAj?$AA?9?$AAS?$AAE?$AA?$AA@ 0000000180039e70     libcpmt:winapinls.obj
 0002:00004e80       ??_C@_1M@DHHMBNDP@?$AAa?$AAr?$AA?9?$AAM?$AAA?$AA?$AA@ 0000000180039e80     libcpmt:winapinls.obj
 0002:00004e90       ??_C@_1M@BNBLJCGH@?$AAe?$AAn?$AA?9?$AAI?$AAE?$AA?$AA@ 0000000180039e90     libcpmt:winapinls.obj
 0002:00004ea0       ??_C@_1M@GEPAFMDL@?$AAe?$AAs?$AA?9?$AAP?$AAA?$AA?$AA@ 0000000180039ea0     libcpmt:winapinls.obj
 0002:00004eb0       ??_C@_1M@OJONDMDL@?$AAf?$AAr?$AA?9?$AAM?$AAC?$AA?$AA@ 0000000180039eb0     libcpmt:winapinls.obj
 0002:00004ec0       ??_C@_1BG@OBCNFJB@?$AAs?$AAr?$AA?9?$AAB?$AAA?$AA?9?$AAL?$AAa?$AAt?$AAn?$AA?$AA@ 0000000180039ec0     libcpmt:winapinls.obj
 0002:00004ed8       ??_C@_1O@KEMEEGPO@?$AAs?$AAm?$AAa?$AA?9?$AAN?$AAO?$AA?$AA@ 0000000180039ed8     libcpmt:winapinls.obj
 0002:00004ee8       ??_C@_1M@ELMGFODK@?$AAa?$AAr?$AA?9?$AAT?$AAN?$AA?$AA@ 0000000180039ee8     libcpmt:winapinls.obj
 0002:00004ef8       ??_C@_1M@BHDLHFAF@?$AAe?$AAn?$AA?9?$AAZ?$AAA?$AA?$AA@ 0000000180039ef8     libcpmt:winapinls.obj
 0002:00004f08       ??_C@_1M@BMGIGLIF@?$AAe?$AAs?$AA?9?$AAD?$AAO?$AA?$AA@ 0000000180039f08     libcpmt:winapinls.obj
 0002:00004f18       ??_C@_1BG@CMBHIPBE@?$AAs?$AAr?$AA?9?$AAB?$AAA?$AA?9?$AAC?$AAy?$AAr?$AAl?$AA?$AA@ 0000000180039f18     libcpmt:winapinls.obj
 0002:00004f30       ??_C@_1O@HEDBLHNP@?$AAs?$AAm?$AAa?$AA?9?$AAS?$AAE?$AA?$AA@ 0000000180039f30     libcpmt:winapinls.obj
 0002:00004f40       ??_C@_1M@DAGCADIM@?$AAa?$AAr?$AA?9?$AAO?$AAM?$AA?$AA@ 0000000180039f40     libcpmt:winapinls.obj
 0002:00004f50       ??_C@_1M@FODLMICG@?$AAe?$AAn?$AA?9?$AAJ?$AAM?$AA?$AA@ 0000000180039f50     libcpmt:winapinls.obj
 0002:00004f60       ??_C@_1M@DNMLCIHB@?$AAe?$AAs?$AA?9?$AAV?$AAE?$AA?$AA@ 0000000180039f60     libcpmt:winapinls.obj
 0002:00004f70       ??_C@_1O@EOKHMKJK@?$AAs?$AAm?$AAs?$AA?9?$AAF?$AAI?$AA?$AA@ 0000000180039f70     libcpmt:winapinls.obj
 0002:00004f80       ??_C@_1M@CAFJMKOF@?$AAa?$AAr?$AA?9?$AAY?$AAE?$AA?$AA@ 0000000180039f80     libcpmt:winapinls.obj
 0002:00004f90       ??_C@_1M@CBFHIJLI@?$AAe?$AAn?$AA?9?$AAC?$AAB?$AA?$AA@ 0000000180039f90     libcpmt:winapinls.obj
 0002:00004fa0       ??_C@_1M@BGNFLDN@?$AAe?$AAs?$AA?9?$AAC?$AAO?$AA?$AA@ 0000000180039fa0     libcpmt:winapinls.obj
 0002:00004fb0       ??_C@_1O@JMPHMAMC@?$AAs?$AAm?$AAn?$AA?9?$AAF?$AAI?$AA?$AA@ 0000000180039fb0     libcpmt:winapinls.obj
 0002:00004fc0       ??_C@_1M@JLANABKE@?$AAa?$AAr?$AA?9?$AAS?$AAY?$AA?$AA@ 0000000180039fc0     libcpmt:winapinls.obj
 0002:00004fd0       ??_C@_1M@HPKGCFGN@?$AAe?$AAn?$AA?9?$AAB?$AAZ?$AA?$AA@ 0000000180039fd0     libcpmt:winapinls.obj
 0002:00004fe0       ??_C@_1M@OLJCMLGM@?$AAe?$AAs?$AA?9?$AAP?$AAE?$AA?$AA@ 0000000180039fe0     libcpmt:winapinls.obj
 0002:00004ff0       ??_C@_1M@MKKGFKLE@?$AAa?$AAr?$AA?9?$AAJ?$AAO?$AA?$AA@ 0000000180039ff0     libcpmt:winapinls.obj
 0002:00005000       ??_C@_1M@EKPGLDNI@?$AAe?$AAn?$AA?9?$AAT?$AAT?$AA?$AA@ 000000018003a000     libcpmt:winapinls.obj
 0002:00005010       ??_C@_1M@OONGHFHE@?$AAe?$AAs?$AA?9?$AAA?$AAR?$AA?$AA@ 000000018003a010     libcpmt:winapinls.obj
 0002:00005020       ??_C@_1M@OOJFGBHE@?$AAa?$AAr?$AA?9?$AAL?$AAB?$AA?$AA@ 000000018003a020     libcpmt:winapinls.obj
 0002:00005030       ??_C@_1M@GCEJHNEG@?$AAe?$AAn?$AA?9?$AAZ?$AAW?$AA?$AA@ 000000018003a030     libcpmt:winapinls.obj
 0002:00005040       ??_C@_1M@JNOCAHJI@?$AAe?$AAs?$AA?9?$AAE?$AAC?$AA?$AA@ 000000018003a040     libcpmt:winapinls.obj
 0002:00005050       ??_C@_1M@JEFHPGGB@?$AAa?$AAr?$AA?9?$AAK?$AAW?$AA?$AA@ 000000018003a050     libcpmt:winapinls.obj
 0002:00005060       ??_C@_1M@MLKIBJOJ@?$AAe?$AAn?$AA?9?$AAP?$AAH?$AA?$AA@ 000000018003a060     libcpmt:winapinls.obj
 0002:00005070       ??_C@_1M@BDNIPEND@?$AAe?$AAs?$AA?9?$AAC?$AAL?$AA?$AA@ 000000018003a070     libcpmt:winapinls.obj
 0002:00005080       ??_C@_1M@MPNMEKBD@?$AAa?$AAr?$AA?9?$AAA?$AAE?$AA?$AA@ 000000018003a080     libcpmt:winapinls.obj
 0002:00005090       ??_C@_1M@KBJALCPI@?$AAe?$AAs?$AA?9?$AAU?$AAY?$AA?$AA@ 000000018003a090     libcpmt:winapinls.obj
 0002:000050a0       ??_C@_1M@LLCCOAGA@?$AAa?$AAr?$AA?9?$AAB?$AAH?$AA?$AA@ 000000018003a0a0     libcpmt:winapinls.obj
 0002:000050b0       ??_C@_1M@PBFNCDEL@?$AAe?$AAs?$AA?9?$AAP?$AAY?$AA?$AA@ 000000018003a0b0     libcpmt:winapinls.obj
 0002:000050c0       ??_C@_1M@EDGINPNP@?$AAa?$AAr?$AA?9?$AAQ?$AAA?$AA?$AA@ 000000018003a0c0     libcpmt:winapinls.obj
 0002:000050d0       ??_C@_1M@MKDBIIJI@?$AAe?$AAs?$AA?9?$AAB?$AAO?$AA?$AA@ 000000018003a0d0     libcpmt:winapinls.obj
 0002:000050e0       ??_C@_1M@CPKKEBLD@?$AAe?$AAs?$AA?9?$AAS?$AAV?$AA?$AA@ 000000018003a0e0     libcpmt:winapinls.obj
 0002:000050f0       ??_C@_1M@NDBGMMJL@?$AAe?$AAs?$AA?9?$AAH?$AAN?$AA?$AA@ 000000018003a0f0     libcpmt:winapinls.obj
 0002:00005100       ??_C@_1M@JIJIBHDP@?$AAe?$AAs?$AA?9?$AAN?$AAI?$AA?$AA@ 000000018003a100     libcpmt:winapinls.obj
 0002:00005110       ??_C@_1M@CGFMKEEK@?$AAe?$AAs?$AA?9?$AAP?$AAR?$AA?$AA@ 000000018003a110     libcpmt:winapinls.obj
 0002:00005120       ??_C@_1O@ICJHKIIK@?$AAz?$AAh?$AA?9?$AAC?$AAH?$AAT?$AA?$AA@ 000000018003a120     libcpmt:winapinls.obj
 0002:00005130       ??_C@_15CLNEJCE@?$AAs?$AAr?$AA?$AA@ 000000018003a130     libcpmt:winapinls.obj
 0002:00005138       ??_C@_1M@KAHEKEIG@?$AAa?$AAf?$AA?9?$AAz?$AAa?$AA?$AA@ 000000018003a138     libcpmt:winapinls.obj
 0002:00005148       ??_C@_1M@GIECOABL@?$AAa?$AAr?$AA?9?$AAa?$AAe?$AA?$AA@ 000000018003a148     libcpmt:winapinls.obj
 0002:00005158       ??_C@_1M@BMLMEKGI@?$AAa?$AAr?$AA?9?$AAb?$AAh?$AA?$AA@ 000000018003a158     libcpmt:winapinls.obj
 0002:00005168       ??_C@_1M@DAPFDGGB@?$AAa?$AAr?$AA?9?$AAd?$AAz?$AA?$AA@ 000000018003a168     libcpmt:winapinls.obj
 0002:00005178       ??_C@_1M@FJNKGKIG@?$AAa?$AAr?$AA?9?$AAe?$AAg?$AA?$AA@ 000000018003a178     libcpmt:winapinls.obj
 0002:00005188       ??_C@_1M@FLGKKCLO@?$AAa?$AAr?$AA?9?$AAi?$AAq?$AA?$AA@ 000000018003a188     libcpmt:winapinls.obj
 0002:00005198       ??_C@_1M@GNDIPALM@?$AAa?$AAr?$AA?9?$AAj?$AAo?$AA?$AA@ 000000018003a198     libcpmt:winapinls.obj
 0002:000051a8       ??_C@_1M@DDMJFMGJ@?$AAa?$AAr?$AA?9?$AAk?$AAw?$AA?$AA@ 000000018003a1a8     libcpmt:winapinls.obj
 0002:000051b8       ??_C@_1M@EJALMLHM@?$AAa?$AAr?$AA?9?$AAl?$AAb?$AA?$AA@ 000000018003a1b8     libcpmt:winapinls.obj
 0002:000051c8       ??_C@_1M@MOBDBLOC@?$AAa?$AAr?$AA?9?$AAl?$AAy?$AA?$AA@ 000000018003a1c8     libcpmt:winapinls.obj
 0002:000051d8       ??_C@_1M@JAOCLHDH@?$AAa?$AAr?$AA?9?$AAm?$AAa?$AA?$AA@ 000000018003a1d8     libcpmt:winapinls.obj
 0002:000051e8       ??_C@_1M@JHPMKJIE@?$AAa?$AAr?$AA?9?$AAo?$AAm?$AA?$AA@ 000000018003a1e8     libcpmt:winapinls.obj
 0002:000051f8       ??_C@_1M@OEPGHFNH@?$AAa?$AAr?$AA?9?$AAq?$AAa?$AA?$AA@ 000000018003a1f8     libcpmt:winapinls.obj
 0002:00005208       ??_C@_1M@KJDONENM@?$AAa?$AAr?$AA?9?$AAs?$AAa?$AA?$AA@ 000000018003a208     libcpmt:winapinls.obj
 0002:00005218       ??_C@_1M@DMJDKLKM@?$AAa?$AAr?$AA?9?$AAs?$AAy?$AA?$AA@ 000000018003a218     libcpmt:winapinls.obj
 0002:00005228       ??_C@_1M@OMFIPEDC@?$AAa?$AAr?$AA?9?$AAt?$AAn?$AA?$AA@ 000000018003a228     libcpmt:winapinls.obj
 0002:00005238       ??_C@_1M@IHMHGAON@?$AAa?$AAr?$AA?9?$AAy?$AAe?$AA?$AA@ 000000018003a238     libcpmt:winapinls.obj
 0002:00005248       ??_C@_1BG@KDCPGJGB@?$AAa?$AAz?$AA?9?$AAa?$AAz?$AA?9?$AAc?$AAy?$AAr?$AAl?$AA?$AA@ 000000018003a248     libcpmt:winapinls.obj
 0002:00005260       ??_C@_1BG@IBCKDDOE@?$AAa?$AAz?$AA?9?$AAa?$AAz?$AA?9?$AAl?$AAa?$AAt?$AAn?$AA?$AA@ 000000018003a260     libcpmt:winapinls.obj
 0002:00005278       ??_C@_1M@EGPFDCPD@?$AAb?$AAe?$AA?9?$AAb?$AAy?$AA?$AA@ 000000018003a278     libcpmt:winapinls.obj
 0002:00005288       ??_C@_1M@PCMGMCGC@?$AAb?$AAg?$AA?9?$AAb?$AAg?$AA?$AA@ 000000018003a288     libcpmt:winapinls.obj
 0002:00005298       ??_C@_1M@BJBMFGOB@?$AAb?$AAn?$AA?9?$AAi?$AAn?$AA?$AA@ 000000018003a298     libcpmt:winapinls.obj
 0002:000052a8       ??_C@_1BG@EAKMMACD@?$AAb?$AAs?$AA?9?$AAb?$AAa?$AA?9?$AAl?$AAa?$AAt?$AAn?$AA?$AA@ 000000018003a2a8     libcpmt:winapinls.obj
 0002:000052c0       ??_C@_1M@KGADAODK@?$AAc?$AAa?$AA?9?$AAe?$AAs?$AA?$AA@ 000000018003a2c0     libcpmt:winapinls.obj
 0002:000052d0       ??_C@_1M@COAJPDHI@?$AAc?$AAs?$AA?9?$AAc?$AAz?$AA?$AA@ 000000018003a2d0     libcpmt:winapinls.obj
 0002:000052e0       ??_C@_1M@DHBHFONH@?$AAc?$AAy?$AA?9?$AAg?$AAb?$AA?$AA@ 000000018003a2e0     libcpmt:winapinls.obj
 0002:000052f0       ??_C@_1M@IMGKELGA@?$AAd?$AAa?$AA?9?$AAd?$AAk?$AA?$AA@ 000000018003a2f0     libcpmt:winapinls.obj
 0002:00005300       ??_C@_1M@NNDGDNGA@?$AAd?$AAe?$AA?9?$AAa?$AAt?$AA?$AA@ 000000018003a300     libcpmt:winapinls.obj
 0002:00005310       ??_C@_1M@IKDBHEEM@?$AAd?$AAe?$AA?9?$AAc?$AAh?$AA?$AA@ 000000018003a310     libcpmt:winapinls.obj
 0002:00005320       ??_C@_1M@GFFOJMCJ@?$AAd?$AAe?$AA?9?$AAd?$AAe?$AA?$AA@ 000000018003a320     libcpmt:winapinls.obj
 0002:00005330       ??_C@_1M@MDNLKBPM@?$AAd?$AAe?$AA?9?$AAl?$AAi?$AA?$AA@ 000000018003a330     libcpmt:winapinls.obj
 0002:00005340       ??_C@_1M@NJBEEJNL@?$AAd?$AAe?$AA?9?$AAl?$AAu?$AA?$AA@ 000000018003a340     libcpmt:winapinls.obj
 0002:00005350       ??_C@_1O@GNNELBAP@?$AAd?$AAi?$AAv?$AA?9?$AAm?$AAv?$AA?$AA@ 000000018003a350     libcpmt:winapinls.obj
 0002:00005360       ??_C@_1M@EJLEOGAE@?$AAe?$AAl?$AA?9?$AAg?$AAr?$AA?$AA@ 000000018003a360     libcpmt:winapinls.obj
 0002:00005370       ??_C@_1M@GMPONJN@?$AAe?$AAn?$AA?9?$AAa?$AAu?$AA?$AA@ 000000018003a370     libcpmt:winapinls.obj
 0002:00005380       ??_C@_1M@NIDIIPGF@?$AAe?$AAn?$AA?9?$AAb?$AAz?$AA?$AA@ 000000018003a380     libcpmt:winapinls.obj
 0002:00005390       ??_C@_1M@JEHMIMFO@?$AAe?$AAn?$AA?9?$AAc?$AAa?$AA?$AA@ 000000018003a390     libcpmt:winapinls.obj
 0002:000053a0       ??_C@_1M@IGMJCDLA@?$AAe?$AAn?$AA?9?$AAc?$AAb?$AA?$AA@ 000000018003a3a0     libcpmt:winapinls.obj
 0002:000053b0       ??_C@_1M@BNFIGBKG@?$AAe?$AAn?$AA?9?$AAg?$AAb?$AA?$AA@ 000000018003a3b0     libcpmt:winapinls.obj
 0002:000053c0       ??_C@_1M@LKIFDIGP@?$AAe?$AAn?$AA?9?$AAi?$AAe?$AA?$AA@ 000000018003a3c0     libcpmt:winapinls.obj
 0002:000053d0       ??_C@_1M@PJKFGCCO@?$AAe?$AAn?$AA?9?$AAj?$AAm?$AA?$AA@ 000000018003a3d0     libcpmt:winapinls.obj
 0002:000053e0       ??_C@_1M@KPPKEPBO@?$AAe?$AAn?$AA?9?$AAn?$AAz?$AA?$AA@ 000000018003a3e0     libcpmt:winapinls.obj
 0002:00005430       __real@0000000000000000    000000018003a430     libcpmt:xprec.obj
 0002:00005438       __real@bff0000000000000    000000018003a438     libcpmt:xprec.obj
 0002:000054f8       ??_7type_info@@6B@         000000018003a4f8     LIBCMT:std_type_info_static.obj
 0002:00005500       _pRawDllMain               000000018003a500     LIBCMT:dll_dllmain.obj
 0002:00005500       _pDefaultRawDllMain        000000018003a500     LIBCMT:dll_dllmain.obj
 0002:00005520       ??_7bad_array_new_length@std@@6B@ 000000018003a520     LIBCMT:throw_bad_alloc.obj
 0002:00005530       ??_C@_0BF@KINCDENJ@bad?5array?5new?5length?$AA@ 000000018003a530     LIBCMT:throw_bad_alloc.obj
 0002:00005548       _pDestructExceptionObject  000000018003a548     libvcruntime:frame.obj
 0002:00005558       ??_7bad_exception@std@@6B@ 000000018003a558     libvcruntime:frame.obj
 0002:00005568       ??_C@_0O@DPKOEFFH@bad?5exception?$AA@ 000000018003a568     libvcruntime:frame.obj
 0002:00005678       ??_C@_1BC@DNHGCMLG@?$AAa?$AAd?$AAv?$AAa?$AAp?$AAi?$AA3?$AA2?$AA?$AA@ 000000018003a678     libvcruntime:winapi_downlevel.obj
 0002:00005690       ??_C@_1DM@KHCHBNEB@?$AAa?$AAp?$AAi?$AA?9?$AAm?$AAs?$AA?9?$AAw?$AAi?$AAn?$AA?9?$AAc?$AAo?$AAr?$AAe?$AA?9?$AAf?$AAi?$AAb?$AAe?$AAr?$AAs?$AA?9?$AAl?$AA1?$AA?9?$AA1?$AA?9?$AA1?$AA?$AA@ 000000018003a690     libvcruntime:winapi_downlevel.obj
 0002:000056d0       ??_C@_1DK@LPPGFMPP@?$AAa?$AAp?$AAi?$AA?9?$AAm?$AAs?$AA?9?$AAw?$AAi?$AAn?$AA?9?$AAc?$AAo?$AAr?$AAe?$AA?9?$AAs?$AAy?$AAn?$AAc?$AAh?$AA?9?$AAl?$AA1?$AA?9?$AA2?$AA?9?$AA0?$AA?$AA@ 000000018003a6d0     libvcruntime:winapi_downlevel.obj
 0002:00005710       ??_C@_1BC@GDMECMAK@?$AAk?$AAe?$AAr?$AAn?$AAe?$AAl?$AA3?$AA2?$AA?$AA@ 000000018003a710     libvcruntime:winapi_downlevel.obj
 0002:00005728       ??_C@_0O@BAMBGLIE@EventRegister?$AA@ 000000018003a728     libvcruntime:winapi_downlevel.obj
 0002:00005740       ??_C@_0BE@BJEEGHGK@EventSetInformation?$AA@ 000000018003a740     libvcruntime:winapi_downlevel.obj
 0002:00005758       ??_C@_0BA@FAKLIPIC@EventUnregister?$AA@ 000000018003a758     libvcruntime:winapi_downlevel.obj
 0002:00005770       ??_C@_0BD@PKLHJPHD@EventWriteTransfer?$AA@ 000000018003a770     libvcruntime:winapi_downlevel.obj
 0002:000057b0       _Microsoft_CRTProvider     000000018003a7b0     libvcruntime:telemetry.obj
 0002:000057b8       ??_C@_0O@JEOPJOMI@Main?5Invoked?4?$AA@ 000000018003a7b8     libvcruntime:telemetry.obj
 0002:000057c8       ??_C@_0P@NEAEIBDO@Main?5Returned?4?$AA@ 000000018003a7c8     libvcruntime:telemetry.obj
 0002:000057d8       ??_C@_01MIFGBAGJ@?$CL?$AA@ 000000018003a7d8     libvcruntime:undname.obj
 0002:000057dc       ??_C@_01HNPIGOCE@?$CG?$AA@ 000000018003a7dc     libvcruntime:undname.obj
 0002:000057e0       ??_C@_03MNHNFDLC@?9?$DO?$CK?$AA@ 000000018003a7e0     libvcruntime:undname.obj
 0002:000057e4       ??_C@_01KMDKNFGN@?1?$AA@   000000018003a7e4     libvcruntime:undname.obj
 0002:000057e8       ??_C@_01FGNFDNOH@?$CF?$AA@ 000000018003a7e8     libvcruntime:undname.obj
 0002:000057ec       ??_C@_01MNNFJEPP@?$DM?$AA@ 000000018003a7ec     libvcruntime:undname.obj
 0002:000057f0       ??_C@_02EHCHHCKH@?$DM?$DN?$AA@ 000000018003a7f0     libvcruntime:undname.obj
 0002:000057f4       ??_C@_01PPODPGHN@?$DO?$AA@ 000000018003a7f4     libvcruntime:undname.obj
 0002:000057f8       ??_C@_02EEKDKGMJ@?$DO?$DN?$AA@ 000000018003a7f8     libvcruntime:undname.obj
 0002:000057fc       ??_C@_01IHBHIGKO@?0?$AA@   000000018003a7fc     libvcruntime:undname.obj
 0002:00005800       ??_C@_02HCKGKOFO@?$CI?$CJ?$AA@ 000000018003a800     libvcruntime:undname.obj
 0002:00005804       ??_C@_01PJKLJHI@?$HO?$AA@  000000018003a804     libvcruntime:undname.obj
 0002:00005808       ??_C@_01JKBOJNNK@?$FO?$AA@ 000000018003a808     libvcruntime:undname.obj
 0002:0000580c       ??_C@_01DNKMNLPK@?$HM?$AA@ 000000018003a80c     libvcruntime:undname.obj
 0002:00005810       ??_C@_02PPKAJPJL@?$CG?$CG?$AA@ 000000018003a810     libvcruntime:undname.obj
 0002:00005814       ??_C@_02NONPIBCD@?$HM?$HM?$AA@ 000000018003a814     libvcruntime:undname.obj
 0002:00005818       ??_C@_02FPIMKNGF@?$CK?$DN?$AA@ 000000018003a818     libvcruntime:undname.obj
 0002:0000581c       ??_C@_02FOEOMHFC@?$CL?$DN?$AA@ 000000018003a81c     libvcruntime:undname.obj
 0002:00005820       ??_C@_02FKMDLLOA@?9?$DN?$AA@ 000000018003a820     libvcruntime:undname.obj
 0002:00005824       ??_C@_02FJEHGPIO@?1?$DN?$AA@ 000000018003a824     libvcruntime:undname.obj
 0002:00005828       ??_C@_02FENAOKFI@?$CF?$DN?$AA@ 000000018003a828     libvcruntime:undname.obj
 0002:0000582c       ??_C@_03IKFCCPFF@?$DO?$DO?$DN?$AA@ 000000018003a82c     libvcruntime:undname.obj
 0002:00005830       ??_C@_03CDNPDDLA@?$DM?$DM?$DN?$AA@ 000000018003a830     libvcruntime:undname.obj
 0002:00005834       ??_C@_02FGJGFEAB@?$CG?$DN?$AA@ 000000018003a834     libvcruntime:undname.obj
 0002:00005838       ??_C@_02DHLNPPGH@?$HM?$DN?$AA@ 000000018003a838     libvcruntime:undname.obj
 0002:0000583c       ??_C@_02MHEGNOJ@?$FO?$DN?$AA@ 000000018003a83c     libvcruntime:undname.obj
 0002:00005840       ??_C@_09IFPLHPGF@?$GAvftable?8?$AA@ 000000018003a840     libvcruntime:undname.obj
 0002:00005850       ??_C@_09BLBHBJP@?$GAvbtable?8?$AA@ 000000018003a850     libvcruntime:undname.obj
 0002:00005860       ??_C@_07FEEIOKP@?$GAvcall?8?$AA@ 000000018003a860     libvcruntime:undname.obj
 0002:00005868       ??_C@_08LLFFHHDJ@?$GAtypeof?8?$AA@ 000000018003a868     libvcruntime:undname.obj
 0002:00005878       ??_C@_0BF@KDPPACIK@?$GAlocal?5static?5guard?8?$AA@ 000000018003a878     libvcruntime:undname.obj
 0002:00005890       ??_C@_08OBABFOLI@?$GAstring?8?$AA@ 000000018003a890     libvcruntime:undname.obj
 0002:000058a0       ??_C@_0BD@JDLKDPAB@?$GAvbase?5destructor?8?$AA@ 000000018003a8a0     libvcruntime:undname.obj
 0002:000058b8       ??_C@_0BN@DEGPLNFK@?$GAvector?5deleting?5destructor?8?$AA@ 000000018003a8b8     libvcruntime:undname.obj
 0002:000058d8       ??_C@_0BO@OBMKPJIG@?$GAdefault?5constructor?5closure?8?$AA@ 000000018003a8d8     libvcruntime:undname.obj
 0002:000058f8       ??_C@_0BN@IMDCHIKM@?$GAscalar?5deleting?5destructor?8?$AA@ 000000018003a8f8     libvcruntime:undname.obj
 0002:00005918       ??_C@_0BO@PFGOCPJJ@?$GAvector?5constructor?5iterator?8?$AA@ 000000018003a918     libvcruntime:undname.obj
 0002:00005938       ??_C@_0BN@LFPFMEDL@?$GAvector?5destructor?5iterator?8?$AA@ 000000018003a938     libvcruntime:undname.obj
 0002:00005958       ??_C@_0CE@IKBNEHA@?$GAvector?5vbase?5constructor?5iterat@ 000000018003a958     libvcruntime:undname.obj
 0002:00005980       ??_C@_0BL@NILFHHPC@?$GAvirtual?5displacement?5map?8?$AA@ 000000018003a980     libvcruntime:undname.obj
 0002:000059a0       ??_C@_0CB@JONCMFFK@?$GAeh?5vector?5constructor?5iterator?8@ 000000018003a9a0     libvcruntime:undname.obj
 0002:000059c8       ??_C@_0CA@GCEOPDGL@?$GAeh?5vector?5destructor?5iterator?8?$AA@ 000000018003a9c8     libvcruntime:undname.obj
 0002:000059e8       ??_C@_0CH@OOJPLCPH@?$GAeh?5vector?5vbase?5constructor?5ite@ 000000018003a9e8     libvcruntime:undname.obj
 0002:00005a10       ??_C@_0BL@LLKPOHJI@?$GAcopy?5constructor?5closure?8?$AA@ 000000018003aa10     libvcruntime:undname.obj
 0002:00005a30       ??_C@_0BA@KBCDOMBN@?$GAudt?5returning?8?$AA@ 000000018003aa30     libvcruntime:undname.obj
 0002:00005a40       ??_C@_03KLGMFNMG@?$GAEH?$AA@ 000000018003aa40     libvcruntime:undname.obj
 0002:00005a44       ??_C@_05KHLCHHI@?$GARTTI?$AA@ 000000018003aa44     libvcruntime:undname.obj
 0002:00005a50       ??_C@_0BA@KKLDJDLB@?$GAlocal?5vftable?8?$AA@ 000000018003aa50     libvcruntime:undname.obj
 0002:00005a60       ??_C@_0CE@IIHCMGGL@?$GAlocal?5vftable?5constructor?5closu@ 000000018003aa60     libvcruntime:undname.obj
 0002:00005a84       ??_C@_06FHBGPFGH@?5new?$FL?$FN?$AA@ 000000018003aa84     libvcruntime:undname.obj
 0002:00005a90       ??_C@_09LBNFPBCA@?5delete?$FL?$FN?$AA@ 000000018003aa90     libvcruntime:undname.obj
 0002:00005aa0       ??_C@_0P@HJKNJFNN@?$GAomni?5callsig?8?$AA@ 000000018003aaa0     libvcruntime:undname.obj
 0002:00005ab0       ??_C@_0BL@CNOONJFP@?$GAplacement?5delete?5closure?8?$AA@ 000000018003aab0     libvcruntime:undname.obj
 0002:00005ad0       ??_C@_0BN@CKNJLHMB@?$GAplacement?5delete?$FL?$FN?5closure?8?$AA@ 000000018003aad0     libvcruntime:undname.obj
 0002:00005af0       ??_C@_0CG@CFDHKGGD@?$GAmanaged?5vector?5constructor?5iter@ 000000018003aaf0     libvcruntime:undname.obj
 0002:00005b18       ??_C@_0CF@IMGKMJNO@?$GAmanaged?5vector?5destructor?5itera@ 000000018003ab18     libvcruntime:undname.obj
 0002:00005b40       ??_C@_0CG@HLDDJMAG@?$GAeh?5vector?5copy?5constructor?5iter@ 000000018003ab40     libvcruntime:undname.obj
 0002:00005b68       ??_C@_0CM@FCBBDIGB@?$GAeh?5vector?5vbase?5copy?5constructo@ 000000018003ab68     libvcruntime:undname.obj
 0002:00005b98       ??_C@_0BL@CLIPGLGB@?$GAdynamic?5initializer?5for?5?8?$AA@ 000000018003ab98     libvcruntime:undname.obj
 0002:00005bb8       ??_C@_0CB@PDBIFEP@?$GAdynamic?5atexit?5destructor?5for?5?8@ 000000018003abb8     libvcruntime:undname.obj
 0002:00005be0       ??_C@_0CD@CGAJBKEJ@?$GAvector?5copy?5constructor?5iterato@ 000000018003abe0     libvcruntime:undname.obj
 0002:00005c08       ??_C@_0CJ@GJELGAMM@?$GAvector?5vbase?5copy?5constructor?5i@ 000000018003ac08     libvcruntime:undname.obj
 0002:00005c38       ??_C@_0CL@FGIJHLCE@?$GAmanaged?5vector?5copy?5constructor@ 000000018003ac38     libvcruntime:undname.obj
 0002:00005c68       ??_C@_0BM@PMGGMLDN@?$GAlocal?5static?5thread?5guard?8?$AA@ 000000018003ac68     libvcruntime:undname.obj
 0002:00005c88       ??_C@_0N@BDNMDMOL@operator?5?$CC?$CC?5?$AA@ 000000018003ac88     libvcruntime:undname.obj
 0002:00005fc8       ??_C@_0BC@DAFEJGAK@?5Type?5Descriptor?8?$AA@ 000000018003afc8     libvcruntime:undname.obj
 0002:00005fe0       ??_C@_0BM@LDKODKLH@?5Base?5Class?5Descriptor?5at?5?$CI?$AA@ 000000018003afe0     libvcruntime:undname.obj
 0002:00006000       ??_C@_0BD@LGICGFMM@?5Base?5Class?5Array?8?$AA@ 000000018003b000     libvcruntime:undname.obj
 0002:00006018       ??_C@_0BN@MECKDCOJ@?5Class?5Hierarchy?5Descriptor?8?$AA@ 000000018003b018     libvcruntime:undname.obj
 0002:00006038       ??_C@_0BK@CFCOFLF@?5Complete?5Object?5Locator?8?$AA@ 000000018003b038     libvcruntime:undname.obj
 0002:00006058       ??_C@_08EHJDFFNH@__based?$CI?$AA@ 000000018003b058     libvcruntime:undname.obj
 0002:00006068       ??_C@_07KOLFKCDI@__cdecl?$AA@ 000000018003b068     libvcruntime:undname.obj
 0002:00006070       ??_C@_08GHMPAG@__pascal?$AA@ 000000018003b070     libvcruntime:undname.obj
 0002:00006080       ??_C@_09IFJBGAPI@__stdcall?$AA@ 000000018003b080     libvcruntime:undname.obj
 0002:00006090       ??_C@_0L@NPHFGOKO@__thiscall?$AA@ 000000018003b090     libvcruntime:undname.obj
 0002:000060a0       ??_C@_0L@JMKHOMEK@__fastcall?$AA@ 000000018003b0a0     libvcruntime:undname.obj
 0002:000060b0       ??_C@_0N@BCKKPABJ@__vectorcall?$AA@ 000000018003b0b0     libvcruntime:undname.obj
 0002:000060c0       ??_C@_09HIJEGCPM@__clrcall?$AA@ 000000018003b0c0     libvcruntime:undname.obj
 0002:000060cc       ??_C@_06GHPCKEAG@__eabi?$AA@ 000000018003b0cc     libvcruntime:undname.obj
 0002:000060d8       ??_C@_07JOMMBBKO@__ptr64?$AA@ 000000018003b0d8     libvcruntime:undname.obj
 0002:000060e0       ??_C@_0L@PILCLIHE@__restrict?$AA@ 000000018003b0e0     libvcruntime:undname.obj
 0002:000060f0       ??_C@_0M@GFIIJFMG@__unaligned?$AA@ 000000018003b0f0     libvcruntime:undname.obj
 0002:00006100       ??_C@_09DHDLOLLB@restrict?$CI?$AA@ 000000018003b100     libvcruntime:undname.obj
 0002:0000610c       ??_C@_04NIHEBCM@?5new?$AA@ 000000018003b10c     libvcruntime:undname.obj
 0002:00006118       ??_C@_07FPCDHGMM@?5delete?$AA@ 000000018003b118     libvcruntime:undname.obj
 0002:00006120       ??_C@_02GPIOPFAK@?$DO?$DO?$AA@ 000000018003b120     libvcruntime:undname.obj
 0002:00006124       ??_C@_02FODMEDOG@?$DM?$DM?$AA@ 000000018003b124     libvcruntime:undname.obj
 0002:00006128       ??_C@_01DCLJPIOD@?$CB?$AA@ 000000018003b128     libvcruntime:undname.obj
 0002:0000612c       ??_C@_02EGOFBIJA@?$DN?$DN?$AA@ 000000018003b12c     libvcruntime:undname.obj
 0002:00006130       ??_C@_02FDNJECIE@?$CB?$DN?$AA@ 000000018003b130     libvcruntime:undname.obj
 0002:00006134       ??_C@_02GPECMEKF@?$FL?$FN?$AA@ 000000018003b134     libvcruntime:undname.obj
 0002:00006138       ??_C@_08LHJFAFGD@operator?$AA@ 000000018003b138     libvcruntime:undname.obj
 0002:00006144       ??_C@_02HBOOOICD@?9?$DO?$AA@ 000000018003b144     libvcruntime:undname.obj
 0002:00006148       ??_C@_02ECNGHCIF@?$CL?$CL?$AA@ 000000018003b148     libvcruntime:undname.obj
 0002:0000614c       ??_C@_02BAABKJLB@?9?9?$AA@ 000000018003b14c     libvcruntime:undname.obj
 0002:00006150       standard_lookup_table      000000018003b150     libucrt:output.obj
 0002:000061b0       format_validation_lookup_table 000000018003b1b0     libucrt:output.obj
 0002:0000620c       ??_C@_06OJHGLDPL@?$CInull?$CJ?$AA@ 000000018003b20c     libucrt:output.obj
 0002:00006218       ??_C@_1O@CEDCILHN@?$AA?$CI?$AAn?$AAu?$AAl?$AAl?$AA?$CJ?$AA?$AA@ 000000018003b218     libucrt:output.obj
 0002:00006228       __real@8000000000000000    000000018003b228     libucrt:frexp.obj
 0002:00006230       ??_C@_1BI@BGOHAHKC@?$AAm?$AAs?$AAc?$AAo?$AAr?$AAe?$AAe?$AA?4?$AAd?$AAl?$AAl?$AA?$AA@ 000000018003b230     libucrt:exit.obj
 0002:00006248       ??_C@_0P@MIGLKIOC@CorExitProcess?$AA@ 000000018003b248     libucrt:exit.obj
 0002:000063d0       __newctype                 000000018003b3d0     libucrt:ctype.obj
 0002:000066d0       __newclmap                 000000018003b6d0     libucrt:ctype.obj
 0002:00006850       __newcumap                 000000018003b850     libucrt:ctype.obj
 0002:000069d0       _wctype                    000000018003b9d0     libucrt:ctype.obj
 0002:00006bd4       ??_C@_04EIAKFFMI@sqrt?$AA@ 000000018003bbd4     libucrt:sqrt.obj
 0002:00006be0       __acrt_exception_action_table 000000018003bbe0     libucrt:exception_filter.obj
 0002:00006ca0       __acrt_signal_action_table_count 000000018003bca0     libucrt:exception_filter.obj
 0002:00006ca8       __acrt_signal_action_first_fpe_index 000000018003bca8     libucrt:exception_filter.obj
 0002:00006cb0       __acrt_signal_action_fpe_count 000000018003bcb0     libucrt:exception_filter.obj
 0002:00006e50       ??_C@_1EG@CNNIPFIM@?$AAa?$AAp?$AAi?$AA?9?$AAm?$AAs?$AA?9?$AAw?$AAi?$AAn?$AA?9?$AAa?$AAp?$AAp?$AAm?$AAo?$AAd?$AAe?$AAl?$AA?9?$AAr?$AAu?$AAn?$AAt?$AAi?$AAm?$AAe?$AA?9?$AAl?$AA1?$AA?9?$AA1@ 000000018003be50     libucrt:winapi_thunks.obj
 0002:00006ea0       ??_C@_1EA@JGEFHKEI@?$AAa?$AAp?$AAi?$AA?9?$AAm?$AAs?$AA?9?$AAw?$AAi?$AAn?$AA?9?$AAc?$AAo?$AAr?$AAe?$AA?9?$AAd?$AAa?$AAt?$AAe?$AAt?$AAi?$AAm?$AAe?$AA?9?$AAl?$AA1?$AA?9?$AA1?$AA?9?$AA1?$AA?$AA@ 000000018003bea0     libucrt:winapi_thunks.obj
 0002:00006ee0       ??_C@_1DI@GCIAAENM@?$AAa?$AAp?$AAi?$AA?9?$AAm?$AAs?$AA?9?$AAw?$AAi?$AAn?$AA?9?$AAc?$AAo?$AAr?$AAe?$AA?9?$AAf?$AAi?$AAl?$AAe?$AA?9?$AAl?$AA2?$AA?9?$AA1?$AA?9?$AA1?$AA?$AA@ 000000018003bee0     libucrt:winapi_thunks.obj
 0002:00006f20       ??_C@_1EI@MPIAOHOC@?$AAa?$AAp?$AAi?$AA?9?$AAm?$AAs?$AA?9?$AAw?$AAi?$AAn?$AA?9?$AAc?$AAo?$AAr?$AAe?$AA?9?$AAl?$AAo?$AAc?$AAa?$AAl?$AAi?$AAz?$AAa?$AAt?$AAi?$AAo?$AAn?$AA?9?$AAl?$AA1?$AA?9@ 000000018003bf20     libucrt:winapi_thunks.obj
 0002:00006f70       ??_C@_1FK@FPHCKFIE@?$AAa?$AAp?$AAi?$AA?9?$AAm?$AAs?$AA?9?$AAw?$AAi?$AAn?$AA?9?$AAc?$AAo?$AAr?$AAe?$AA?9?$AAl?$AAo?$AAc?$AAa?$AAl?$AAi?$AAz?$AAa?$AAt?$AAi?$AAo?$AAn?$AA?9?$AAo?$AAb?$AAs@ 000000018003bf70     libucrt:winapi_thunks.obj
 0002:00006fd0       ??_C@_1EM@DILCGIIO@?$AAa?$AAp?$AAi?$AA?9?$AAm?$AAs?$AA?9?$AAw?$AAi?$AAn?$AA?9?$AAc?$AAo?$AAr?$AAe?$AA?9?$AAp?$AAr?$AAo?$AAc?$AAe?$AAs?$AAs?$AAt?$AAh?$AAr?$AAe?$AAa?$AAd?$AAs?$AA?9?$AAl@ 000000018003bfd0     libucrt:winapi_thunks.obj
 0002:00007020       ??_C@_1DM@LNCGDDPN@?$AAa?$AAp?$AAi?$AA?9?$AAm?$AAs?$AA?9?$AAw?$AAi?$AAn?$AA?9?$AAc?$AAo?$AAr?$AAe?$AA?9?$AAs?$AAt?$AAr?$AAi?$AAn?$AAg?$AA?9?$AAl?$AA1?$AA?9?$AA1?$AA?9?$AA0?$AA?$AA@ 000000018003c020     libucrt:winapi_thunks.obj
 0002:00007060       ??_C@_1DO@FPAPJEMD@?$AAa?$AAp?$AAi?$AA?9?$AAm?$AAs?$AA?9?$AAw?$AAi?$AAn?$AA?9?$AAc?$AAo?$AAr?$AAe?$AA?9?$AAs?$AAy?$AAs?$AAi?$AAn?$AAf?$AAo?$AA?9?$AAl?$AA1?$AA?9?$AA2?$AA?9?$AA1?$AA?$AA@ 000000018003c060     libucrt:winapi_thunks.obj
 0002:000070a0       ??_C@_1DK@NDHNAHIO@?$AAa?$AAp?$AAi?$AA?9?$AAm?$AAs?$AA?9?$AAw?$AAi?$AAn?$AA?9?$AAc?$AAo?$AAr?$AAe?$AA?9?$AAw?$AAi?$AAn?$AAr?$AAt?$AA?9?$AAl?$AA1?$AA?9?$AA1?$AA?9?$AA0?$AA?$AA@ 000000018003c0a0     libucrt:winapi_thunks.obj
 0002:000070e0       ??_C@_1DM@KGHDGBCM@?$AAa?$AAp?$AAi?$AA?9?$AAm?$AAs?$AA?9?$AAw?$AAi?$AAn?$AA?9?$AAc?$AAo?$AAr?$AAe?$AA?9?$AAx?$AAs?$AAt?$AAa?$AAt?$AAe?$AA?9?$AAl?$AA2?$AA?9?$AA1?$AA?9?$AA0?$AA?$AA@ 000000018003c0e0     libucrt:winapi_thunks.obj
 0002:00007120       ??_C@_1EO@IJIOEFOH@?$AAa?$AAp?$AAi?$AA?9?$AAm?$AAs?$AA?9?$AAw?$AAi?$AAn?$AA?9?$AAr?$AAt?$AAc?$AAo?$AAr?$AAe?$AA?9?$AAn?$AAt?$AAu?$AAs?$AAe?$AAr?$AA?9?$AAw?$AAi?$AAn?$AAd?$AAo?$AAw?$AA?9@ 000000018003c120     libucrt:winapi_thunks.obj
 0002:00007170       ??_C@_1FG@HHGEKANL@?$AAa?$AAp?$AAi?$AA?9?$AAm?$AAs?$AA?9?$AAw?$AAi?$AAn?$AA?9?$AAs?$AAe?$AAc?$AAu?$AAr?$AAi?$AAt?$AAy?$AA?9?$AAs?$AAy?$AAs?$AAt?$AAe?$AAm?$AAf?$AAu?$AAn?$AAc?$AAt?$AAi@ 000000018003c170     libucrt:winapi_thunks.obj
 0002:000071d0       ??_C@_1FG@NCKKOLKO@?$AAe?$AAx?$AAt?$AA?9?$AAm?$AAs?$AA?9?$AAw?$AAi?$AAn?$AA?9?$AAk?$AAe?$AAr?$AAn?$AAe?$AAl?$AA3?$AA2?$AA?9?$AAp?$AAa?$AAc?$AAk?$AAa?$AAg?$AAe?$AA?9?$AAc?$AAu?$AAr?$AAr@ 000000018003c1d0     libucrt:winapi_thunks.obj
 0002:00007230       ??_C@_1EG@DBIOJECG@?$AAe?$AAx?$AAt?$AA?9?$AAm?$AAs?$AA?9?$AAw?$AAi?$AAn?$AA?9?$AAn?$AAt?$AAu?$AAs?$AAe?$AAr?$AA?9?$AAd?$AAi?$AAa?$AAl?$AAo?$AAg?$AAb?$AAo?$AAx?$AA?9?$AAl?$AA1?$AA?9?$AA1@ 000000018003c230     libucrt:winapi_thunks.obj
 0002:00007280       ??_C@_1EO@FIHMJCLF@?$AAe?$AAx?$AAt?$AA?9?$AAm?$AAs?$AA?9?$AAw?$AAi?$AAn?$AA?9?$AAn?$AAt?$AAu?$AAs?$AAe?$AAr?$AA?9?$AAw?$AAi?$AAn?$AAd?$AAo?$AAw?$AAs?$AAt?$AAa?$AAt?$AAi?$AAo?$AAn?$AA?9@ 000000018003c280     libucrt:winapi_thunks.obj
 0002:000072d0       ??_C@_1O@BCCLBEOE@?$AAu?$AAs?$AAe?$AAr?$AA3?$AA2?$AA?$AA@ 000000018003c2d0     libucrt:winapi_thunks.obj
 0002:000072f0       ??_C@_0BE@LJANKFHF@EnumSystemLocalesEx?$AA@ 000000018003c2f0     libucrt:winapi_thunks.obj
 0002:00007340       ??_C@_0BJ@PBCCBIPI@GetUserDefaultLocaleName?$AA@ 000000018003c340     libucrt:winapi_thunks.obj
 0002:00007370       ??_C@_0BC@CELBKLLA@IsValidLocaleName?$AA@ 000000018003c370     libucrt:winapi_thunks.obj
 0002:00007398       ??_C@_0BB@CDHDDLLP@LCIDToLocaleName?$AA@ 000000018003c398     libucrt:winapi_thunks.obj
 0002:000073b8       ??_C@_0BB@HBDEELFH@LocaleNameToLCID?$AA@ 000000018003c3b8     libucrt:winapi_thunks.obj
 0002:000073cc       ??_C@_03OEIAHPBN@INF?$AA@  000000018003c3cc     libucrt:cvt.obj
 0002:000073d0       ??_C@_03OJHLLCGB@inf?$AA@  000000018003c3d0     libucrt:cvt.obj
 0002:000073d4       ??_C@_03LKNCIKJB@NAN?$AA@  000000018003c3d4     libucrt:cvt.obj
 0002:000073d8       ??_C@_03LHCJEHON@nan?$AA@  000000018003c3d8     libucrt:cvt.obj
 0002:000073e0       ??_C@_09OFJJIMPC@NAN?$CISNAN?$CJ?$AA@ 000000018003c3e0     libucrt:cvt.obj
 0002:000073f0       ??_C@_09IPFBKMDL@nan?$CIsnan?$CJ?$AA@ 000000018003c3f0     libucrt:cvt.obj
 0002:00007400       ??_C@_08IKHNHAJ@NAN?$CIIND?$CJ?$AA@ 000000018003c400     libucrt:cvt.obj
 0002:00007410       ??_C@_08OFCDMILK@nan?$CIind?$CJ?$AA@ 000000018003c410     libucrt:cvt.obj
 0002:0000741c       ??_C@_05KLBDPFGC@e?$CL000?$AA@ 000000018003c41c     libucrt:cvt.obj
 0002:00007430       __lc_category              000000018003c430     libucrt:wsetlocale.obj
 0002:000074c0       ??_C@_1O@GIFLHMA@?$AAL?$AAC?$AA_?$AAA?$AAL?$AAL?$AA?$AA@ 000000018003c4c0     libucrt:wsetlocale.obj
 0002:000074d0       ??_C@_1BG@PPOMIBNJ@?$AAL?$AAC?$AA_?$AAC?$AAO?$AAL?$AAL?$AAA?$AAT?$AAE?$AA?$AA@ 000000018003c4d0     libucrt:wsetlocale.obj
 0002:000074e8       ??_C@_1BC@FFJGAPJM@?$AAL?$AAC?$AA_?$AAC?$AAT?$AAY?$AAP?$AAE?$AA?$AA@ 000000018003c4e8     libucrt:wsetlocale.obj
 0002:00007500       ??_C@_1BI@PCKFNJFB@?$AAL?$AAC?$AA_?$AAM?$AAO?$AAN?$AAE?$AAT?$AAA?$AAR?$AAY?$AA?$AA@ 000000018003c500     libucrt:wsetlocale.obj
 0002:00007518       ??_C@_1BG@ENIEDKID@?$AAL?$AAC?$AA_?$AAN?$AAU?$AAM?$AAE?$AAR?$AAI?$AAC?$AA?$AA@ 000000018003c518     libucrt:wsetlocale.obj
 0002:00007530       ??_C@_1BA@HAAOMIIG@?$AAL?$AAC?$AA_?$AAT?$AAI?$AAM?$AAE?$AA?$AA@ 000000018003c530     libucrt:wsetlocale.obj
 0002:000075c0       ??_C@_15NBPDDFIP@?$AA?$DN?$AA?$DL?$AA?$AA@ 000000018003c5c0     libucrt:wsetlocale.obj
 0002:000075c8       ??_C@_13PJJBFPED@?$AA?$DL?$AA?$AA@ 000000018003c5c8     libucrt:wsetlocale.obj
 0002:000075cc       ??_C@_13NMPKAAJP@?$AA?$DN?$AA?$AA@ 000000018003c5cc     libucrt:wsetlocale.obj
 0002:000075d0       ??_C@_13FHBKNHDA@?$AAC?$AA?$AA@ 000000018003c5d0     libucrt:wsetlocale.obj
 0002:000075d8       ??_C@_17MBJJLFDM@?$AA_?$AA?4?$AA?0?$AA?$AA@ 000000018003c5d8     libucrt:wsetlocale.obj
 0002:000075e0       ??_C@_13ENNFDPBH@?$AA_?$AA?$AA@ 000000018003c5e0     libucrt:wsetlocale.obj
 0002:000075e4       ??_C@_13JOFGPIOO@?$AA?4?$AA?$AA@ 000000018003c5e4     libucrt:wsetlocale.obj
 0002:000075f0       __lc_time_c                000000018003c5f0     libucrt:nlsdata.obj
 0002:000078b0       ??_C@_03KOEHGMDN@Sun?$AA@  000000018003c8b0     libucrt:nlsdata.obj
 0002:000078b4       ??_C@_03PDAGKDH@Mon?$AA@   000000018003c8b4     libucrt:nlsdata.obj
 0002:000078b8       ??_C@_03NAGEINEP@Tue?$AA@  000000018003c8b8     libucrt:nlsdata.obj
 0002:000078bc       ??_C@_03MHOMLAJA@Wed?$AA@  000000018003c8bc     libucrt:nlsdata.obj
 0002:000078c0       ??_C@_03IOFIKPDN@Thu?$AA@  000000018003c8c0     libucrt:nlsdata.obj
 0002:000078c4       ??_C@_03IDIOELNC@Fri?$AA@  000000018003c8c4     libucrt:nlsdata.obj
 0002:000078c8       ??_C@_03FEFJNEK@Sat?$AA@   000000018003c8c8     libucrt:nlsdata.obj
 0002:000078cc       ??_C@_06OOPIFAJ@Sunday?$AA@ 000000018003c8cc     libucrt:nlsdata.obj
 0002:000078d4       ??_C@_06JLEDEDGH@Monday?$AA@ 000000018003c8d4     libucrt:nlsdata.obj
 0002:000078e0       ??_C@_07BAAGCFCM@Tuesday?$AA@ 000000018003c8e0     libucrt:nlsdata.obj
 0002:000078e8       ??_C@_09DLIGFAKA@Wednesday?$AA@ 000000018003c8e8     libucrt:nlsdata.obj
 0002:000078f8       ??_C@_08HACCIKIA@Thursday?$AA@ 000000018003c8f8     libucrt:nlsdata.obj
 0002:00007904       ??_C@_06JECMNKMI@Friday?$AA@ 000000018003c904     libucrt:nlsdata.obj
 0002:00007910       ??_C@_08INBOOONO@Saturday?$AA@ 000000018003c910     libucrt:nlsdata.obj
 0002:0000791c       ??_C@_03JIHJHPIE@Jan?$AA@  000000018003c91c     libucrt:nlsdata.obj
 0002:00007920       ??_C@_03HJBDCHOM@Feb?$AA@  000000018003c920     libucrt:nlsdata.obj
 0002:00007924       ??_C@_03ODNJBKGA@Mar?$AA@  000000018003c924     libucrt:nlsdata.obj
 0002:00007928       ??_C@_03LEOLGMJP@Apr?$AA@  000000018003c928     libucrt:nlsdata.obj
 0002:0000792c       ??_C@_03CNMDKL@May?$AA@    000000018003c92c     libucrt:nlsdata.obj
 0002:00007930       ??_C@_03IDFGHECI@Jun?$AA@  000000018003c930     libucrt:nlsdata.obj
 0002:00007934       ??_C@_03LBGABGKK@Jul?$AA@  000000018003c934     libucrt:nlsdata.obj
 0002:00007938       ??_C@_03IFJFEIGA@Aug?$AA@  000000018003c938     libucrt:nlsdata.obj
 0002:0000793c       ??_C@_03GGCAPAJC@Sep?$AA@  000000018003c93c     libucrt:nlsdata.obj
 0002:00007940       ??_C@_03BMAOKBAD@Oct?$AA@  000000018003c940     libucrt:nlsdata.obj
 0002:00007944       ??_C@_03JPJOFNIA@Nov?$AA@  000000018003c944     libucrt:nlsdata.obj
 0002:00007948       ??_C@_03MKABNOCG@Dec?$AA@  000000018003c948     libucrt:nlsdata.obj
 0002:00007950       ??_C@_07CGJPFGJA@January?$AA@ 000000018003c950     libucrt:nlsdata.obj
 0002:00007958       ??_C@_08GNJGEPFN@February?$AA@ 000000018003c958     libucrt:nlsdata.obj
 0002:00007964       ??_C@_05HPCKOFNC@March?$AA@ 000000018003c964     libucrt:nlsdata.obj
 0002:0000796c       ??_C@_05DMJDNLEJ@April?$AA@ 000000018003c96c     libucrt:nlsdata.obj
 0002:00007974       ??_C@_04CNLMGBGM@June?$AA@ 000000018003c974     libucrt:nlsdata.obj
 0002:0000797c       ??_C@_04MIEPOIFP@July?$AA@ 000000018003c97c     libucrt:nlsdata.obj
 0002:00007984       ??_C@_06LBBHFDDG@August?$AA@ 000000018003c984     libucrt:nlsdata.obj
 0002:00007990       ??_C@_09BHHEALKD@September?$AA@ 000000018003c990     libucrt:nlsdata.obj
 0002:000079a0       ??_C@_07JJNFCEND@October?$AA@ 000000018003c9a0     libucrt:nlsdata.obj
 0002:000079a8       ??_C@_08HCHEGEOA@November?$AA@ 000000018003c9a8     libucrt:nlsdata.obj
 0002:000079b8       ??_C@_08EDHMEBNP@December?$AA@ 000000018003c9b8     libucrt:nlsdata.obj
 0002:000079c4       ??_C@_02DEDBPAFC@AM?$AA@   000000018003c9c4     libucrt:nlsdata.obj
 0002:000079c8       ??_C@_02CJNFDJBF@PM?$AA@   000000018003c9c8     libucrt:nlsdata.obj
 0002:000079d0       ??_C@_08BPBNCDIB@MM?1dd?1yy?$AA@ 000000018003c9d0     libucrt:nlsdata.obj
 0002:000079e0       ??_C@_0BE@CKGJFCPC@dddd?0?5MMMM?5dd?0?5yyyy?$AA@ 000000018003c9e0     libucrt:nlsdata.obj
 0002:000079f8       ??_C@_08JCCMCCIL@HH?3mm?3ss?$AA@ 000000018003c9f8     libucrt:nlsdata.obj
 0002:00007a08       ??_C@_17MBGCMIPB@?$AAS?$AAu?$AAn?$AA?$AA@ 000000018003ca08     libucrt:nlsdata.obj
 0002:00007a10       ??_C@_17KBOMKBF@?$AAM?$AAo?$AAn?$AA?$AA@ 000000018003ca10     libucrt:nlsdata.obj
 0002:00007a18       ??_C@_17BMKGEGOJ@?$AAT?$AAu?$AAe?$AA?$AA@ 000000018003ca18     libucrt:nlsdata.obj
 0002:00007a20       ??_C@_17CJEDCEPE@?$AAW?$AAe?$AAd?$AA?$AA@ 000000018003ca20     libucrt:nlsdata.obj
 0002:00007a28       ??_C@_17PDPHAADD@?$AAT?$AAh?$AAu?$AA?$AA@ 000000018003ca28     libucrt:nlsdata.obj
 0002:00007a30       ??_C@_17HFOLPPLP@?$AAF?$AAr?$AAi?$AA?$AA@ 000000018003ca30     libucrt:nlsdata.obj
 0002:00007a38       ??_C@_17GGIBDPIH@?$AAS?$AAa?$AAt?$AA?$AA@ 000000018003ca38     libucrt:nlsdata.obj
 0002:00007a40       ??_C@_1O@IHNHDHPB@?$AAS?$AAu?$AAn?$AAd?$AAa?$AAy?$AA?$AA@ 000000018003ca40     libucrt:nlsdata.obj
 0002:00007a50       ??_C@_1O@MMNBFLIA@?$AAM?$AAo?$AAn?$AAd?$AAa?$AAy?$AA?$AA@ 000000018003ca50     libucrt:nlsdata.obj
 0002:00007a60       ??_C@_1BA@ENFBFFEK@?$AAT?$AAu?$AAe?$AAs?$AAd?$AAa?$AAy?$AA?$AA@ 000000018003ca60     libucrt:nlsdata.obj
 0002:00007a70       ??_C@_1BE@EBOGMDOH@?$AAW?$AAe?$AAd?$AAn?$AAe?$AAs?$AAd?$AAa?$AAy?$AA?$AA@ 000000018003ca70     libucrt:nlsdata.obj
 0002:00007a88       ??_C@_1BC@HHMNLIHE@?$AAT?$AAh?$AAu?$AAr?$AAs?$AAd?$AAa?$AAy?$AA?$AA@ 000000018003ca88     libucrt:nlsdata.obj
 0002:00007aa0       ??_C@_1O@PDICJHAG@?$AAF?$AAr?$AAi?$AAd?$AAa?$AAy?$AA?$AA@ 000000018003caa0     libucrt:nlsdata.obj
 0002:00007ab0       ??_C@_1BC@ENMNNPAJ@?$AAS?$AAa?$AAt?$AAu?$AAr?$AAd?$AAa?$AAy?$AA?$AA@ 000000018003cab0     libucrt:nlsdata.obj
 0002:00007ac8       ??_C@_17DKNBKCHM@?$AAJ?$AAa?$AAn?$AA?$AA@ 000000018003cac8     libucrt:nlsdata.obj
 0002:00007ad0       ??_C@_17LMDJEKJN@?$AAF?$AAe?$AAb?$AA?$AA@ 000000018003cad0     libucrt:nlsdata.obj
 0002:00007ad8       ??_C@_17CKNLEDEC@?$AAM?$AAa?$AAr?$AA?$AA@ 000000018003cad8     libucrt:nlsdata.obj
 0002:00007ae0       ??_C@_17LFPOIHDD@?$AAA?$AAp?$AAr?$AA?$AA@ 000000018003cae0     libucrt:nlsdata.obj
 0002:00007ae8       ??_C@_17PNNKMEED@?$AAM?$AAa?$AAy?$AA?$AA@ 000000018003cae8     libucrt:nlsdata.obj
 0002:00007af0       ??_C@_17KCJGOCPB@?$AAJ?$AAu?$AAn?$AA?$AA@ 000000018003caf0     libucrt:nlsdata.obj
 0002:00007af8       ??_C@_17IJPCKHK@?$AAJ?$AAu?$AAl?$AA?$AA@ 000000018003caf8     libucrt:nlsdata.obj
 0002:00007b00       ??_C@_17ICPELBCN@?$AAA?$AAu?$AAg?$AA?$AA@ 000000018003cb00     libucrt:nlsdata.obj
 0002:00007b08       ??_C@_17HCHCOKMG@?$AAS?$AAe?$AAp?$AA?$AA@ 000000018003cb08     libucrt:nlsdata.obj
 0002:00007b10       ??_C@_17FNLKOI@?$AAO?$AAc?$AAt?$AA?$AA@ 000000018003cb10     libucrt:nlsdata.obj
 0002:00007b18       ??_C@_17BBDMLCIG@?$AAN?$AAo?$AAv?$AA?$AA@ 000000018003cb18     libucrt:nlsdata.obj
 0002:00007b20       ??_C@_17EGKACKIF@?$AAD?$AAe?$AAc?$AA?$AA@ 000000018003cb20     libucrt:nlsdata.obj
 0002:00007b28       ??_C@_1BA@EFMEIEBA@?$AAJ?$AAa?$AAn?$AAu?$AAa?$AAr?$AAy?$AA?$AA@ 000000018003cb28     libucrt:nlsdata.obj
 0002:00007b38       ??_C@_1BC@JGDDFFAM@?$AAF?$AAe?$AAb?$AAr?$AAu?$AAa?$AAr?$AAy?$AA?$AA@ 000000018003cb38     libucrt:nlsdata.obj
 0002:00007b50       ??_C@_1M@IKEENEDF@?$AAM?$AAa?$AAr?$AAc?$AAh?$AA?$AA@ 000000018003cb50     libucrt:nlsdata.obj
 0002:00007b60       ??_C@_1M@GJNLMHFD@?$AAA?$AAp?$AAr?$AAi?$AAl?$AA?$AA@ 000000018003cb60     libucrt:nlsdata.obj
 0002:00007b70       ??_C@_19EPFLPGAP@?$AAJ?$AAu?$AAn?$AAe?$AA?$AA@ 000000018003cb70     libucrt:nlsdata.obj
 0002:00007b80       ??_C@_19BIFMLPCD@?$AAJ?$AAu?$AAl?$AAy?$AA?$AA@ 000000018003cb80     libucrt:nlsdata.obj
 0002:00007b90       ??_C@_1O@PAHLKOAC@?$AAA?$AAu?$AAg?$AAu?$AAs?$AAt?$AA?$AA@ 000000018003cb90     libucrt:nlsdata.obj
 0002:00007ba0       ??_C@_1BE@DKAAMBJL@?$AAS?$AAe?$AAp?$AAt?$AAe?$AAm?$AAb?$AAe?$AAr?$AA?$AA@ 000000018003cba0     libucrt:nlsdata.obj
 0002:00007bb8       ??_C@_1BA@EPANDLNG@?$AAO?$AAc?$AAt?$AAo?$AAb?$AAe?$AAr?$AA?$AA@ 000000018003cbb8     libucrt:nlsdata.obj
 0002:00007bc8       ??_C@_1BC@BGLIFPF@?$AAN?$AAo?$AAv?$AAe?$AAm?$AAb?$AAe?$AAr?$AA?$AA@ 000000018003cbc8     libucrt:nlsdata.obj
 0002:00007be0       ??_C@_1BC@FEMKIFH@?$AAD?$AAe?$AAc?$AAe?$AAm?$AAb?$AAe?$AAr?$AA?$AA@ 000000018003cbe0     libucrt:nlsdata.obj
 0002:00007bf4       ??_C@_15ODEHAHHF@?$AAA?$AAM?$AA?$AA@ 000000018003cbf4     libucrt:nlsdata.obj
 0002:00007bfc       ??_C@_15CLMNNGEL@?$AAP?$AAM?$AA?$AA@ 000000018003cbfc     libucrt:nlsdata.obj
 0002:00007c08       ??_C@_1BC@IEBCMHCM@?$AAM?$AAM?$AA?1?$AAd?$AAd?$AA?1?$AAy?$AAy?$AA?$AA@ 000000018003cc08     libucrt:nlsdata.obj
 0002:00007c20       ??_C@_1CI@KNAKOEBC@?$AAd?$AAd?$AAd?$AAd?$AA?0?$AA?5?$AAM?$AAM?$AAM?$AAM?$AA?5?$AAd?$AAd?$AA?0?$AA?5?$AAy?$AAy?$AAy?$AAy?$AA?$AA@ 000000018003cc20     libucrt:nlsdata.obj
 0002:00007c48       ??_C@_1BC@GDGBMEMK@?$AAH?$AAH?$AA?3?$AAm?$AAm?$AA?3?$AAs?$AAs?$AA?$AA@ 000000018003cc48     libucrt:nlsdata.obj
 0002:00007e30       ??_C@_03KHJOGHMM@exp?$AA@  000000018003ce30     libucrt:fpexcept.obj
 0002:00007e34       ??_C@_03JGHBODFD@pow?$AA@  000000018003ce34     libucrt:fpexcept.obj
 0002:00007e38       ??_C@_03MGHMBJCF@log?$AA@  000000018003ce38     libucrt:fpexcept.obj
 0002:00007e3c       ??_C@_05HGHHAHAP@log10?$AA@ 000000018003ce3c     libucrt:fpexcept.obj
 0002:00007e44       ??_C@_04COOMCNPB@sinh?$AA@ 000000018003ce44     libucrt:fpexcept.obj
 0002:00007e4c       ??_C@_04HPJJNFIM@cosh?$AA@ 000000018003ce4c     libucrt:fpexcept.obj
 0002:00007e54       ??_C@_04FJHINJAO@tanh?$AA@ 000000018003ce54     libucrt:fpexcept.obj
 0002:00007e5c       ??_C@_04FIHNOPOL@asin?$AA@ 000000018003ce5c     libucrt:fpexcept.obj
 0002:00007e64       ??_C@_04PDIFKINK@acos?$AA@ 000000018003ce64     libucrt:fpexcept.obj
 0002:00007e6c       ??_C@_04MLLJIGOK@atan?$AA@ 000000018003ce6c     libucrt:fpexcept.obj
 0002:00007e74       ??_C@_05KNGEOGJB@atan2?$AA@ 000000018003ce74     libucrt:fpexcept.obj
 0002:00007e7c       ??_C@_03BLEJJJBH@sin?$AA@  000000018003ce7c     libucrt:fpexcept.obj
 0002:00007e80       ??_C@_03LALBNOCG@cos?$AA@  000000018003ce80     libucrt:fpexcept.obj
 0002:00007e84       ??_C@_03IIINPABG@tan?$AA@  000000018003ce84     libucrt:fpexcept.obj
 0002:00007e88       ??_C@_04GFPJNGEK@ceil?$AA@ 000000018003ce88     libucrt:fpexcept.obj
 0002:00007e90       ??_C@_05PBJFFIGL@floor?$AA@ 000000018003ce90     libucrt:fpexcept.obj
 0002:00007e98       ??_C@_04ODHECPBC@fabs?$AA@ 000000018003ce98     libucrt:fpexcept.obj
 0002:00007ea0       ??_C@_04EHEDPDJG@modf?$AA@ 000000018003cea0     libucrt:fpexcept.obj
 0002:00007ea8       ??_C@_05CEJMAHNP@ldexp?$AA@ 000000018003cea8     libucrt:fpexcept.obj
 0002:00007eb0       ??_C@_05KBKMEMPO@_cabs?$AA@ 000000018003ceb0     libucrt:fpexcept.obj
 0002:00007eb8       ??_C@_06MEIMCGCF@_hypot?$AA@ 000000018003ceb8     libucrt:fpexcept.obj
 0002:00007ec0       ??_C@_04KEPJIHGP@fmod?$AA@ 000000018003cec0     libucrt:fpexcept.obj
 0002:00007ec8       ??_C@_05GKKHEGJL@frexp?$AA@ 000000018003cec8     libucrt:fpexcept.obj
 0002:00007ed0       ??_C@_03MJLDFKDL@_y0?$AA@  000000018003ced0     libucrt:fpexcept.obj
 0002:00007ed4       ??_C@_03NAKIGLHK@_y1?$AA@  000000018003ced4     libucrt:fpexcept.obj
 0002:00007ed8       ??_C@_03ONILCKOB@_yn?$AA@  000000018003ced8     libucrt:fpexcept.obj
 0002:00007edc       ??_C@_05JGDBENOH@_logb?$AA@ 000000018003cedc     libucrt:fpexcept.obj
 0002:00007ee8       ??_C@_0L@KDOEJCKC@_nextafter?$AA@ 000000018003cee8     libucrt:fpexcept.obj
 0002:00007ef8       _d_inf                     000000018003cef8     libucrt:util.obj
 0002:00007f00       _d_max                     000000018003cf00     libucrt:util.obj
 0002:00009c20       ?large_power_data@?1??multiply_by_power_of_ten@__crt_strtox@@YA_NAEAUbig_integer@2@I@Z@4QBIB 000000018003ec20     libucrt:cfout.obj
 0002:0000a530       ?large_power_indices@?1??multiply_by_power_of_ten@__crt_strtox@@YA_NAEAUbig_integer@2@I@Z@4QBUunpack_index@?1??12@YA_N0I@Z@B 000000018003f530     libucrt:cfout.obj
 0002:0000a5c8       ?small_powers_of_ten@?6??multiply_by_power_of_ten@__crt_strtox@@YA_NAEAUbig_integer@2@I@Z@4QBIB 000000018003f5c8     libucrt:cfout.obj
 0002:0000a5ec       ??_C@_01GBGANLPD@0?$AA@    000000018003f5ec     libucrt:cfout.obj
 0002:0000a5f0       ??_C@_05DNEBIAHO@1?$CDINF?$AA@ 000000018003f5f0     libucrt:cfout.obj
 0002:0000a5f8       ??_C@_06IMKFLFPG@1?$CDQNAN?$AA@ 000000018003f5f8     libucrt:cfout.obj
 0002:0000a600       ??_C@_06PGGFOGJG@1?$CDSNAN?$AA@ 000000018003f600     libucrt:cfout.obj
 0002:0000a608       ??_C@_05PHHOCPM@1?$CDIND?$AA@ 000000018003f608     libucrt:cfout.obj
 0002:0000a610       __acrt_rg_language         000000018003f610     libucrt:get_qualified_locale.obj
 0002:0000aa20       __acrt_rg_language_count   000000018003fa20     libucrt:get_qualified_locale.obj
 0002:0000aa30       __acrt_rg_country          000000018003fa30     libucrt:get_qualified_locale.obj
 0002:0000aba0       __acrt_rg_country_count    000000018003fba0     libucrt:get_qualified_locale.obj
 0002:0000aba8       ??_C@_1BC@LLOKLNP@?$AAa?$AAm?$AAe?$AAr?$AAi?$AAc?$AAa?$AAn?$AA?$AA@ 000000018003fba8     libucrt:get_qualified_locale.obj
 0002:0000abc0       ??_C@_1CC@HEIGCDGG@?$AAa?$AAm?$AAe?$AAr?$AAi?$AAc?$AAa?$AAn?$AA?5?$AAe?$AAn?$AAg?$AAl?$AAi?$AAs?$AAh?$AA?$AA@ 000000018003fbc0     libucrt:get_qualified_locale.obj
 0002:0000abe8       ??_C@_1CC@IHCNOMIN@?$AAa?$AAm?$AAe?$AAr?$AAi?$AAc?$AAa?$AAn?$AA?9?$AAe?$AAn?$AAg?$AAl?$AAi?$AAs?$AAh?$AA?$AA@ 000000018003fbe8     libucrt:get_qualified_locale.obj
 0002:0000ac10       ??_C@_1BG@GKAGPCGG@?$AAa?$AAu?$AAs?$AAt?$AAr?$AAa?$AAl?$AAi?$AAa?$AAn?$AA?$AA@ 000000018003fc10     libucrt:get_qualified_locale.obj
 0002:0000ac28       ??_C@_1BA@GMENCENF@?$AAb?$AAe?$AAl?$AAg?$AAi?$AAa?$AAn?$AA?$AA@ 000000018003fc28     libucrt:get_qualified_locale.obj
 0002:0000ac38       ??_C@_1BC@PJMIIAAN@?$AAc?$AAa?$AAn?$AAa?$AAd?$AAi?$AAa?$AAn?$AA?$AA@ 000000018003fc38     libucrt:get_qualified_locale.obj
 0002:0000ac50       ??_C@_17NOIMNFBF@?$AAc?$AAh?$AAh?$AA?$AA@ 000000018003fc50     libucrt:get_qualified_locale.obj
 0002:0000ac58       ??_C@_17GGDALCHA@?$AAc?$AAh?$AAi?$AA?$AA@ 000000018003fc58     libucrt:get_qualified_locale.obj
 0002:0000ac60       ??_C@_1BA@NPNJKIBL@?$AAc?$AAh?$AAi?$AAn?$AAe?$AAs?$AAe?$AA?$AA@ 000000018003fc60     libucrt:get_qualified_locale.obj
 0002:0000ac70       ??_C@_1CC@DINBAMMJ@?$AAc?$AAh?$AAi?$AAn?$AAe?$AAs?$AAe?$AA?9?$AAh?$AAo?$AAn?$AAg?$AAk?$AAo?$AAn?$AAg?$AA?$AA@ 000000018003fc70     libucrt:get_qualified_locale.obj
 0002:0000ac98       ??_C@_1CG@IOBJPACO@?$AAc?$AAh?$AAi?$AAn?$AAe?$AAs?$AAe?$AA?9?$AAs?$AAi?$AAm?$AAp?$AAl?$AAi?$AAf?$AAi?$AAe?$AAd?$AA?$AA@ 000000018003fc98     libucrt:get_qualified_locale.obj
 0002:0000acc0       ??_C@_1CE@GAJNDCKG@?$AAc?$AAh?$AAi?$AAn?$AAe?$AAs?$AAe?$AA?9?$AAs?$AAi?$AAn?$AAg?$AAa?$AAp?$AAo?$AAr?$AAe?$AA?$AA@ 000000018003fcc0     libucrt:get_qualified_locale.obj
 0002:0000ace8       ??_C@_1CI@PAJPIOOD@?$AAc?$AAh?$AAi?$AAn?$AAe?$AAs?$AAe?$AA?9?$AAt?$AAr?$AAa?$AAd?$AAi?$AAt?$AAi?$AAo?$AAn?$AAa?$AAl?$AA?$AA@ 000000018003fce8     libucrt:get_qualified_locale.obj
 0002:0000ad10       ??_C@_1BM@NILJBMMD@?$AAd?$AAu?$AAt?$AAc?$AAh?$AA?9?$AAb?$AAe?$AAl?$AAg?$AAi?$AAa?$AAn?$AA?$AA@ 000000018003fd10     libucrt:get_qualified_locale.obj
 0002:0000ad30       ??_C@_1CC@OOJPJNEJ@?$AAe?$AAn?$AAg?$AAl?$AAi?$AAs?$AAh?$AA?9?$AAa?$AAm?$AAe?$AAr?$AAi?$AAc?$AAa?$AAn?$AA?$AA@ 000000018003fd30     libucrt:get_qualified_locale.obj
 0002:0000ad58       ??_C@_1BI@IOLFEEM@?$AAe?$AAn?$AAg?$AAl?$AAi?$AAs?$AAh?$AA?9?$AAa?$AAu?$AAs?$AA?$AA@ 000000018003fd58     libucrt:get_qualified_locale.obj
 0002:0000ad70       ??_C@_1BO@HFFNLENJ@?$AAe?$AAn?$AAg?$AAl?$AAi?$AAs?$AAh?$AA?9?$AAb?$AAe?$AAl?$AAi?$AAz?$AAe?$AA?$AA@ 000000018003fd70     libucrt:get_qualified_locale.obj
 0002:0000ad90       ??_C@_1BI@HAPKJMPO@?$AAe?$AAn?$AAg?$AAl?$AAi?$AAs?$AAh?$AA?9?$AAc?$AAa?$AAn?$AA?$AA@ 000000018003fd90     libucrt:get_qualified_locale.obj
 0002:0000ada8       ??_C@_1CE@HLNDMIOJ@?$AAe?$AAn?$AAg?$AAl?$AAi?$AAs?$AAh?$AA?9?$AAc?$AAa?$AAr?$AAi?$AAb?$AAb?$AAe?$AAa?$AAn?$AA?$AA@ 000000018003fda8     libucrt:get_qualified_locale.obj
 0002:0000add0       ??_C@_1BI@LDHJHHAC@?$AAe?$AAn?$AAg?$AAl?$AAi?$AAs?$AAh?$AA?9?$AAi?$AAr?$AAe?$AA?$AA@ 000000018003fdd0     libucrt:get_qualified_locale.obj
 0002:0000ade8       ??_C@_1CA@NJMMCFOC@?$AAe?$AAn?$AAg?$AAl?$AAi?$AAs?$AAh?$AA?9?$AAj?$AAa?$AAm?$AAa?$AAi?$AAc?$AAa?$AA?$AA@ 000000018003fde8     libucrt:get_qualified_locale.obj
 0002:0000ae08       ??_C@_1BG@BHJEBBGG@?$AAe?$AAn?$AAg?$AAl?$AAi?$AAs?$AAh?$AA?9?$AAn?$AAz?$AA?$AA@ 000000018003fe08     libucrt:get_qualified_locale.obj
 0002:0000ae20       ??_C@_1CK@FGOEJJCO@?$AAe?$AAn?$AAg?$AAl?$AAi?$AAs?$AAh?$AA?9?$AAs?$AAo?$AAu?$AAt?$AAh?$AA?5?$AAa?$AAf?$AAr?$AAi?$AAc?$AAa?$AA?$AA@ 000000018003fe20     libucrt:get_qualified_locale.obj
 0002:0000ae50       ??_C@_1DE@PDBJPCJ@?$AAe?$AAn?$AAg?$AAl?$AAi?$AAs?$AAh?$AA?9?$AAt?$AAr?$AAi?$AAn?$AAi?$AAd?$AAa?$AAd?$AA?5?$AAy?$AA?5?$AAt?$AAo?$AAb?$AAa?$AAg?$AAo?$AA?$AA@ 000000018003fe50     libucrt:get_qualified_locale.obj
 0002:0000ae88       ??_C@_1BG@JGCANDME@?$AAe?$AAn?$AAg?$AAl?$AAi?$AAs?$AAh?$AA?9?$AAu?$AAk?$AA?$AA@ 000000018003fe88     libucrt:get_qualified_locale.obj
 0002:0000aea0       ??_C@_1BG@DINKMLE@?$AAe?$AAn?$AAg?$AAl?$AAi?$AAs?$AAh?$AA?9?$AAu?$AAs?$AA?$AA@ 000000018003fea0     libucrt:get_qualified_locale.obj
 0002:0000aeb8       ??_C@_1BI@NMFDBHJE@?$AAe?$AAn?$AAg?$AAl?$AAi?$AAs?$AAh?$AA?9?$AAu?$AAs?$AAa?$AA?$AA@ 000000018003feb8     libucrt:get_qualified_locale.obj
 0002:0000aed0       ??_C@_1BO@OIHKJKII@?$AAf?$AAr?$AAe?$AAn?$AAc?$AAh?$AA?9?$AAb?$AAe?$AAl?$AAg?$AAi?$AAa?$AAn?$AA?$AA@ 000000018003fed0     libucrt:get_qualified_locale.obj
 0002:0000aef0       ??_C@_1CA@NKAELJKI@?$AAf?$AAr?$AAe?$AAn?$AAc?$AAh?$AA?9?$AAc?$AAa?$AAn?$AAa?$AAd?$AAi?$AAa?$AAn?$AA?$AA@ 000000018003fef0     libucrt:get_qualified_locale.obj
 0002:0000af10       ??_C@_1CE@MGKCNLGN@?$AAf?$AAr?$AAe?$AAn?$AAc?$AAh?$AA?9?$AAl?$AAu?$AAx?$AAe?$AAm?$AAb?$AAo?$AAu?$AAr?$AAg?$AA?$AA@ 000000018003ff10     libucrt:get_qualified_locale.obj
 0002:0000af38       ??_C@_1BK@CEGEAILM@?$AAf?$AAr?$AAe?$AAn?$AAc?$AAh?$AA?9?$AAs?$AAw?$AAi?$AAs?$AAs?$AA?$AA@ 000000018003ff38     libucrt:get_qualified_locale.obj
 0002:0000af58       ??_C@_1CA@PAFKEOCC@?$AAg?$AAe?$AAr?$AAm?$AAa?$AAn?$AA?9?$AAa?$AAu?$AAs?$AAt?$AAr?$AAi?$AAa?$AAn?$AA?$AA@ 000000018003ff58     libucrt:get_qualified_locale.obj
 0002:0000af78       ??_C@_1CI@HCFHGOFD@?$AAg?$AAe?$AAr?$AAm?$AAa?$AAn?$AA?9?$AAl?$AAi?$AAc?$AAh?$AAt?$AAe?$AAn?$AAs?$AAt?$AAe?$AAi?$AAn?$AA?$AA@ 000000018003ff78     libucrt:get_qualified_locale.obj
 0002:0000afa0       ??_C@_1CE@FEDDNPDG@?$AAg?$AAe?$AAr?$AAm?$AAa?$AAn?$AA?9?$AAl?$AAu?$AAx?$AAe?$AAm?$AAb?$AAo?$AAu?$AAr?$AAg?$AA?$AA@ 000000018003ffa0     libucrt:get_qualified_locale.obj
 0002:0000afc8       ??_C@_1BK@LIMINNMN@?$AAg?$AAe?$AAr?$AAm?$AAa?$AAn?$AA?9?$AAs?$AAw?$AAi?$AAs?$AAs?$AA?$AA@ 000000018003ffc8     libucrt:get_qualified_locale.obj
 0002:0000afe8       ??_C@_1BM@LGMDBEPD@?$AAi?$AAr?$AAi?$AAs?$AAh?$AA?9?$AAe?$AAn?$AAg?$AAl?$AAi?$AAs?$AAh?$AA?$AA@ 000000018003ffe8     libucrt:get_qualified_locale.obj
 0002:0000b008       ??_C@_1BM@NNCFBAEE@?$AAi?$AAt?$AAa?$AAl?$AAi?$AAa?$AAn?$AA?9?$AAs?$AAw?$AAi?$AAs?$AAs?$AA?$AA@ 0000000180040008     libucrt:get_qualified_locale.obj
 0002:0000b028       ??_C@_1BE@FEDJNPIB@?$AAn?$AAo?$AAr?$AAw?$AAe?$AAg?$AAi?$AAa?$AAn?$AA?$AA@ 0000000180040028     libucrt:get_qualified_locale.obj
 0002:0000b040       ??_C@_1CC@CILKDEIE@?$AAn?$AAo?$AAr?$AAw?$AAe?$AAg?$AAi?$AAa?$AAn?$AA?9?$AAb?$AAo?$AAk?$AAm?$AAa?$AAl?$AA?$AA@ 0000000180040040     libucrt:get_qualified_locale.obj
 0002:0000b068       ??_C@_1CE@DHMMHEPL@?$AAn?$AAo?$AAr?$AAw?$AAe?$AAg?$AAi?$AAa?$AAn?$AA?9?$AAn?$AAy?$AAn?$AAo?$AAr?$AAs?$AAk?$AA?$AA@ 0000000180040068     libucrt:get_qualified_locale.obj
 0002:0000b090       ??_C@_1CK@OPNMHECD@?$AAp?$AAo?$AAr?$AAt?$AAu?$AAg?$AAu?$AAe?$AAs?$AAe?$AA?9?$AAb?$AAr?$AAa?$AAz?$AAi?$AAl?$AAi?$AAa?$AAn?$AA?$AA@ 0000000180040090     libucrt:get_qualified_locale.obj
 0002:0000b0c0       ??_C@_1CE@KEEHCDB@?$AAs?$AAp?$AAa?$AAn?$AAi?$AAs?$AAh?$AA?9?$AAa?$AAr?$AAg?$AAe?$AAn?$AAt?$AAi?$AAn?$AAa?$AA?$AA@ 00000001800400c0     libucrt:get_qualified_locale.obj
 0002:0000b0e8       ??_C@_1CA@GIAOLHJD@?$AAs?$AAp?$AAa?$AAn?$AAi?$AAs?$AAh?$AA?9?$AAb?$AAo?$AAl?$AAi?$AAv?$AAi?$AAa?$AA?$AA@ 00000001800400e8     libucrt:get_qualified_locale.obj
 0002:0000b108       ??_C@_1BM@OJNDFNPD@?$AAs?$AAp?$AAa?$AAn?$AAi?$AAs?$AAh?$AA?9?$AAc?$AAh?$AAi?$AAl?$AAe?$AA?$AA@ 0000000180040108     libucrt:get_qualified_locale.obj
 0002:0000b128       ??_C@_1CC@OCOLPALL@?$AAs?$AAp?$AAa?$AAn?$AAi?$AAs?$AAh?$AA?9?$AAc?$AAo?$AAl?$AAo?$AAm?$AAb?$AAi?$AAa?$AA?$AA@ 0000000180040128     libucrt:get_qualified_locale.obj
 0002:0000b150       ??_C@_1CG@BPOFMKBB@?$AAs?$AAp?$AAa?$AAn?$AAi?$AAs?$AAh?$AA?9?$AAc?$AAo?$AAs?$AAt?$AAa?$AA?5?$AAr?$AAi?$AAc?$AAa?$AA?$AA@ 0000000180040150     libucrt:get_qualified_locale.obj
 0002:0000b178       ??_C@_1DG@IGOBAPBB@?$AAs?$AAp?$AAa?$AAn?$AAi?$AAs?$AAh?$AA?9?$AAd?$AAo?$AAm?$AAi?$AAn?$AAi?$AAc?$AAa?$AAn?$AA?5?$AAr?$AAe?$AAp?$AAu?$AAb?$AAl?$AAi?$AAc?$AA?$AA@ 0000000180040178     libucrt:get_qualified_locale.obj
 0002:0000b1b0       ??_C@_1CA@JHAPGEGI@?$AAs?$AAp?$AAa?$AAn?$AAi?$AAs?$AAh?$AA?9?$AAe?$AAc?$AAu?$AAa?$AAd?$AAo?$AAr?$AA?$AA@ 00000001800401b0     libucrt:get_qualified_locale.obj
 0002:0000b1d0       ??_C@_1CI@LAPALJPP@?$AAs?$AAp?$AAa?$AAn?$AAi?$AAs?$AAh?$AA?9?$AAe?$AAl?$AA?5?$AAs?$AAa?$AAl?$AAv?$AAa?$AAd?$AAo?$AAr?$AA?$AA@ 00000001800401d0     libucrt:get_qualified_locale.obj
 0002:0000b1f8       ??_C@_1CE@PDGBOFOM@?$AAs?$AAp?$AAa?$AAn?$AAi?$AAs?$AAh?$AA?9?$AAg?$AAu?$AAa?$AAt?$AAe?$AAm?$AAa?$AAl?$AAa?$AA?$AA@ 00000001800401f8     libucrt:get_qualified_locale.obj
 0002:0000b220       ??_C@_1CC@NBEBAODI@?$AAs?$AAp?$AAa?$AAn?$AAi?$AAs?$AAh?$AA?9?$AAh?$AAo?$AAn?$AAd?$AAu?$AAr?$AAa?$AAs?$AA?$AA@ 0000000180040220     libucrt:get_qualified_locale.obj
 0002:0000b248       ??_C@_1CA@LLKGHBMF@?$AAs?$AAp?$AAa?$AAn?$AAi?$AAs?$AAh?$AA?9?$AAm?$AAe?$AAx?$AAi?$AAc?$AAa?$AAn?$AA?$AA@ 0000000180040248     libucrt:get_qualified_locale.obj
 0002:0000b268       ??_C@_1BO@LKNDOIGD@?$AAs?$AAp?$AAa?$AAn?$AAi?$AAs?$AAh?$AA?9?$AAm?$AAo?$AAd?$AAe?$AAr?$AAn?$AA?$AA@ 0000000180040268     libucrt:get_qualified_locale.obj
 0002:0000b288       ??_C@_1CE@NMDMOEEB@?$AAs?$AAp?$AAa?$AAn?$AAi?$AAs?$AAh?$AA?9?$AAn?$AAi?$AAc?$AAa?$AAr?$AAa?$AAg?$AAu?$AAa?$AA?$AA@ 0000000180040288     libucrt:get_qualified_locale.obj
 0002:0000b2b0       ??_C@_1BO@LLCBEJGB@?$AAs?$AAp?$AAa?$AAn?$AAi?$AAs?$AAh?$AA?9?$AAp?$AAa?$AAn?$AAa?$AAm?$AAa?$AA?$AA@ 00000001800402b0     libucrt:get_qualified_locale.obj
 0002:0000b2d0       ??_C@_1CC@FKPGGIHO@?$AAs?$AAp?$AAa?$AAn?$AAi?$AAs?$AAh?$AA?9?$AAp?$AAa?$AAr?$AAa?$AAg?$AAu?$AAa?$AAy?$AA?$AA@ 00000001800402d0     libucrt:get_qualified_locale.obj
 0002:0000b2f8       ??_C@_1BK@CDEIHOOP@?$AAs?$AAp?$AAa?$AAn?$AAi?$AAs?$AAh?$AA?9?$AAp?$AAe?$AAr?$AAu?$AA?$AA@ 00000001800402f8     libucrt:get_qualified_locale.obj
 0002:0000b318       ??_C@_1CI@GAHAKKGP@?$AAs?$AAp?$AAa?$AAn?$AAi?$AAs?$AAh?$AA?9?$AAp?$AAu?$AAe?$AAr?$AAt?$AAo?$AA?5?$AAr?$AAi?$AAc?$AAo?$AA?$AA@ 0000000180040318     libucrt:get_qualified_locale.obj
 0002:0000b340       ??_C@_1CA@NKJBCAGP@?$AAs?$AAp?$AAa?$AAn?$AAi?$AAs?$AAh?$AA?9?$AAu?$AAr?$AAu?$AAg?$AAu?$AAa?$AAy?$AA?$AA@ 0000000180040340     libucrt:get_qualified_locale.obj
 0002:0000b360       ??_C@_1CE@ODILCONM@?$AAs?$AAp?$AAa?$AAn?$AAi?$AAs?$AAh?$AA?9?$AAv?$AAe?$AAn?$AAe?$AAz?$AAu?$AAe?$AAl?$AAa?$AA?$AA@ 0000000180040360     libucrt:get_qualified_locale.obj
 0002:0000b388       ??_C@_1CA@OBNMCGFO@?$AAs?$AAw?$AAe?$AAd?$AAi?$AAs?$AAh?$AA?9?$AAf?$AAi?$AAn?$AAl?$AAa?$AAn?$AAd?$AA?$AA@ 0000000180040388     libucrt:get_qualified_locale.obj
 0002:0000b3a8       ??_C@_1M@PIPDDPPI@?$AAs?$AAw?$AAi?$AAs?$AAs?$AA?$AA@ 00000001800403a8     libucrt:get_qualified_locale.obj
 0002:0000b3b4       ??_C@_15GMFIMNFM@?$AAu?$AAs?$AA?$AA@ 00000001800403b4     libucrt:get_qualified_locale.obj
 0002:0000b3c0       ??_C@_17HAEBFAGL@?$AAu?$AAs?$AAa?$AA?$AA@ 00000001800403c0     libucrt:get_qualified_locale.obj
 0002:0000b3c8       ??_C@_1BA@DPFJEPHB@?$AAa?$AAm?$AAe?$AAr?$AAi?$AAc?$AAa?$AA?$AA@ 00000001800403c8     libucrt:get_qualified_locale.obj
 0002:0000b3d8       ??_C@_1BA@ELOGGFK@?$AAb?$AAr?$AAi?$AAt?$AAa?$AAi?$AAn?$AA?$AA@ 00000001800403d8     libucrt:get_qualified_locale.obj
 0002:0000b3e8       ??_C@_1M@GHBGIGDA@?$AAc?$AAh?$AAi?$AAn?$AAa?$AA?$AA@ 00000001800403e8     libucrt:get_qualified_locale.obj
 0002:0000b3f8       ??_C@_1M@NCHEJOPO@?$AAc?$AAz?$AAe?$AAc?$AAh?$AA?$AA@ 00000001800403f8     libucrt:get_qualified_locale.obj
 0002:0000b408       ??_C@_1BA@BKPAPBLA@?$AAe?$AAn?$AAg?$AAl?$AAa?$AAn?$AAd?$AA?$AA@ 0000000180040408     libucrt:get_qualified_locale.obj
 0002:0000b418       ??_C@_1BM@HKBCKIPC@?$AAg?$AAr?$AAe?$AAa?$AAt?$AA?5?$AAb?$AAr?$AAi?$AAt?$AAa?$AAi?$AAn?$AA?$AA@ 0000000180040418     libucrt:get_qualified_locale.obj
 0002:0000b438       ??_C@_1BA@PPCHPGJB@?$AAh?$AAo?$AAl?$AAl?$AAa?$AAn?$AAd?$AA?$AA@ 0000000180040438     libucrt:get_qualified_locale.obj
 0002:0000b448       ??_C@_1BE@JBMPEGDG@?$AAh?$AAo?$AAn?$AAg?$AA?9?$AAk?$AAo?$AAn?$AAg?$AA?$AA@ 0000000180040448     libucrt:get_qualified_locale.obj
 0002:0000b460       ??_C@_1BI@KOELBBPJ@?$AAn?$AAe?$AAw?$AA?9?$AAz?$AAe?$AAa?$AAl?$AAa?$AAn?$AAd?$AA?$AA@ 0000000180040460     libucrt:get_qualified_locale.obj
 0002:0000b478       ??_C@_15HIEBHAIO@?$AAn?$AAz?$AA?$AA@ 0000000180040478     libucrt:get_qualified_locale.obj
 0002:0000b480       ??_C@_1BC@CHBCPFPI@?$AAp?$AAr?$AA?5?$AAc?$AAh?$AAi?$AAn?$AAa?$AA?$AA@ 0000000180040480     libucrt:get_qualified_locale.obj
 0002:0000b498       ??_C@_1BC@JAOIIFKD@?$AAp?$AAr?$AA?9?$AAc?$AAh?$AAi?$AAn?$AAa?$AA?$AA@ 0000000180040498     libucrt:get_qualified_locale.obj
 0002:0000b4b0       ??_C@_1BI@BEHPPHKC@?$AAp?$AAu?$AAe?$AAr?$AAt?$AAo?$AA?9?$AAr?$AAi?$AAc?$AAo?$AA?$AA@ 00000001800404b0     libucrt:get_qualified_locale.obj
 0002:0000b4c8       ??_C@_1O@PAEOFKDI@?$AAs?$AAl?$AAo?$AAv?$AAa?$AAk?$AA?$AA@ 00000001800404c8     libucrt:get_qualified_locale.obj
 0002:0000b4d8       ??_C@_1BK@FIHMCKAM@?$AAs?$AAo?$AAu?$AAt?$AAh?$AA?5?$AAa?$AAf?$AAr?$AAi?$AAc?$AAa?$AA?$AA@ 00000001800404d8     libucrt:get_qualified_locale.obj
 0002:0000b4f8       ??_C@_1BI@NAEOODKB@?$AAs?$AAo?$AAu?$AAt?$AAh?$AA?5?$AAk?$AAo?$AAr?$AAe?$AAa?$AA?$AA@ 00000001800404f8     libucrt:get_qualified_locale.obj
 0002:0000b510       ??_C@_1BK@FBDGGIFF@?$AAs?$AAo?$AAu?$AAt?$AAh?$AA?9?$AAa?$AAf?$AAr?$AAi?$AAc?$AAa?$AA?$AA@ 0000000180040510     libucrt:get_qualified_locale.obj
 0002:0000b530       ??_C@_1BI@GHLEJDPK@?$AAs?$AAo?$AAu?$AAt?$AAh?$AA?9?$AAk?$AAo?$AAr?$AAe?$AAa?$AA?$AA@ 0000000180040530     libucrt:get_qualified_locale.obj
 0002:0000b548       ??_C@_1CE@PLHLOMJF@?$AAt?$AAr?$AAi?$AAn?$AAi?$AAd?$AAa?$AAd?$AA?5?$AA?$CG?$AA?5?$AAt?$AAo?$AAb?$AAa?$AAg?$AAo?$AA?$AA@ 0000000180040548     libucrt:get_qualified_locale.obj
 0002:0000b570       ??_C@_1BO@MODIMHHI@?$AAu?$AAn?$AAi?$AAt?$AAe?$AAd?$AA?9?$AAk?$AAi?$AAn?$AAg?$AAd?$AAo?$AAm?$AA?$AA@ 0000000180040570     libucrt:get_qualified_locale.obj
 0002:0000b590       ??_C@_1BM@FFHJONBJ@?$AAu?$AAn?$AAi?$AAt?$AAe?$AAd?$AA?9?$AAs?$AAt?$AAa?$AAt?$AAe?$AAs?$AA?$AA@ 0000000180040590     libucrt:get_qualified_locale.obj
 0002:0000b5b0       ??_C@_17DNCLJFIF@?$AAA?$AAC?$AAP?$AA?$AA@ 00000001800405b0     libucrt:get_qualified_locale.obj
 0002:0000b5b8       ??_C@_17CIKBIHLH@?$AAO?$AAC?$AAP?$AA?$AA@ 00000001800405b8     libucrt:get_qualified_locale.obj
 0002:0000b5c0       __rglangidNotDefault       00000001800405c0     libucrt:getqloc_downlevel.obj
 0002:0000b840       ??_C@_1BA@BALFACEM@?$AAC?$AAO?$AAN?$AAO?$AAU?$AAT?$AA$?$AA?$AA@ 0000000180040840     libucrt:initcon.obj
 0002:0000b850       __log10_256_lead           0000000180040850     libucrt:log10_256_lead_tail_table.obj
 0002:0000c060       __log10_256_tail           0000000180041060     libucrt:log10_256_lead_tail_table.obj
 0002:0000c870       __log_F_inv_qword          0000000180041870     libucrt:log_f_inv_qword_table.obj
 0002:0000d080       ??_C@_1BK@DBDEIDLH@?$AAK?$AAE?$AAR?$AAN?$AAE?$AAL?$AA3?$AA2?$AA?4?$AAD?$AAL?$AAL?$AA?$AA@ 0000000180042080     DelayImp:delayhlp.obj
 0002:0000d0a0       _load_config_used          00000001800420a0     LIBCMT:loadcfg.obj
 0002:0000d138       ??_7_OutputArray@cv@@6B@   0000000180042138     Image_PreProcessing.obj
 0002:0000d1e0       ??_7_InputArray@cv@@6B@    00000001800421e0     Image_PreProcessing.obj
 0002:0000d240       ??_C@_0BC@BDKFLDHL@unknown?5exception?$AA@ 0000000180042240     Learn_Image.obj
 0002:0000d258       ??_C@_0BA@ELKIONDK@bad?5locale?5name?$AA@ 0000000180042258     Learn_Image.obj
 0002:0000d268       ??_C@_05LAPONLG@false?$AA@ 0000000180042268     Learn_Image.obj
 0002:0000d270       ??_C@_04LOAJBDKD@true?$AA@ 0000000180042270     Learn_Image.obj
 0002:0000d275       ??_C@_00CNPNBAHC@?$AA@     0000000180042275     Learn_Image.obj
 0002:0000d278       ??_C@_02LMMGGCAJ@?3?5?$AA@ 0000000180042278     Learn_Image.obj
 0002:0000d280       ??_C@_08LLGCOLLL@iostream?$AA@ 0000000180042280     Learn_Image.obj
 0002:0000d290       ??_C@_0BG@PADBLCHM@iostream?5stream?5error?$AA@ 0000000180042290     Learn_Image.obj
 0002:0000d2a8       ??_C@_0BF@PHHKMMFD@ios_base?3?3badbit?5set?$AA@ 00000001800422a8     Learn_Image.obj
 0002:0000d2c0       ??_C@_0BG@FMKFHCIL@ios_base?3?3failbit?5set?$AA@ 00000001800422c0     Learn_Image.obj
 0002:0000d2d8       ??_C@_0BF@OOHOMBOF@ios_base?3?3eofbit?5set?$AA@ 00000001800422d8     Learn_Image.obj
 0002:0000d2f0       ??_C@_0M@LLFGKPEG@?$FLempty_any?$FN?$AA@ 00000001800422f0     Learn_Image.obj
 0002:0000d2fc       ??_C@_02BBAHNLBA@?$CFp?$AA@ 00000001800422fc     Learn_Image.obj
 0002:0000d300       ??_C@_0BD@OLBABOEK@vector?$DMT?$DO?5too?5long?$AA@ 0000000180042300     Learn_Image.obj
 0002:0000d314       ??_C@_02MDKMJEGG@eE?$AA@   0000000180042314     Learn_Image.obj
 0002:0000d318       ??_C@_02OOPEBDOJ@pP?$AA@   0000000180042318     Learn_Image.obj
 0002:0000d320       ??_C@_0BI@CFPLBAOH@invalid?5string?5position?$AA@ 0000000180042320     Learn_Image.obj
 0002:0000d338       ??_C@_0BA@JFNIOLAK@string?5too?5long?$AA@ 0000000180042338     Learn_Image.obj
 0002:0000d348       ??_7?$small_any_policy@_N@anyimpl@cvflann@@6B@ 0000000180042348     Learn_Image.obj
 0002:0000d388       ??_7?$small_any_policy@I@anyimpl@cvflann@@6B@ 0000000180042388     Learn_Image.obj
 0002:0000d3c8       ??_7?$big_any_policy@W4flann_centers_init_t@cvflann@@@anyimpl@cvflann@@6B@ 00000001800423c8     Learn_Image.obj
 0002:0000d408       ??_7exception@stdext@@6B@  0000000180042408     Learn_Image.obj
 0002:0000d420       ??_7?$small_any_policy@M@anyimpl@cvflann@@6B@ 0000000180042420     Learn_Image.obj
 0002:0000d461       ?yTranslate_layer@@3_NA    0000000180042461     MSC_Fast_optmz_warp_pthread.obj
 0002:0000d462       ?rotate_layer@@3_NA        0000000180042462     MSC_Fast_optmz_warp_pthread.obj
 0002:0000d463       ?xTranslate_layer@@3_NA    0000000180042463     MSC_Fast_optmz_warp_pthread.obj
 0002:0000d464       ?startscale@@3HA           0000000180042464     MSC_Fast_optmz_warp_pthread.obj
 0002:0000d468       ?k_yTranslate@@3NA         0000000180042468     MSC_Fast_optmz_warp_pthread.obj
 0002:0000d470       ?k_xTranslate@@3NA         0000000180042470     MSC_Fast_optmz_warp_pthread.obj
 0002:0000d478       ?minscale_para@@3NA        0000000180042478     MSC_Fast_optmz_warp_pthread.obj
 0002:0000d480       ?k_scale@@3NA              0000000180042480     MSC_Fast_optmz_warp_pthread.obj
 0002:0000d488       ?MAX_VAL@@3NA              0000000180042488     MSC_Fast_optmz_warp_pthread.obj
 0002:0000d490       ?maxscale_para@@3NA        0000000180042490     MSC_Fast_optmz_warp_pthread.obj
 0002:0000d498       ?k_rotate@@3NA             0000000180042498     MSC_Fast_optmz_warp_pthread.obj
 0002:0000d4a0       ?scale_layer@@3_NA         00000001800424a0     MSC_Fast_optmz_warp_pthread.obj
 0002:0000d4a4       ?framectl@@3HA             00000001800424a4     jsmsc.obj
 0002:0000d4a8       ??_7?$small_any_policy@H@anyimpl@cvflann@@6B@ 00000001800424a8     Learn_Image.obj
 0002:0000d4e8       ??_7?$big_any_policy@W4flann_algorithm_t@cvflann@@@anyimpl@cvflann@@6B@ 00000001800424e8     Learn_Image.obj
 0002:0000d528       ??_7?$big_any_policy@V?$basic_string@DU?$char_traits@D@std@@V?$allocator@D@2@@std@@@anyimpl@cvflann@@6B@ 0000000180042528     Learn_Image.obj
 0002:0000d568       ??_7?$small_any_policy@PEBD@anyimpl@cvflann@@6B@ 0000000180042568     Learn_Image.obj
 0002:0000d5a8       ??_7?$big_any_policy@Uempty_any@anyimpl@cvflann@@@anyimpl@cvflann@@6B@ 00000001800425a8     Learn_Image.obj
 0002:0000d5e8       ??_C@_0P@FHFOFEFL@FPV_Forward?$FL1?$FN?$AA@ 00000001800425e8     MSC_Fast_optmz_warp_pthread.obj
 0002:0000d5f8       ??_C@_06DMGKFCFA@BPV?$FL1?$FN?$AA@ 00000001800425f8     MSC_Fast_optmz_warp_pthread.obj
 0002:0000d600       ??_C@_0BJ@LMNBPNJK@it?5takes?5?$CFd?1?$CFd?5for?5loop?6?$AA@ 0000000180042600     MSC_Fast_optmz_warp_pthread.obj
 0002:0000d61c       ??_C@_01NEMOKFLO@?$DN?$AA@ 000000018004261c     MSC_Fast_optmz_warp_pthread.obj
 0002:0000d620       ??_C@_01JEJKBAGA@g?$AA@    0000000180042620     MSC_Fast_optmz_warp_pthread.obj
 0002:0000d624       ??_C@_03LMLDNGMM@In1?$AA@  0000000180042624     MSC_Fast_optmz_warp_pthread.obj
 0002:0000d628       ??_C@_04LJEABBCD@dst1?$AA@ 0000000180042628     MSC_Fast_optmz_warp_pthread.obj
 0002:0000d630       ??_C@_02IEILNGIL@In?$AA@   0000000180042630     MSC_Fast_optmz_warp_pthread.obj
 0002:0000d634       ??_C@_03HHBLCKEM@dst?$AA@  0000000180042634     MSC_Fast_optmz_warp_pthread.obj
 0002:0000d638       ??_C@_01GAPBHFFA@T?$AA@    0000000180042638     MSC_Fast_optmz_warp_pthread.obj
 0002:0000d640       ??_C@_0BC@PNMDGEAE@BackwardTransform?$AA@ 0000000180042640     MSC_Fast_optmz_warp_pthread.obj
 0002:0000d658       ??_C@_08HCOMDCCD@iojs?4exe?$AA@ 0000000180042658     win_delay_load_hook.obj
 0002:0000d668       ??_C@_08JDDNMFDB@node?4exe?$AA@ 0000000180042668     win_delay_load_hook.obj
 0002:0000d674       ??_C@_04FBAPEKPH@roll?$AA@ 0000000180042674     jsmsc.obj
 0002:0000d680       ??_C@_09FIJIDOEC@move?5left?$AA@ 0000000180042680     jsmsc.obj
 0002:0000d690       ??_C@_0L@ICHFLHOL@move?5right?$AA@ 0000000180042690     jsmsc.obj
 0002:0000d6a0       ??_C@_0O@HCIIDNNO@no?5left?1right?$AA@ 00000001800426a0     jsmsc.obj
 0002:0000d6b0       ??_C@_05NCNFOFLM@pitch?$AA@ 00000001800426b0     jsmsc.obj
 0002:0000d6b8       ??_C@_0L@MMDLAFKI@move?5front?$AA@ 00000001800426b8     jsmsc.obj
 0002:0000d6c8       ??_C@_09KDFLNLAB@move?5back?$AA@ 00000001800426c8     jsmsc.obj
 0002:0000d6d8       ??_C@_0O@BGPLENKF@no?5front?1back?$AA@ 00000001800426d8     jsmsc.obj
 0002:0000d6e8       ??_C@_0N@GAAHAKMB@?4?4?1img_1?4png?$AA@ 00000001800426e8     jsmsc.obj
 0002:0000d6f8       ??_C@_04OFFCAMCD@Test?$AA@ 00000001800426f8     jsmsc.obj
 0002:0000d700       ??_C@_07FLMNHPPG@exports?$AA@ 0000000180042700     jsmsc.obj
 0002:0000d708       ??_C@_08PINLMNP@jsmsc?4cc?$AA@ 0000000180042708     jsmsc.obj
 0002:0000d714       ??_C@_05ONJGPJEO@addon?$AA@ 0000000180042714     jsmsc.obj
 0002:0000d71c       __real@3f000000            000000018004271c     region_of_interest.obj
 0002:0000d720       __real@3f1a36e2eb1c432d    0000000180042720     MSC_Fast_optmz_warp_pthread.obj
 0002:0000d728       __real@3f800000            0000000180042728     MSC_Fast_optmz_warp_pthread.obj
 0002:0000d730       __real@3fb999999999999a    0000000180042730     MSC_Fast_optmz_warp_pthread.obj
 0002:0000d738       __real@3fc999999999999a    0000000180042738     MSC_Fast_optmz_warp_pthread.obj
 0002:0000d740       __real@3fd1eb851eb851eb    0000000180042740     MSC_Fast_optmz_warp_pthread.obj
 0002:0000d748       __real@3fd999999999999a    0000000180042748     MSC_Fast_optmz_warp_pthread.obj
 0002:0000d750       __real@3fe0000000000000    0000000180042750     MSC_Fast_optmz_warp_pthread.obj
 0002:0000d758       __real@3fe6666666666666    0000000180042758     MSC_Fast_optmz_warp_pthread.obj
 0002:0000d760       __real@3fe999999999999a    0000000180042760     MSC_Fast_optmz_warp_pthread.obj
 0002:0000d768       __real@3ff0000000000000    0000000180042768     MSC_Fast_optmz_warp_pthread.obj
 0002:0000d770       __real@3ff8000000000000    0000000180042770     Image_PreProcessing.obj
 0002:0000d778       __real@4008000000000000    0000000180042778     MSC_Fast_optmz_warp_pthread.obj
 0002:0000d780       __real@400921fb53c8d4f1    0000000180042780     MSC_Fast_optmz_warp_pthread.obj
 0002:0000d788       __real@403e000000000000    0000000180042788     Image_PreProcessing.obj
 0002:0000d790       __real@4049000000000000    0000000180042790     Image_PreProcessing.obj
 0002:0000d798       __real@4052000000000000    0000000180042798     MSC_Fast_optmz_warp_pthread.obj
 0002:0000d7a0       __real@4054000000000000    00000001800427a0     Image_PreProcessing.obj
 0002:0000d7a8       __real@4059000000000000    00000001800427a8     MSC_Fast_optmz_warp_pthread.obj
 0002:0000d7b0       __real@4066800000000000    00000001800427b0     MSC_Fast_optmz_warp_pthread.obj
 0002:0000d7b8       __real@406fe00000000000    00000001800427b8     MSC_Fast_optmz_warp_pthread.obj
 0002:0000d7c0       __real@4202a05f20000000    00000001800427c0     Learn_Image.obj
 0002:0000d7c8       __real@43340000            00000001800427c8     MSC_Fast_optmz_warp_pthread.obj
 0002:0000d7cc       __real@bf800000            00000001800427cc     MSC_Fast_optmz_warp_pthread.obj
 0002:0000d7d0       __real@bfb999999999999a    00000001800427d0     jsmsc.obj
 0002:0000d7d8       __real@bfe0000000000000    00000001800427d8     jsmsc.obj
 0002:0000d7e0       __xmm@7fffffffffffffff7fffffffffffffff 00000001800427e0     MSC_Fast_optmz_warp_pthread.obj
 0002:0000d7f0       __xmm@80000000000000008000000000000000 00000001800427f0     MSC_Fast_optmz_warp_pthread.obj
 0002:0000d800       __xmm@80000000800000008000000080000000 0000000180042800     MSC_Fast_optmz_warp_pthread.obj
 0002:0000d810       __real@3f73476a758da22a    0000000180042810     libucrt:atanf.obj
 0002:0000d818       __real@3fc89e173a81ee7f    0000000180042818     libucrt:atanf.obj
 0002:0000d820       __real@3fc90fdb            0000000180042820     libucrt:atanf.obj
 0002:0000d828       __real@3fd2fa5316907834    0000000180042828     libucrt:atanf.obj
 0002:0000d830       __real@3fd327e3df2cf2aa    0000000180042830     libucrt:atanf.obj
 0002:0000d838       __real@3fddac670561bb4f    0000000180042838     libucrt:atanf.obj
 0002:0000d840       __real@3fe921fb54442d18    0000000180042840     libucrt:atanf.obj
 0002:0000d848       __real@3fec777ca21053f0    0000000180042848     libucrt:atanf.obj
 0002:0000d850       __real@3fef730bd281f69b    0000000180042850     libucrt:atanf.obj
 0002:0000d858       __real@3ff1c58793da6ea4    0000000180042858     libucrt:atanf.obj
 0002:0000d860       __real@3ff921fb54442d18    0000000180042860     libucrt:atanf.obj
 0002:0000d868       __real@4000000000000000    0000000180042868     libucrt:atanf.obj
 0002:0000d870       __real@43d3200000000000    0000000180042870     libucrt:atanf.obj
 0002:0000d878       __real@bfc90fdb            0000000180042878     libucrt:atanf.obj
 0002:0000da40       ??_C@_05KGFAIMPG@sqrtf?$AA@ 0000000180042a40     libucrt:sqrtf.obj
 0002:0000da50       __Lcosarray                0000000180042a50     libucrt:lsincos_array.obj
 0002:0000dab0       __Lsinarray                0000000180042ab0     libucrt:lsincos_array.obj
 0002:0000de30       __L_2_by_pi_bits           0000000180042e30     libucrt:l2_by_pi_bits.obj
 0002:0000df28       _tls_used                  0000000180042f28     LIBCMT:tlssup.obj
 0002:0000df50       ??_R4exception@std@@6B@    0000000180042f50     libcpmt:cout.obj
 0002:0000df78       ??_R3exception@std@@8      0000000180042f78     libcpmt:cout.obj
 0002:0000df90       ??_R2exception@std@@8      0000000180042f90     libcpmt:cout.obj
 0002:0000dfa0       ??_R1A@?0A@EA@exception@std@@8 0000000180042fa0     libcpmt:cout.obj
 0002:0000dfc8       ??_R4ios_base@std@@6B@     0000000180042fc8     libcpmt:cout.obj
 0002:0000dff0       ??_R3ios_base@std@@8       0000000180042ff0     libcpmt:cout.obj
 0002:0000e008       ??_R2ios_base@std@@8       0000000180043008     libcpmt:cout.obj
 0002:0000e020       ??_R1A@?0A@EA@ios_base@std@@8 0000000180043020     libcpmt:cout.obj
 0002:0000e048       ??_R17?0A@EA@?$_Iosb@H@std@@8 0000000180043048     libcpmt:cout.obj
 0002:0000e070       ??_R3?$_Iosb@H@std@@8      0000000180043070     libcpmt:cout.obj
 0002:0000e088       ??_R2?$_Iosb@H@std@@8      0000000180043088     libcpmt:cout.obj
 0002:0000e098       ??_R1A@?0A@EA@?$_Iosb@H@std@@8 0000000180043098     libcpmt:cout.obj
 0002:0000e0c0       ??_R4?$basic_ios@DU?$char_traits@D@std@@@std@@6B@ 00000001800430c0     libcpmt:cout.obj
 0002:0000e0e8       ??_R3?$basic_ios@DU?$char_traits@D@std@@@std@@8 00000001800430e8     libcpmt:cout.obj
 0002:0000e100       ??_R2?$basic_ios@DU?$char_traits@D@std@@@std@@8 0000000180043100     libcpmt:cout.obj
 0002:0000e120       ??_R1A@?0A@EA@?$basic_ios@DU?$char_traits@D@std@@@std@@8 0000000180043120     libcpmt:cout.obj
 0002:0000e148       ??_R4?$basic_streambuf@DU?$char_traits@D@std@@@std@@6B@ 0000000180043148     libcpmt:cout.obj
 0002:0000e170       ??_R3?$basic_streambuf@DU?$char_traits@D@std@@@std@@8 0000000180043170     libcpmt:cout.obj
 0002:0000e188       ??_R2?$basic_streambuf@DU?$char_traits@D@std@@@std@@8 0000000180043188     libcpmt:cout.obj
 0002:0000e198       ??_R1A@?0A@EA@?$basic_streambuf@DU?$char_traits@D@std@@@std@@8 0000000180043198     libcpmt:cout.obj
 0002:0000e1c0       ??_R1A@A@3FA@?$basic_ios@DU?$char_traits@D@std@@@std@@8 00000001800431c0     libcpmt:cout.obj
 0002:0000e1e8       ??_R1A@A@3EA@ios_base@std@@8 00000001800431e8     libcpmt:cout.obj
 0002:0000e210       ??_R17A@3EA@?$_Iosb@H@std@@8 0000000180043210     libcpmt:cout.obj
 0002:0000e238       ??_R4?$basic_ostream@DU?$char_traits@D@std@@@std@@6B@ 0000000180043238     libcpmt:cout.obj
 0002:0000e260       ??_R3?$basic_ostream@DU?$char_traits@D@std@@@std@@8 0000000180043260     libcpmt:cout.obj
 0002:0000e278       ??_R2?$basic_ostream@DU?$char_traits@D@std@@@std@@8 0000000180043278     libcpmt:cout.obj
 0002:0000e2a0       ??_R1A@?0A@EA@?$basic_ostream@DU?$char_traits@D@std@@@std@@8 00000001800432a0     libcpmt:cout.obj
 0002:0000e2c8       ??_R4?$basic_filebuf@DU?$char_traits@D@std@@@std@@6B@ 00000001800432c8     libcpmt:cout.obj
 0002:0000e2f0       ??_R3?$basic_filebuf@DU?$char_traits@D@std@@@std@@8 00000001800432f0     libcpmt:cout.obj
 0002:0000e308       ??_R2?$basic_filebuf@DU?$char_traits@D@std@@@std@@8 0000000180043308     libcpmt:cout.obj
 0002:0000e320       ??_R1A@?0A@EA@?$basic_filebuf@DU?$char_traits@D@std@@@std@@8 0000000180043320     libcpmt:cout.obj
 0002:0000e348       ??_R4runtime_error@std@@6B@ 0000000180043348     libcpmt:cout.obj
 0002:0000e370       ??_R3runtime_error@std@@8  0000000180043370     libcpmt:cout.obj
 0002:0000e388       ??_R2runtime_error@std@@8  0000000180043388     libcpmt:cout.obj
 0002:0000e3a0       ??_R1A@?0A@EA@runtime_error@std@@8 00000001800433a0     libcpmt:cout.obj
 0002:0000e3c8       ??_R4bad_cast@std@@6B@     00000001800433c8     libcpmt:cout.obj
 0002:0000e3f0       ??_R3bad_cast@std@@8       00000001800433f0     libcpmt:cout.obj
 0002:0000e408       ??_R2bad_cast@std@@8       0000000180043408     libcpmt:cout.obj
 0002:0000e420       ??_R1A@?0A@EA@bad_cast@std@@8 0000000180043420     libcpmt:cout.obj
 0002:0000e448       ??_R4_Facet_base@std@@6B@  0000000180043448     libcpmt:cout.obj
 0002:0000e470       ??_R3_Facet_base@std@@8    0000000180043470     libcpmt:cout.obj
 0002:0000e488       ??_R2_Facet_base@std@@8    0000000180043488     libcpmt:cout.obj
 0002:0000e498       ??_R1A@?0A@EA@_Facet_base@std@@8 0000000180043498     libcpmt:cout.obj
 0002:0000e4c0       ??_R1A@?0A@EA@facet@locale@std@@8 00000001800434c0     libcpmt:cout.obj
 0002:0000e4e8       ??_R3facet@locale@std@@8   00000001800434e8     libcpmt:cout.obj
 0002:0000e500       ??_R2facet@locale@std@@8   0000000180043500     libcpmt:cout.obj
 0002:0000e520       ??_R17?0A@EA@_Crt_new_delete@std@@8 0000000180043520     libcpmt:cout.obj
 0002:0000e548       ??_R3_Crt_new_delete@std@@8 0000000180043548     libcpmt:cout.obj
 0002:0000e560       ??_R2_Crt_new_delete@std@@8 0000000180043560     libcpmt:cout.obj
 0002:0000e570       ??_R1A@?0A@EA@_Crt_new_delete@std@@8 0000000180043570     libcpmt:cout.obj
 0002:0000e598       ??_R3codecvt_base@std@@8   0000000180043598     libcpmt:cout.obj
 0002:0000e5b0       ??_R2codecvt_base@std@@8   00000001800435b0     libcpmt:cout.obj
 0002:0000e5d8       ??_R1A@?0A@EA@codecvt_base@std@@8 00000001800435d8     libcpmt:cout.obj
 0002:0000e600       ??_R3ctype_base@std@@8     0000000180043600     libcpmt:cout.obj
 0002:0000e618       ??_R2ctype_base@std@@8     0000000180043618     libcpmt:cout.obj
 0002:0000e640       ??_R1A@?0A@EA@ctype_base@std@@8 0000000180043640     libcpmt:cout.obj
 0002:0000e668       ??_R4?$ctype@D@std@@6B@    0000000180043668     libcpmt:cout.obj
 0002:0000e690       ??_R3?$ctype@D@std@@8      0000000180043690     libcpmt:cout.obj
 0002:0000e6a8       ??_R2?$ctype@D@std@@8      00000001800436a8     libcpmt:cout.obj
 0002:0000e6d8       ??_R1A@?0A@EA@?$ctype@D@std@@8 00000001800436d8     libcpmt:cout.obj
 0002:0000e700       ??_R4error_category@std@@6B@ 0000000180043700     libcpmt:cout.obj
 0002:0000e728       ??_R3error_category@std@@8 0000000180043728     libcpmt:cout.obj
 0002:0000e740       ??_R2error_category@std@@8 0000000180043740     libcpmt:cout.obj
 0002:0000e750       ??_R1A@?0A@EA@error_category@std@@8 0000000180043750     libcpmt:cout.obj
 0002:0000e778       ??_R4_System_error@std@@6B@ 0000000180043778     libcpmt:cout.obj
 0002:0000e7a0       ??_R3_System_error@std@@8  00000001800437a0     libcpmt:cout.obj
 0002:0000e7b8       ??_R2_System_error@std@@8  00000001800437b8     libcpmt:cout.obj
 0002:0000e7d8       ??_R1A@?0A@EA@_System_error@std@@8 00000001800437d8     libcpmt:cout.obj
 0002:0000e800       ??_R3system_error@std@@8   0000000180043800     libcpmt:cout.obj
 0002:0000e818       ??_R2system_error@std@@8   0000000180043818     libcpmt:cout.obj
 0002:0000e840       ??_R1A@?0A@EA@system_error@std@@8 0000000180043840     libcpmt:cout.obj
 0002:0000e868       ??_R3_Generic_error_category@std@@8 0000000180043868     libcpmt:cout.obj
 0002:0000e880       ??_R2_Generic_error_category@std@@8 0000000180043880     libcpmt:cout.obj
 0002:0000e898       ??_R1A@?0A@EA@_Generic_error_category@std@@8 0000000180043898     libcpmt:cout.obj
 0002:0000e8c0       ??_R4_Iostream_error_category@std@@6B@ 00000001800438c0     libcpmt:cout.obj
 0002:0000e8e8       ??_R3_Iostream_error_category@std@@8 00000001800438e8     libcpmt:cout.obj
 0002:0000e900       ??_R2_Iostream_error_category@std@@8 0000000180043900     libcpmt:cout.obj
 0002:0000e920       ??_R1A@?0A@EA@_Iostream_error_category@std@@8 0000000180043920     libcpmt:cout.obj
 0002:0000e948       ??_R4failure@ios_base@std@@6B@ 0000000180043948     libcpmt:cout.obj
 0002:0000e970       ??_R3failure@ios_base@std@@8 0000000180043970     libcpmt:cout.obj
 0002:0000e988       ??_R2failure@ios_base@std@@8 0000000180043988     libcpmt:cout.obj
 0002:0000e9b8       ??_R1A@?0A@EA@failure@ios_base@std@@8 00000001800439b8     libcpmt:cout.obj
 0002:0000e9e0       ??_R4?$codecvt@DDU_Mbstatet@@@std@@6B@ 00000001800439e0     libcpmt:cout.obj
 0002:0000ea08       ??_R3?$codecvt@DDU_Mbstatet@@@std@@8 0000000180043a08     libcpmt:cout.obj
 0002:0000ea20       ??_R2?$codecvt@DDU_Mbstatet@@@std@@8 0000000180043a20     libcpmt:cout.obj
 0002:0000ea50       ??_R1A@?0A@EA@?$codecvt@DDU_Mbstatet@@@std@@8 0000000180043a50     libcpmt:cout.obj
 0002:0000ea78       ??_R4_Locimp@locale@std@@6B@ 0000000180043a78     libcpmt:locale0.obj
 0002:0000eaa0       ??_R3_Locimp@locale@std@@8 0000000180043aa0     libcpmt:locale0.obj
 0002:0000eab8       ??_R2_Locimp@locale@std@@8 0000000180043ab8     libcpmt:locale0.obj
 0002:0000eae0       ??_R1A@?0A@EA@_Locimp@locale@std@@8 0000000180043ae0     libcpmt:locale0.obj
 0002:0000eb08       ??_R4bad_alloc@std@@6B@    0000000180043b08     libcpmt:xthrow.obj
 0002:0000eb30       ??_R3bad_alloc@std@@8      0000000180043b30     libcpmt:xthrow.obj
 0002:0000eb48       ??_R2bad_alloc@std@@8      0000000180043b48     libcpmt:xthrow.obj
 0002:0000eb60       ??_R1A@?0A@EA@bad_alloc@std@@8 0000000180043b60     libcpmt:xthrow.obj
 0002:0000eb88       ??_R4logic_error@std@@6B@  0000000180043b88     libcpmt:xthrow.obj
 0002:0000ebb0       ??_R3logic_error@std@@8    0000000180043bb0     libcpmt:xthrow.obj
 0002:0000ebc8       ??_R2logic_error@std@@8    0000000180043bc8     libcpmt:xthrow.obj
 0002:0000ebe0       ??_R1A@?0A@EA@logic_error@std@@8 0000000180043be0     libcpmt:xthrow.obj
 0002:0000ec08       ??_R4length_error@std@@6B@ 0000000180043c08     libcpmt:xthrow.obj
 0002:0000ec30       ??_R3length_error@std@@8   0000000180043c30     libcpmt:xthrow.obj
 0002:0000ec48       ??_R2length_error@std@@8   0000000180043c48     libcpmt:xthrow.obj
 0002:0000ec68       ??_R1A@?0A@EA@length_error@std@@8 0000000180043c68     libcpmt:xthrow.obj
 0002:0000ec90       ??_R4out_of_range@std@@6B@ 0000000180043c90     libcpmt:xthrow.obj
 0002:0000ecb8       ??_R3out_of_range@std@@8   0000000180043cb8     libcpmt:xthrow.obj
 0002:0000ecd0       ??_R2out_of_range@std@@8   0000000180043cd0     libcpmt:xthrow.obj
 0002:0000ecf0       ??_R1A@?0A@EA@out_of_range@std@@8 0000000180043cf0     libcpmt:xthrow.obj
 0002:0000ed18       ??_R4?$num_put@DV?$ostreambuf_iterator@DU?$char_traits@D@std@@@std@@@std@@6B@ 0000000180043d18     libcpmt:locale.obj
 0002:0000ed40       ??_R3?$num_put@DV?$ostreambuf_iterator@DU?$char_traits@D@std@@@std@@@std@@8 0000000180043d40     libcpmt:locale.obj
 0002:0000ed58       ??_R2?$num_put@DV?$ostreambuf_iterator@DU?$char_traits@D@std@@@std@@@std@@8 0000000180043d58     libcpmt:locale.obj
 0002:0000ed80       ??_R1A@?0A@EA@?$num_put@DV?$ostreambuf_iterator@DU?$char_traits@D@std@@@std@@@std@@8 0000000180043d80     libcpmt:locale.obj
 0002:0000eda8       ??_R4?$numpunct@D@std@@6B@ 0000000180043da8     libcpmt:locale.obj
 0002:0000edd0       ??_R3?$numpunct@D@std@@8   0000000180043dd0     libcpmt:locale.obj
 0002:0000ede8       ??_R2?$numpunct@D@std@@8   0000000180043de8     libcpmt:locale.obj
 0002:0000ee10       ??_R1A@?0A@EA@?$numpunct@D@std@@8 0000000180043e10     libcpmt:locale.obj
 0002:0000ee38       ??_R4type_info@@6B@        0000000180043e38     LIBCMT:std_type_info_static.obj
 0002:0000ee60       ??_R3type_info@@8          0000000180043e60     LIBCMT:std_type_info_static.obj
 0002:0000ee78       ??_R2type_info@@8          0000000180043e78     LIBCMT:std_type_info_static.obj
 0002:0000ee88       ??_R1A@?0A@EA@type_info@@8 0000000180043e88     LIBCMT:std_type_info_static.obj
 0002:0000eeb0       ??_R4bad_array_new_length@std@@6B@ 0000000180043eb0     LIBCMT:throw_bad_alloc.obj
 0002:0000eed8       ??_R3bad_array_new_length@std@@8 0000000180043ed8     LIBCMT:throw_bad_alloc.obj
 0002:0000eef0       ??_R2bad_array_new_length@std@@8 0000000180043ef0     LIBCMT:throw_bad_alloc.obj
 0002:0000ef10       ??_R1A@?0A@EA@bad_array_new_length@std@@8 0000000180043f10     LIBCMT:throw_bad_alloc.obj
 0002:0000ef38       ??_R4bad_exception@std@@6B@ 0000000180043f38     libvcruntime:frame.obj
 0002:0000ef60       ??_R3bad_exception@std@@8  0000000180043f60     libvcruntime:frame.obj
 0002:0000ef78       ??_R2bad_exception@std@@8  0000000180043f78     libvcruntime:frame.obj
 0002:0000ef90       ??_R1A@?0A@EA@bad_exception@std@@8 0000000180043f90     libvcruntime:frame.obj
 0002:0000efb8       ?_TraceLoggingMetadata@?1??_TlgWrite@__vcrt_trace_logging_provider@@YAJPEBU_TlgProvider_t@2@PEFBXPEBU_GUID@@2IPEAU_EVENT_DATA_DESCRIPTOR@@@Z@4U_TraceLoggingMetadata_t@2@B 0000000180043fb8     libvcruntime:telemetry.obj
 0002:0000f06b       ?_TraceLoggingMetadataEnd@?1??_TlgWrite@__vcrt_trace_logging_provider@@YAJPEBU_TlgProvider_t@2@PEFBXPEBU_GUID@@2IPEAU_EVENT_DATA_DESCRIPTOR@@@Z@4EB 000000018004406b     libvcruntime:telemetry.obj
 0002:0000f568       __rtc_iaa                  0000000180044568     LIBCMT:_initsect_.obj
 0002:0000f570       __rtc_izz                  0000000180044570     LIBCMT:_initsect_.obj
 0002:0000f578       __rtc_taa                  0000000180044578     LIBCMT:_initsect_.obj
 0002:0000f580       __rtc_tzz                  0000000180044580     LIBCMT:_initsect_.obj
 0002:00011af8       _CT??_R0?AVexception@std@@@8??0exception@std@@QEAA@AEBV01@@Z24 0000000180046af8     libcpmt:cout.obj
 0002:00011b20       _TI2?AVbad_cast@std@@      0000000180046b20     libcpmt:cout.obj
 0002:00011b40       _CTA2?AVbad_cast@std@@     0000000180046b40     libcpmt:cout.obj
 0002:00011b58       _CT??_R0?AVbad_cast@std@@@8??0bad_cast@std@@QEAA@AEBV01@@Z24 0000000180046b58     libcpmt:cout.obj
 0002:00011b80       _TI2?AVbad_alloc@std@@     0000000180046b80     libcpmt:xthrow.obj
 0002:00011ba0       _CTA2?AVbad_alloc@std@@    0000000180046ba0     libcpmt:xthrow.obj
 0002:00011bb8       _CT??_R0?AVbad_alloc@std@@@8??0bad_alloc@std@@QEAA@AEBV01@@Z24 0000000180046bb8     libcpmt:xthrow.obj
 0002:00011be0       _CT??_R0?AVlogic_error@std@@@8??0logic_error@std@@QEAA@AEBV01@@Z24 0000000180046be0     libcpmt:xthrow.obj
 0002:00011c08       _TI3?AVlength_error@std@@  0000000180046c08     libcpmt:xthrow.obj
 0002:00011c28       _CTA3?AVlength_error@std@@ 0000000180046c28     libcpmt:xthrow.obj
 0002:00011c48       _CT??_R0?AVlength_error@std@@@8??0length_error@std@@QEAA@AEBV01@@Z24 0000000180046c48     libcpmt:xthrow.obj
 0002:00011c70       _TI3?AVout_of_range@std@@  0000000180046c70     libcpmt:xthrow.obj
 0002:00011c90       _CTA3?AVout_of_range@std@@ 0000000180046c90     libcpmt:xthrow.obj
 0002:00011cb0       _CT??_R0?AVout_of_range@std@@@8??0out_of_range@std@@QEAA@AEBV01@@Z24 0000000180046cb0     libcpmt:xthrow.obj
 0002:00011cd8       _TI3?AVbad_array_new_length@std@@ 0000000180046cd8     LIBCMT:throw_bad_alloc.obj
 0002:00011cf8       _CTA3?AVbad_array_new_length@std@@ 0000000180046cf8     LIBCMT:throw_bad_alloc.obj
 0002:00011d18       _CT??_R0?AVbad_array_new_length@std@@@8??0bad_array_new_length@std@@QEAA@AEBV01@@Z24 0000000180046d18     LIBCMT:throw_bad_alloc.obj
 0002:00011d40       _TI2?AVbad_exception@std@@ 0000000180046d40     libvcruntime:frame.obj
 0002:00011d60       _CTA2?AVbad_exception@std@@ 0000000180046d60     libvcruntime:frame.obj
 0002:00011d78       _CT??_R0?AVbad_exception@std@@@8??0bad_exception@std@@QEAA@AEBV01@@Z24 0000000180046d78     libvcruntime:frame.obj
 0002:00011d9c       __DELAY_IMPORT_DESCRIPTOR_node_exe 0000000180046d9c     node:node.exe
 0002:00011dbc       __NULL_DELAY_IMPORT_DESCRIPTOR 0000000180046dbc     node:node.exe
 0002:00011e50       \177node_NULL_THUNK_DATA_DLN 0000000180046e50     node:node.exe
 0002:000121e0       \177node_NULL_THUNK_DATA_DLB 00000001800471e0     node:node.exe
 0002:000122a4       __IMPORT_DESCRIPTOR_KERNEL32 00000001800472a4     kernel32:KERNEL32.dll
 0002:000122b8       __IMPORT_DESCRIPTOR_opencv_core2411 00000001800472b8     opencv_core2411:opencv_core2411.dll
 0002:000122cc       __IMPORT_DESCRIPTOR_opencv_highgui2411 00000001800472cc     opencv_highgui2411:opencv_highgui2411.dll
 0002:000122e0       __IMPORT_DESCRIPTOR_opencv_imgproc2411 00000001800472e0     opencv_imgproc2411:opencv_imgproc2411.dll
 0002:000122f4       __IMPORT_DESCRIPTOR_ADVAPI32 00000001800472f4     advapi32:ADVAPI32.dll
 0002:00012308       __NULL_IMPORT_DESCRIPTOR   0000000180047308     kernel32:KERNEL32.dll
 0003:00000004       ?_Sync@ios_base@std@@0_NA  0000000180049004     libcpmt:ios.obj
 0003:00000020       ?_PJP_CPP_Copyright@@3PADA 0000000180049020     libcpmt:iosptrs.obj
 0003:00000078       _FDenorm                   0000000180049078     libcpmt:xfvalues.obj
 0003:00000088       _FInf                      0000000180049088     libcpmt:xfvalues.obj
 0003:00000098       _FNan                      0000000180049098     libcpmt:xfvalues.obj
 0003:000000a8       _FSnan                     00000001800490a8     libcpmt:xfvalues.obj
 0003:000000b8       _FEps                      00000001800490b8     libcpmt:xfvalues.obj
 0003:000000c8       _FRteps                    00000001800490c8     libcpmt:xfvalues.obj
 0003:000000d8       _FXbig                     00000001800490d8     libcpmt:xfvalues.obj
 0003:000000e0       _Denorm                    00000001800490e0     libcpmt:xvalues.obj
 0003:000000f0       _Hugeval                   00000001800490f0     libcpmt:xvalues.obj
 0003:00000100       _Inf                       0000000180049100     libcpmt:xvalues.obj
 0003:00000110       _Nan                       0000000180049110     libcpmt:xvalues.obj
 0003:00000120       _Snan                      0000000180049120     libcpmt:xvalues.obj
 0003:00000130       _Eps                       0000000180049130     libcpmt:xvalues.obj
 0003:00000140       _Rteps                     0000000180049140     libcpmt:xvalues.obj
 0003:00000150       _Xbig                      0000000180049150     libcpmt:xvalues.obj
 0003:00000158       _LDenorm                   0000000180049158     libcpmt:xlvalues.obj
 0003:00000168       _LInf                      0000000180049168     libcpmt:xlvalues.obj
 0003:00000178       _LNan                      0000000180049178     libcpmt:xlvalues.obj
 0003:00000188       _LSnan                     0000000180049188     libcpmt:xlvalues.obj
 0003:00000198       _LEps                      0000000180049198     libcpmt:xlvalues.obj
 0003:000001a8       _LRteps                    00000001800491a8     libcpmt:xlvalues.obj
 0003:000001b8       _LXbig                     00000001800491b8     libcpmt:xlvalues.obj
 0003:000001c0       _Init_global_epoch         00000001800491c0     LIBCMT:thread_safe_statics.obj
 0003:000001c4       __scrt_native_dllmain_reason 00000001800491c4     LIBCMT:utility.obj
 0003:000001c8       __security_cookie          00000001800491c8     LIBCMT:gs_cookie.obj
 0003:000001d0       __security_cookie_complement 00000001800491d0     LIBCMT:gs_cookie.obj
 0003:000001d8       _fltused                   00000001800491d8     LIBCMT:fltused.obj
 0003:000001e0       __isa_available            00000001800491e0     LIBCMT:_cpu_disp_.obj
 0003:000001e4       __isa_enabled              00000001800491e4     LIBCMT:_cpu_disp_.obj
 0003:000001e8       __memcpy_nt_iters          00000001800491e8     LIBCMT:_cpu_disp_.obj
 0003:00000250       __abort_behavior           0000000180049250     libucrt:abort.obj
 0003:00000260       _iob                       0000000180049260     libucrt:_file.obj
 0003:00000370       __acrt_lconv_c             0000000180049370     libucrt:localeconv.obj
 0003:00000408       __acrt_lconv               0000000180049408     libucrt:localeconv.obj
 0003:00000410       __acrt_lconv_static_decimal 0000000180049410     libucrt:localeconv.obj
 0003:00000414       __acrt_lconv_static_W_decimal 0000000180049414     libucrt:localeconv.obj
 0003:00000420       _pctype                    0000000180049420     libucrt:ctype.obj
 0003:00000428       _pwctype                   0000000180049428     libucrt:ctype.obj
 0003:00000440       __badioinfo                0000000180049440     libucrt:ioinit.obj
 0003:00000490       __acrt_initial_locale_data 0000000180049490     libucrt:nlsdata.obj
 0003:000005e8       __acrt_initial_locale_pointers 00000001800495e8     libucrt:nlsdata.obj
 0003:000005f8       __acrt_wide_c_locale_string 00000001800495f8     libucrt:nlsdata.obj
 0003:000005fc       __mb_cur_max               00000001800495fc     libucrt:nlsdata.obj
 0003:00000604       __globallocalestatus       0000000180049604     libucrt:glstatus.obj
 0003:000006a0       __acrt_initial_multibyte_data 00000001800496a0     libucrt:mbctype.obj
 0003:000008c8       __acrt_current_multibyte_data 00000001800498c8     libucrt:mbctype.obj
 0003:000009d0       _mbctype                   00000001800499d0     libucrt:mbctype.obj
 0003:00000ae0       _mbcasemap                 0000000180049ae0     libucrt:mbctype.obj
 0003:00000be0       _lookuptrailbytes          0000000180049be0     libucrt:read.obj
 0003:00000ce8       __dcrt_lowio_console_output_handle 0000000180049ce8     libucrt:initcon.obj
 0003:00000cf0       ?yTranslate_step@@3NA      0000000180049cf0     MSC_Fast_optmz_warp_pthread.obj
 0003:00000cf8       ?rotate_step@@3NA          0000000180049cf8     MSC_Fast_optmz_warp_pthread.obj
 0003:00000d00       ?xTranslate_step@@3NA      0000000180049d00     MSC_Fast_optmz_warp_pthread.obj
 0003:00000d08       ?scale_step@@3NA           0000000180049d08     MSC_Fast_optmz_warp_pthread.obj
 0003:00000d10       __pfnDliNotifyHook2        0000000180049d10     win_delay_load_hook.obj
 0003:00000d60       ?cropped_memory_images@@3VMat@cv@@A 0000000180049d60     jsmsc.obj
 0003:00000dc0       ?policy@?$SinglePolicy@I@anyimpl@cvflann@@0U?$small_any_policy@I@23@A 0000000180049dc0     Learn_Image.obj
 0003:00000dc8       ?policy@?$SinglePolicy@W4flann_algorithm_t@cvflann@@@anyimpl@cvflann@@0U?$big_any_policy@W4flann_algorithm_t@cvflann@@@23@A 0000000180049dc8     Learn_Image.obj
 0003:00000dd0       ?policy@?$SinglePolicy@Uempty_any@anyimpl@cvflann@@@anyimpl@cvflann@@0U?$big_any_policy@Uempty_any@anyimpl@cvflann@@@23@A 0000000180049dd0     Learn_Image.obj
 0003:00000dd8       ?policy@?$SinglePolicy@_N@anyimpl@cvflann@@0U?$small_any_policy@_N@23@A 0000000180049dd8     Learn_Image.obj
 0003:00000de0       ?policy@?$SinglePolicy@V?$basic_string@DU?$char_traits@D@std@@V?$allocator@D@2@@std@@@anyimpl@cvflann@@0U?$big_any_policy@V?$basic_string@DU?$char_traits@D@std@@V?$allocator@D@2@@std@@@23@A 0000000180049de0     Learn_Image.obj
 0003:00000de8       ?policy@?$SinglePolicy@H@anyimpl@cvflann@@0U?$small_any_policy@H@23@A 0000000180049de8     Learn_Image.obj
 0003:00000df0       ?policy@?$SinglePolicy@M@anyimpl@cvflann@@0U?$small_any_policy@M@23@A 0000000180049df0     Learn_Image.obj
 0003:00000df8       ?policy@?$SinglePolicy@W4flann_centers_init_t@cvflann@@@anyimpl@cvflann@@0U?$big_any_policy@W4flann_centers_init_t@cvflann@@@23@A 0000000180049df8     Learn_Image.obj
 0003:00000e00       ?policy@?$SinglePolicy@PEBD@anyimpl@cvflann@@0U?$small_any_policy@PEBD@23@A 0000000180049e00     Learn_Image.obj
 0003:00000e10       ??_R0?AVruntime_error@std@@@8 0000000180049e10     libcpmt:cout.obj
 0003:00000e38       ??_R0?AVexception@std@@@8  0000000180049e38     libcpmt:cout.obj
 0003:00000e60       ??_R0?AVfailure@ios_base@std@@@8 0000000180049e60     libcpmt:cout.obj
 0003:00000e90       ??_R0?AVsystem_error@std@@@8 0000000180049e90     libcpmt:cout.obj
 0003:00000eb8       ??_R0?AV_System_error@std@@@8 0000000180049eb8     libcpmt:cout.obj
 0003:00000ee0       ??_R0?AVbad_cast@std@@@8   0000000180049ee0     libcpmt:cout.obj
 0003:00000f08       ??_R0?AVios_base@std@@@8   0000000180049f08     libcpmt:cout.obj
 0003:00000f30       ??_R0?AV?$_Iosb@H@std@@@8  0000000180049f30     libcpmt:cout.obj
 0003:00000f58       ??_R0?AV?$basic_ios@DU?$char_traits@D@std@@@std@@@8 0000000180049f58     libcpmt:cout.obj
 0003:00000fa0       ??_R0?AV?$basic_streambuf@DU?$char_traits@D@std@@@std@@@8 0000000180049fa0     libcpmt:cout.obj
 0003:00000ff0       ??_R0?AV?$basic_ostream@DU?$char_traits@D@std@@@std@@@8 0000000180049ff0     libcpmt:cout.obj
 0003:00001040       ??_R0?AV?$basic_filebuf@DU?$char_traits@D@std@@@std@@@8 000000018004a040     libcpmt:cout.obj
 0003:00001088       ??_R0?AV_Facet_base@std@@@8 000000018004a088     libcpmt:cout.obj
 0003:000010b0       ??_R0?AVfacet@locale@std@@@8 000000018004a0b0     libcpmt:cout.obj
 0003:000010d8       ??_R0?AU_Crt_new_delete@std@@@8 000000018004a0d8     libcpmt:cout.obj
 0003:00001108       ??_R0?AVcodecvt_base@std@@@8 000000018004a108     libcpmt:cout.obj
 0003:00001130       ??_R0?AUctype_base@std@@@8 000000018004a130     libcpmt:cout.obj
 0003:00001158       ??_R0?AV?$ctype@D@std@@@8  000000018004a158     libcpmt:cout.obj
 0003:00001180       ??_R0?AVerror_category@std@@@8 000000018004a180     libcpmt:cout.obj
 0003:000011b0       ??_R0?AV_Generic_error_category@std@@@8 000000018004a1b0     libcpmt:cout.obj
 0003:000011e8       ??_R0?AV_Iostream_error_category@std@@@8 000000018004a1e8     libcpmt:cout.obj
 0003:00001220       ??_R0?AV?$codecvt@DDU_Mbstatet@@@std@@@8 000000018004a220     libcpmt:cout.obj
 0003:00001258       ??_R0?AV_Locimp@locale@std@@@8 000000018004a258     libcpmt:locale0.obj
 0003:00001288       ??_R0?AVbad_alloc@std@@@8  000000018004a288     libcpmt:xthrow.obj
 0003:000012b0       ??_R0?AVlogic_error@std@@@8 000000018004a2b0     libcpmt:xthrow.obj
 0003:000012d8       ??_R0?AVlength_error@std@@@8 000000018004a2d8     libcpmt:xthrow.obj
 0003:00001300       ??_R0?AVout_of_range@std@@@8 000000018004a300     libcpmt:xthrow.obj
 0003:00001330       ??_R0?AV?$num_put@DV?$ostreambuf_iterator@DU?$char_traits@D@std@@@std@@@std@@@8 000000018004a330     libcpmt:locale.obj
 0003:00001390       ??_R0?AV?$numpunct@D@std@@@8 000000018004a390     libcpmt:locale.obj
 0003:000013b8       ??_R0?AVtype_info@@@8      000000018004a3b8     LIBCMT:std_type_info_static.obj
 0003:000013d8       ??_R0?AVbad_array_new_length@std@@@8 000000018004a3d8     LIBCMT:throw_bad_alloc.obj
 0003:00001408       ??_R0?AVbad_exception@std@@@8 000000018004a408     libvcruntime:frame.obj
 0003:00001430       ??_R0PEBD@8                000000018004a430     Learn_Image.obj
 0003:00001448       ??_R0M@8                   000000018004a448     Learn_Image.obj
 0003:00001460       ??_R0H@8                   000000018004a460     Learn_Image.obj
 0003:00001478       ??_R0I@8                   000000018004a478     Learn_Image.obj
 0003:00001490       ??_R0?AW4flann_algorithm_t@cvflann@@@8 000000018004a490     Learn_Image.obj
 0003:000014c8       ??_R0?AW4flann_centers_init_t@cvflann@@@8 000000018004a4c8     Learn_Image.obj
 0003:00001500       ??_R0?AUempty_any@anyimpl@cvflann@@@8 000000018004a500     Learn_Image.obj
 0003:00001530       ??_R0?AV?$basic_string@DU?$char_traits@D@std@@V?$allocator@D@2@@std@@@8 000000018004a530     Learn_Image.obj
 0003:00001588       ??_R0_N@8                  000000018004a588     Learn_Image.obj
 0003:000015a0       __imp_?GetCurrent@Isolate@v8@@SAPEAV12@XZ 000000018004a5a0     node:node.exe
 0003:000015a8       __imp_??1HandleScope@v8@@QEAA@XZ 000000018004a5a8     node:node.exe
 0003:000015b0       __imp_??0HandleScope@v8@@QEAA@PEAVIsolate@1@@Z 000000018004a5b0     node:node.exe
 0003:000015b8       __imp_?GetFunction@FunctionTemplate@v8@@QEAA?AV?$Local@VFunction@v8@@@2@XZ 000000018004a5b8     node:node.exe
 0003:000015c0       __imp_?New@FunctionTemplate@v8@@SA?AV?$Local@VFunctionTemplate@v8@@@2@PEAVIsolate@2@P6AXAEBV?$FunctionCallbackInfo@VValue@v8@@@2@@ZV?$Local@VValue@v8@@@2@V?$Local@VSignature@v8@@@2@H@Z 000000018004a5c0     node:node.exe
 0003:000015c8       __imp_?NewFromUtf8@String@v8@@SA?AV?$Local@VString@v8@@@2@PEAVIsolate@2@PEBDW4NewStringType@12@H@Z 000000018004a5c8     node:node.exe
 0003:000015d0       __imp_?New@Number@v8@@SA?AV?$Local@VNumber@v8@@@2@PEAVIsolate@2@N@Z 000000018004a5d0     node:node.exe
 0003:000015d8       __imp_?New@Object@v8@@SA?AV?$Local@VObject@v8@@@2@PEAVIsolate@2@@Z 000000018004a5d8     node:node.exe
 0003:000015e0       __imp_?Set@Object@v8@@QEAA_NV?$Local@VValue@v8@@@2@0@Z 000000018004a5e0     node:node.exe
 0003:000015e8       __imp_?SetName@Function@v8@@QEAAXV?$Local@VString@v8@@@2@@Z 000000018004a5e8     node:node.exe
 0003:000015f0       __imp_node_module_register 000000018004a5f0     node:node.exe
 0003:000015f8       __imp_?Data@Buffer@node@@YAPEADV?$Local@VObject@v8@@@v8@@@Z 000000018004a5f8     node:node.exe
 0003:00001600       __imp_?Length@Buffer@node@@YA_KV?$Local@VObject@v8@@@v8@@@Z 000000018004a600     node:node.exe
 0003:00001608       __imp_?ToObject@Value@v8@@QEBA?AV?$Local@VObject@v8@@@2@XZ 000000018004a608     node:node.exe
 0003:00001610       \177node_NULL_THUNK_DATA_DLA 000000018004a610     node:node.exe
 0003:00001620       __hmod__node_exe           000000018004a620     node:node.exe
 0003:00001790       ?cout@std@@3V?$basic_ostream@DU?$char_traits@D@std@@@1@A 000000018004a790     libcpmt:cout.obj
 0003:00001898       ?id@?$codecvt@DDU_Mbstatet@@@std@@2V0locale@2@A 000000018004a898     libcpmt:cout.obj
 0003:000018a0       ?_Stinit@?1??_Init@?$basic_filebuf@DU?$char_traits@D@std@@@std@@IEAAXPEAU_iobuf@@W4_Initfl@23@@Z@4U_Mbstatet@@A 000000018004a8a0     libcpmt:cout.obj
 0003:000018a8       ?_Psave@?$_Facetptr@V?$codecvt@DDU_Mbstatet@@@std@@@std@@2PEBVfacet@locale@2@EB 000000018004a8a8     libcpmt:cout.obj
 0003:000018b0       ?_Id_cnt@id@locale@std@@0HA 000000018004a8b0     libcpmt:locale0.obj
 0003:000018c0       ?_Clocptr@_Locimp@locale@std@@0PEAV123@EA 000000018004a8c0     libcpmt:locale0.obj
 0003:000018d0       ?id@?$ctype@_W@std@@2V0locale@2@A 000000018004a8d0     libcpmt:locale0.obj
 0003:000018d8       ?id@?$ctype@D@std@@2V0locale@2@A 000000018004a8d8     libcpmt:locale0.obj
 0003:000018e0       ?id@?$codecvt@GDU_Mbstatet@@@std@@2V0locale@2@A 000000018004a8e0     libcpmt:locale0.obj
 0003:000018e8       ?id@?$ctype@G@std@@2V0locale@2@A 000000018004a8e8     libcpmt:locale0.obj
 0003:00001900       ?id@?$codecvt@_WDU_Mbstatet@@@std@@2V0locale@2@A 000000018004a900     libcpmt:locale0.obj
 0003:00001910       ?_Raise_handler@std@@3P6AXAEBVexception@stdext@@@ZEA 000000018004a910     libcpmt:raisehan.obj
 0003:0000197c       ?_Index@ios_base@std@@0HA  000000018004a97c     libcpmt:ios.obj
 0003:000019d0       ?_Ptr_cin@std@@3PEAV?$basic_istream@DU?$char_traits@D@std@@@1@EA 000000018004a9d0     libcpmt:iosptrs.obj
 0003:000019d8       ?_Ptr_cout@std@@3PEAV?$basic_ostream@DU?$char_traits@D@std@@@1@EA 000000018004a9d8     libcpmt:iosptrs.obj
 0003:000019e0       ?_Ptr_cerr@std@@3PEAV?$basic_ostream@DU?$char_traits@D@std@@@1@EA 000000018004a9e0     libcpmt:iosptrs.obj
 0003:000019e8       ?_Ptr_clog@std@@3PEAV?$basic_ostream@DU?$char_traits@D@std@@@1@EA 000000018004a9e8     libcpmt:iosptrs.obj
 0003:000019f0       ?_Ptr_wcin@std@@3PEAV?$basic_istream@_WU?$char_traits@_W@std@@@1@EA 000000018004a9f0     libcpmt:iosptrs.obj
 0003:000019f8       ?_Ptr_wcout@std@@3PEAV?$basic_ostream@_WU?$char_traits@_W@std@@@1@EA 000000018004a9f8     libcpmt:iosptrs.obj
 0003:00001a00       ?_Ptr_wcerr@std@@3PEAV?$basic_ostream@_WU?$char_traits@_W@std@@@1@EA 000000018004aa00     libcpmt:iosptrs.obj
 0003:00001a08       ?_Ptr_wclog@std@@3PEAV?$basic_ostream@_WU?$char_traits@_W@std@@@1@EA 000000018004aa08     libcpmt:iosptrs.obj
 0003:00001a18       ?id@?$num_get@DV?$istreambuf_iterator@DU?$char_traits@D@std@@@std@@@std@@2V0locale@2@A 000000018004aa18     libcpmt:locale.obj
 0003:00001a20       __encodedKERNEL32Functions 000000018004aa20     libcpmt:winapisupp.obj
 0003:00001b60       ?id@?$time_put@_WV?$ostreambuf_iterator@_WU?$char_traits@_W@std@@@std@@@std@@2V0locale@2@A 000000018004ab60     libcpmt:wlocale.obj
 0003:00001b68       ?id@?$num_get@_WV?$istreambuf_iterator@_WU?$char_traits@_W@std@@@std@@@std@@2V0locale@2@A 000000018004ab68     libcpmt:wlocale.obj
 0003:00001b70       ?id@?$num_put@_WV?$ostreambuf_iterator@_WU?$char_traits@_W@std@@@std@@@std@@2V0locale@2@A 000000018004ab70     libcpmt:wlocale.obj
 0003:00001b78       ?id@?$numpunct@_W@std@@2V0locale@2@A 000000018004ab78     libcpmt:wlocale.obj
 0003:00001b80       ?id@?$collate@_W@std@@2V0locale@2@A 000000018004ab80     libcpmt:wlocale.obj
 0003:00001b88       ?id@?$messages@_W@std@@2V0locale@2@A 000000018004ab88     libcpmt:wlocale.obj
 0003:00001b90       ?id@?$money_get@_WV?$istreambuf_iterator@_WU?$char_traits@_W@std@@@std@@@std@@2V0locale@2@A 000000018004ab90     libcpmt:wlocale.obj
 0003:00001b98       ?id@?$money_put@_WV?$ostreambuf_iterator@_WU?$char_traits@_W@std@@@std@@@std@@2V0locale@2@A 000000018004ab98     libcpmt:wlocale.obj
 0003:00001ba0       ?id@?$moneypunct@_W$0A@@std@@2V0locale@2@A 000000018004aba0     libcpmt:wlocale.obj
 0003:00001ba8       ?id@?$moneypunct@_W$00@std@@2V0locale@2@A 000000018004aba8     libcpmt:wlocale.obj
 0003:00001bb0       ?id@?$time_get@_WV?$istreambuf_iterator@_WU?$char_traits@_W@std@@@std@@@std@@2V0locale@2@A 000000018004abb0     libcpmt:wlocale.obj
 0003:00001bb8       ?id@?$num_get@GV?$istreambuf_iterator@GU?$char_traits@G@std@@@std@@@std@@2V0locale@2@A 000000018004abb8     libcpmt:wlocale.obj
 0003:00001bc0       ?id@?$num_put@GV?$ostreambuf_iterator@GU?$char_traits@G@std@@@std@@@std@@2V0locale@2@A 000000018004abc0     libcpmt:wlocale.obj
 0003:00001bc8       ?id@?$numpunct@G@std@@2V0locale@2@A 000000018004abc8     libcpmt:wlocale.obj
 0003:00001bd0       ?id@?$collate@G@std@@2V0locale@2@A 000000018004abd0     libcpmt:wlocale.obj
 0003:00001bd8       ?id@?$messages@G@std@@2V0locale@2@A 000000018004abd8     libcpmt:wlocale.obj
 0003:00001be0       ?id@?$money_get@GV?$istreambuf_iterator@GU?$char_traits@G@std@@@std@@@std@@2V0locale@2@A 000000018004abe0     libcpmt:wlocale.obj
 0003:00001be8       ?id@?$money_put@GV?$ostreambuf_iterator@GU?$char_traits@G@std@@@std@@@std@@2V0locale@2@A 000000018004abe8     libcpmt:wlocale.obj
 0003:00001bf0       ?id@?$moneypunct@G$0A@@std@@2V0locale@2@A 000000018004abf0     libcpmt:wlocale.obj
 0003:00001bf8       ?id@?$moneypunct@G$00@std@@2V0locale@2@A 000000018004abf8     libcpmt:wlocale.obj
 0003:00001c00       ?id@?$time_get@GV?$istreambuf_iterator@GU?$char_traits@G@std@@@std@@@std@@2V0locale@2@A 000000018004ac00     libcpmt:wlocale.obj
 0003:00001c08       ?id@?$time_put@GV?$ostreambuf_iterator@GU?$char_traits@G@std@@@std@@@std@@2V0locale@2@A 000000018004ac08     libcpmt:wlocale.obj
 0003:00001c10       ?id@?$collate@D@std@@2V0locale@2@A 000000018004ac10     libcpmt:xlocale.obj
 0003:00001c18       ?id@?$messages@D@std@@2V0locale@2@A 000000018004ac18     libcpmt:xlocale.obj
 0003:00001c20       ?id@?$money_get@DV?$istreambuf_iterator@DU?$char_traits@D@std@@@std@@@std@@2V0locale@2@A 000000018004ac20     libcpmt:xlocale.obj
 0003:00001c28       ?id@?$money_put@DV?$ostreambuf_iterator@DU?$char_traits@D@std@@@std@@@std@@2V0locale@2@A 000000018004ac28     libcpmt:xlocale.obj
 0003:00001c30       ?id@?$moneypunct@D$0A@@std@@2V0locale@2@A 000000018004ac30     libcpmt:xlocale.obj
 0003:00001c38       ?id@?$moneypunct@D$00@std@@2V0locale@2@A 000000018004ac38     libcpmt:xlocale.obj
 0003:00001c40       ?id@?$time_get@DV?$istreambuf_iterator@DU?$char_traits@D@std@@@std@@@std@@2V0locale@2@A 000000018004ac40     libcpmt:xlocale.obj
 0003:00001c48       ?id@?$time_put@DV?$ostreambuf_iterator@DU?$char_traits@D@std@@@std@@@std@@2V0locale@2@A 000000018004ac48     libcpmt:xlocale.obj
 0003:00001c50       _FZero                     000000018004ac50     libcpmt:xfvalues.obj
 0003:00001c58       _Zero                      000000018004ac58     libcpmt:xvalues.obj
 0003:00001c60       _LZero                     000000018004ac60     libcpmt:xlvalues.obj
 0003:00001cb0       __scrt_current_native_startup_state 000000018004acb0     LIBCMT:utility.obj
 0003:00001cb8       __scrt_native_startup_lock 000000018004acb8     LIBCMT:utility.obj
 0003:00002270       __scrt_debugger_hook_flag  000000018004b270     LIBCMT:utility_desktop.obj
 0003:00002274       _tls_index                 000000018004b274     LIBCMT:tlssup.obj
 0003:00002278       __favor                    000000018004b278     LIBCMT:_cpu_disp_.obj
 0003:00002280       ?__type_info_root_node@@3U__type_info_node@@A 000000018004b280     LIBCMT:tncleanup.obj
 0003:00002290       ?_OptionsStorage@?1??__local_stdio_scanf_options@@9@4_KA 000000018004b290     LIBCMT:default_local_stdio_options.obj
 0003:00002298       ?g_OutOfMemoryExceptionCallback@@3P6APEAXXZEA 000000018004b298     libvcruntime:frame.obj
 0003:00002308       __pPurecall                000000018004b308     libvcruntime:purevirt_data.obj
 0003:000023b8       ?pArgList@UnDecorator@@0PEAVReplicator@@EA 000000018004b3b8     libvcruntime:undname.obj
 0003:000023c0       ?pZNameList@UnDecorator@@0PEAVReplicator@@EA 000000018004b3c0     libvcruntime:undname.obj
 0003:000023c8       ?pTemplateArgList@UnDecorator@@0PEAVReplicator@@EA 000000018004b3c8     libvcruntime:undname.obj
 0003:000023d0       ?gName@UnDecorator@@0PEBDEB 000000018004b3d0     libvcruntime:undname.obj
 0003:000023d8       ?name@UnDecorator@@0PEBDEB 000000018004b3d8     libvcruntime:undname.obj
 0003:000023e0       ?outputString@UnDecorator@@0PEADEA 000000018004b3e0     libvcruntime:undname.obj
 0003:000023e8       ?maxStringLength@UnDecorator@@0HA 000000018004b3e8     libvcruntime:undname.obj
 0003:000023ec       ?disableFlags@UnDecorator@@0KA 000000018004b3ec     libvcruntime:undname.obj
 0003:000023f0       ?fExplicitTemplateParams@UnDecorator@@0_NA 000000018004b3f0     libvcruntime:undname.obj
 0003:000023f1       ?fGetTemplateArgumentList@UnDecorator@@0_NA 000000018004b3f1     libvcruntime:undname.obj
 0003:000023f8       ?m_pGetParameter@UnDecorator@@0P6APEADJ@ZEA 000000018004b3f8     libvcruntime:undname.obj
 0003:00002430       _nstream                   000000018004b430     libucrt:_file.obj
 0003:00002438       __piob                     000000018004b438     libucrt:_file.obj
 0003:00002440       _cflush                    000000018004b440     libucrt:_file.obj
 0003:00002444       __acrt_lconv_static_null   000000018004b444     libucrt:localeconv.obj
 0003:00002448       __acrt_lconv_static_W_null 000000018004b448     libucrt:localeconv.obj
 0003:00002688       _environ_table             000000018004b688     libucrt:environment_initialization.obj
 0003:00002690       _wenviron_table            000000018004b690     libucrt:environment_initialization.obj
 0003:00002698       __dcrt_initial_wide_environment 000000018004b698     libucrt:environment_initialization.obj
 0003:000026a0       __dcrt_initial_narrow_environment 000000018004b6a0     libucrt:environment_initialization.obj
 0003:000026a8       __acrt_atexit_table        000000018004b6a8     libucrt:onexit.obj
 0003:000026c0       __acrt_at_quick_exit_table 000000018004b6c0     libucrt:onexit.obj
 0003:000028b0       __pioinfo                  000000018004b8b0     libucrt:ioinit.obj
 0003:00002cb0       _nhandle                   000000018004bcb0     libucrt:ioinit.obj
 0003:00002cc0       __acrt_stdout_buffer       000000018004bcc0     libucrt:_sftbuf.obj
 0003:00002cc8       __acrt_stderr_buffer       000000018004bcc8     libucrt:_sftbuf.obj
 0003:00002cd0       __acrt_locale_changed_data 000000018004bcd0     libucrt:wsetlocale.obj
 0003:00002cd8       __acrt_current_locale_data 000000018004bcd8     libucrt:nlsdata.obj
 0003:00002ce8       __acrt_heap                000000018004bce8     libucrt:heap_handle.obj
 0003:00002cf0       ?_timezone@@3V?$dual_state_global@J@__crt_state_management@@A 000000018004bcf0     libucrt:timeset.obj
 0003:00002cf4       ?_daylight@@3V?$dual_state_global@H@__crt_state_management@@A 000000018004bcf4     libucrt:timeset.obj
 0003:00002cf8       ?_dstbias@@3V?$dual_state_global@J@__crt_state_management@@A 000000018004bcf8     libucrt:timeset.obj
 0003:00002dcc       __mbcodepage               000000018004bdcc     libucrt:mbctype.obj
 0003:00002dd0       __ismbcodepage             000000018004bdd0     libucrt:mbctype.obj
 0003:00002dd8       __mbulinfo                 000000018004bdd8     libucrt:mbctype.obj
 0003:00002de8       __mblocalename             000000018004bde8     libucrt:mbctype.obj
 0003:00002df8       __argv                     000000018004bdf8     libucrt:argv_data.obj
 0003:00002e00       __wargv                    000000018004be00     libucrt:argv_data.obj
 0003:00002e08       _acmdln                    000000018004be08     libucrt:argv_data.obj
 0003:00002e10       _wcmdln                    000000018004be10     libucrt:argv_data.obj
 0003:00002e24       __fma3_is_available        000000018004be24     libucrt:fma3_available.obj
 0003:00002e28       __use_fma3_lib             000000018004be28     libucrt:fma3_available.obj
 0003:00002e30       ?DloadKernel32@@3PEAUHINSTANCE__@@EA 000000018004be30     DelayImp:delayhlp.obj
 0003:00002e38       ?DloadAcquireSRWLockExclusive@@3P6AXPEA_K@ZEA 000000018004be38     DelayImp:delayhlp.obj
 0003:00002e40       ?DloadReleaseSRWLockExclusive@@3P6AXPEA_K@ZEA 000000018004be40     DelayImp:delayhlp.obj
 0003:00002e48       ?DloadSrwLock@@3_KA        000000018004be48     DelayImp:delayhlp.obj
 0003:00002e50       ?DloadSectionLockCount@@3KA 000000018004be50     DelayImp:delayhlp.obj
 0003:00002e54       ?DloadSectionOldProtection@@3KA 000000018004be54     DelayImp:delayhlp.obj
 0003:00002e58       ?DloadSectionCommitPermanent@@3KA 000000018004be58     DelayImp:delayhlp.obj
 0003:00002e60       __pfnDliFailureHook2       000000018004be60     DelayImp:delayhk1.obj
 0003:00002e68       ?_Static@?1???$_Immortalize@V_Iostream_error_category@std@@@std@@YAAEAV_Iostream_error_category@1@XZ@4U?$_Immortalizer@V_Iostream_error_category@std@@@1@A 000000018004be68     Learn_Image.obj
 0003:00002e78       ?$TSS0@?1???$_Immortalize@V_Iostream_error_category@std@@@std@@YAAEAV_Iostream_error_category@1@XZ@4HA 000000018004be78     Learn_Image.obj
 0003:00002e80       ?_OptionsStorage@?1??__local_stdio_printf_options@@9@4_KA 000000018004be80     Learn_Image.obj
 0003:00002e88       ?_Psave@?$_Facetptr@V?$numpunct@D@std@@@std@@2PEBVfacet@locale@2@EB 000000018004be88     Learn_Image.obj
 0003:00002e90       ?_Psave@?$_Facetptr@V?$num_put@DV?$ostreambuf_iterator@DU?$char_traits@D@std@@@std@@@std@@@std@@2PEBVfacet@locale@2@EB 000000018004be90     Learn_Image.obj
 0003:00002e98       ?_Psave@?$_Facetptr@V?$ctype@D@std@@@std@@2PEBVfacet@locale@2@EB 000000018004be98     Learn_Image.obj
 0003:00002ea0       ?dispg@@3HA                000000018004bea0     MSC_Fast_optmz_warp_pthread.obj
 0003:00002ea4       ?dispInMid@@3HA            000000018004bea4     MSC_Fast_optmz_warp_pthread.obj
 0003:00002ea8       ?k_transformations@@3PEANEA 000000018004bea8     MSC_Fast_optmz_warp_pthread.obj
 0003:00002eb0       ?BPV@@3PEAVMat@cv@@EA      000000018004beb0     MSC_Fast_optmz_warp_pthread.obj
 0003:00002eb8       ?test_back@@3HA            000000018004beb8     MSC_Fast_optmz_warp_pthread.obj
 0003:00002ebc       ?t_total@@3IA              000000018004bebc     MSC_Fast_optmz_warp_pthread.obj
 0003:00002ec0       ?t_loop@@3IA               000000018004bec0     MSC_Fast_optmz_warp_pthread.obj
 0003:00002ec4       ?dispsc@@3HA               000000018004bec4     MSC_Fast_optmz_warp_pthread.obj
 0003:00002ec8       ?FPV@@3PEAVFwd_Path_Values@@EA 000000018004bec8     MSC_Fast_optmz_warp_pthread.obj
 0003:00002ed0       ?test_comp@@3HA            000000018004bed0     MSC_Fast_optmz_warp_pthread.obj
 0003:00002ed4       ?test_forw@@3HA            000000018004bed4     MSC_Fast_optmz_warp_pthread.obj
 0003:00002ed8       ?height@@3HA               000000018004bed8     jsmsc.obj
 0003:00002edc       ?width@@3HA                000000018004bedc     jsmsc.obj
 0003:00002ee0       ?C@@3VMat@cv@@A            000000018004bee0     MSC_Fast_optmz_warp_pthread.obj
 0003:00002f40       ?xT_val@@3V?$vector@NV?$allocator@N@std@@@std@@A 000000018004bf40     MSC_Fast_optmz_warp_pthread.obj
 0003:00002f58       ?rot_val@@3V?$vector@NV?$allocator@N@std@@@std@@A 000000018004bf58     MSC_Fast_optmz_warp_pthread.obj
 0003:00002f70       ?sc_val@@3V?$vector@NV?$allocator@N@std@@@std@@A 000000018004bf70     MSC_Fast_optmz_warp_pthread.obj
 0003:00002f88       ?yT_val@@3V?$vector@NV?$allocator@N@std@@@std@@A 000000018004bf88     MSC_Fast_optmz_warp_pthread.obj
 0003:00002fa0       ?img_size@@3V?$Size_@H@cv@@A 000000018004bfa0     jsmsc.obj
 0003:00002fa8       ?id@?$num_put@DV?$ostreambuf_iterator@DU?$char_traits@D@std@@@std@@@std@@2V0locale@2@A 000000018004bfa8     Learn_Image.obj
 0003:00002fb0       ?id@?$numpunct@D@std@@2V0locale@2@A 000000018004bfb0     Learn_Image.obj
 0003:00002fb8       __dyn_tls_init_callback    000000018004bfb8     <common>
 0003:00002fc0       __scrt_ucrt_dll_is_in_use  000000018004bfc0     <common>
 0006:00000000       _tls_start                 0000000180050000     LIBCMT:tlssup.obj
 0006:00000004       _Init_thread_epoch         0000000180050004     LIBCMT:thread_safe_statics.obj
 0006:00000008       _tls_end                   0000000180050008     LIBCMT:tlssup.obj

 entry point at        0001:00018a0c

 Static symbols

 0000:fffac000       .debug$S                   0000000180000000     node:node.exe
 0000:fffac000       .debug$S                   0000000180000000     node:node.exe
 0000:fffac000       .debug$S                   0000000180000000     node:node.exe
 0000:fffac000       .debug$S                   0000000180000000     node:node.exe
 0000:fffac000       .debug$S                   0000000180000000     node:node.exe
 0000:fffac000       .debug$S                   0000000180000000     node:node.exe
 0000:fffac000       .debug$S                   0000000180000000     node:node.exe
 0000:fffac000       .debug$S                   0000000180000000     kernel32:KERNEL32.dll
 0000:fffac000       .debug$S                   0000000180000000     node:node.exe
 0000:fffac000       .debug$S                   0000000180000000     node:node.exe
 0000:fffac000       .debug$S                   0000000180000000     node:node.exe
 0000:fffac000       .debug$S                   0000000180000000     node:node.exe
 0000:fffac000       .debug$S                   0000000180000000     kernel32:KERNEL32.dll
 0000:fffac000       .debug$S                   0000000180000000     kernel32:KERNEL32.dll
 0000:fffac000       .debug$S                   0000000180000000     kernel32:KERNEL32.dll
 0000:fffac000       .debug$S                   0000000180000000     node:node.exe
 0000:fffac000       .debug$S                   0000000180000000     kernel32:KERNEL32.dll
 0000:fffac000       .debug$S                   0000000180000000     opencv_core2411:opencv_core2411.dll
 0000:fffac000       .debug$S                   0000000180000000     opencv_core2411:opencv_core2411.dll
 0000:fffac000       .debug$S                   0000000180000000     opencv_core2411:opencv_core2411.dll
 0000:fffac000       .debug$S                   0000000180000000     node:node.exe
 0000:fffac000       .debug$S                   0000000180000000     opencv_core2411:opencv_core2411.dll
 0000:fffac000       .debug$S                   0000000180000000     node:node.exe
 0000:fffac000       .debug$S                   0000000180000000     opencv_calib3d2411:opencv_calib3d2411.dll
 0002:fffcb000       .idata$6                   0000000180000000     opencv_calib3d2411:opencv_calib3d2411.dll
 0000:fffac000       .debug$S                   0000000180000000     opencv_core2411:opencv_core2411.dll
 0000:fffac000       .debug$S                   0000000180000000     MSC_drone.exp
 0000:fffac000       .debug$S                   0000000180000000     opencv_core2411:opencv_core2411.dll
 0000:fffac000       .debug$S                   0000000180000000     opencv_core2411:opencv_core2411.dll
 0000:fffac000       .debug$S                   0000000180000000     opencv_core2411:opencv_core2411.dll
 0000:fffac000       .debug$S                   0000000180000000     opencv_core2411:opencv_core2411.dll
 0000:fffac000       .debug$S                   0000000180000000     opencv_core2411:opencv_core2411.dll
 0000:fffac000       .debug$S                   0000000180000000     opencv_core2411:opencv_core2411.dll
 0000:fffac000       .debug$S                   0000000180000000     opencv_core2411:opencv_core2411.dll
 0000:fffac000       .debug$S                   0000000180000000     opencv_core2411:opencv_core2411.dll
 0000:fffac000       .debug$S                   0000000180000000     opencv_core2411:opencv_core2411.dll
 0000:fffac000       .debug$S                   0000000180000000     opencv_core2411:opencv_core2411.dll
 0000:fffac000       .debug$S                   0000000180000000     opencv_core2411:opencv_core2411.dll
 0000:fffac000       .debug$S                   0000000180000000     opencv_core2411:opencv_core2411.dll
 0000:fffac000       .debug$S                   0000000180000000     opencv_core2411:opencv_core2411.dll
 0000:fffac000       .debug$S                   0000000180000000     opencv_core2411:opencv_core2411.dll
 0000:fffac000       .debug$S                   0000000180000000     opencv_core2411:opencv_core2411.dll
 0000:fffac000       .debug$S                   0000000180000000     opencv_core2411:opencv_core2411.dll
 0000:fffac000       .debug$S                   0000000180000000     opencv_core2411:opencv_core2411.dll
 0000:fffac000       .debug$S                   0000000180000000     opencv_core2411:opencv_core2411.dll
 0000:fffac000       .debug$S                   0000000180000000     opencv_core2411:opencv_core2411.dll
 0000:fffac000       .debug$S                   0000000180000000     opencv_core2411:opencv_core2411.dll
 0000:fffac000       .debug$S                   0000000180000000     opencv_core2411:opencv_core2411.dll
 0000:fffac000       .debug$S                   0000000180000000     opencv_core2411:opencv_core2411.dll
 0000:fffac000       .debug$S                   0000000180000000     opencv_core2411:opencv_core2411.dll
 0000:fffac000       .debug$S                   0000000180000000     opencv_core2411:opencv_core2411.dll
 0000:fffac000       .debug$S                   0000000180000000     opencv_core2411:opencv_core2411.dll
 0000:fffac000       .debug$S                   0000000180000000     opencv_core2411:opencv_core2411.dll
 0000:fffac000       .debug$S                   0000000180000000     opencv_core2411:opencv_core2411.dll
 0000:fffac000       .debug$S                   0000000180000000     opencv_core2411:opencv_core2411.dll
 0000:fffac000       .debug$S                   0000000180000000     opencv_core2411:opencv_core2411.dll
 0000:fffac000       .debug$S                   0000000180000000     opencv_core2411:opencv_core2411.dll
 0000:fffac000       .debug$S                   0000000180000000     opencv_core2411:opencv_core2411.dll
 0000:fffac000       .debug$S                   0000000180000000     opencv_core2411:opencv_core2411.dll
 0000:fffac000       .debug$S                   0000000180000000     opencv_core2411:opencv_core2411.dll
 0000:fffac000       .debug$S                   0000000180000000     opencv_core2411:opencv_core2411.dll
 0000:fffac000       .debug$S                   0000000180000000     opencv_core2411:opencv_core2411.dll
 0000:fffac000       .debug$S                   0000000180000000     opencv_core2411:opencv_core2411.dll
 0000:fffac000       .debug$S                   0000000180000000     opencv_core2411:opencv_core2411.dll
 0000:fffac000       .debug$S                   0000000180000000     opencv_core2411:opencv_core2411.dll
 0000:fffac000       .debug$S                   0000000180000000     advapi32:ADVAPI32.dll
 0000:fffac000       .debug$S                   0000000180000000     opencv_core2411:opencv_core2411.dll
 0000:fffac000       .debug$S                   0000000180000000     kernel32:KERNEL32.dll
 0000:fffac000       .debug$S                   0000000180000000     kernel32:KERNEL32.dll
 0000:fffac000       .debug$S                   0000000180000000     kernel32:KERNEL32.dll
 0000:fffac000       .debug$S                   0000000180000000     kernel32:KERNEL32.dll
 0000:fffac000       .debug$S                   0000000180000000     kernel32:KERNEL32.dll
 0000:fffac000       .debug$S                   0000000180000000     kernel32:KERNEL32.dll
 0000:fffac000       .debug$S                   0000000180000000     kernel32:KERNEL32.dll
 0000:fffac000       .debug$S                   0000000180000000     kernel32:KERNEL32.dll
 0000:fffac000       .debug$S                   0000000180000000     kernel32:KERNEL32.dll
 0000:fffac000       .debug$S                   0000000180000000     kernel32:KERNEL32.dll
 0000:fffac000       .debug$S                   0000000180000000     kernel32:KERNEL32.dll
 0000:fffac000       .debug$S                   0000000180000000     kernel32:KERNEL32.dll
 0000:fffac000       .debug$S                   0000000180000000     kernel32:KERNEL32.dll
 0000:fffac000       .debug$S                   0000000180000000     kernel32:KERNEL32.dll
 0000:fffac000       .debug$S                   0000000180000000     opencv_core2411:opencv_core2411.dll
 0000:fffac000       .debug$S                   0000000180000000     kernel32:KERNEL32.dll
 0000:fffac000       .debug$S                   0000000180000000     kernel32:KERNEL32.dll
 0000:fffac000       .debug$S                   0000000180000000     kernel32:KERNEL32.dll
 0000:fffac000       .debug$S                   0000000180000000     kernel32:KERNEL32.dll
 0000:fffac000       .debug$S                   0000000180000000     kernel32:KERNEL32.dll
 0000:fffac000       .debug$S                   0000000180000000     kernel32:KERNEL32.dll
 0000:fffac000       .debug$S                   0000000180000000     kernel32:KERNEL32.dll
 0000:fffac000       .debug$S                   0000000180000000     kernel32:KERNEL32.dll
 0000:fffac000       .debug$S                   0000000180000000     kernel32:KERNEL32.dll
 0000:fffac000       .debug$S                   0000000180000000     kernel32:KERNEL32.dll
 0000:fffac000       .debug$S                   0000000180000000     kernel32:KERNEL32.dll
 0000:fffac000       .debug$S                   0000000180000000     opencv_core2411:opencv_core2411.dll
 0000:fffac000       .debug$S                   0000000180000000     kernel32:KERNEL32.dll
 0000:fffac000       .debug$S                   0000000180000000     opencv_core2411:opencv_core2411.dll
 0000:fffac000       .debug$S                   0000000180000000     kernel32:KERNEL32.dll
 0000:fffac000       .debug$S                   0000000180000000     opencv_core2411:opencv_core2411.dll
 0000:fffac000       .debug$S                   0000000180000000     kernel32:KERNEL32.dll
 0000:fffac000       .debug$S                   0000000180000000     opencv_core2411:opencv_core2411.dll
 0000:fffac000       .debug$S                   0000000180000000     kernel32:KERNEL32.dll
 0000:fffac000       .debug$S                   0000000180000000     opencv_core2411:opencv_core2411.dll
 0000:fffac000       .debug$S                   0000000180000000     kernel32:KERNEL32.dll
 0000:fffac000       .debug$S                   0000000180000000     opencv_core2411:opencv_core2411.dll
 0000:fffac000       .debug$S                   0000000180000000     opencv_core2411:opencv_core2411.dll
 0000:fffac000       .debug$S                   0000000180000000     opencv_core2411:opencv_core2411.dll
 0000:fffac000       .debug$S                   0000000180000000     opencv_core2411:opencv_core2411.dll
 0000:fffac000       .debug$S                   0000000180000000     opencv_core2411:opencv_core2411.dll
 0000:fffac000       .debug$S                   0000000180000000     opencv_core2411:opencv_core2411.dll
 0000:fffac000       .debug$S                   0000000180000000     opencv_core2411:opencv_core2411.dll
 0000:fffac000       .debug$S                   0000000180000000     opencv_core2411:opencv_core2411.dll
 0000:fffac000       .debug$S                   0000000180000000     opencv_core2411:opencv_core2411.dll
 0000:fffac000       .debug$S                   0000000180000000     kernel32:KERNEL32.dll
 0000:fffac000       .debug$S                   0000000180000000     opencv_core2411:opencv_core2411.dll
 0000:fffac000       .debug$S                   0000000180000000     kernel32:KERNEL32.dll
 0000:fffac000       .debug$S                   0000000180000000     opencv_core2411:opencv_core2411.dll
 0000:fffac000       .debug$S                   0000000180000000     opencv_core2411:opencv_core2411.dll
 0000:fffac000       .debug$S                   0000000180000000     opencv_core2411:opencv_core2411.dll
 0000:fffac000       .debug$S                   0000000180000000     opencv_core2411:opencv_core2411.dll
 0000:fffac000       .debug$S                   0000000180000000     kernel32:KERNEL32.dll
 0000:fffac000       .debug$S                   0000000180000000     kernel32:KERNEL32.dll
 0000:fffac000       .debug$S                   0000000180000000     opencv_core2411:opencv_core2411.dll
 0000:fffac000       .debug$S                   0000000180000000     kernel32:KERNEL32.dll
 0000:fffac000       .debug$S                   0000000180000000     kernel32:KERNEL32.dll
 0000:fffac000       .debug$S                   0000000180000000     kernel32:KERNEL32.dll
 0000:fffac000       .debug$S                   0000000180000000     kernel32:KERNEL32.dll
 0000:fffac000       .debug$S                   0000000180000000     kernel32:KERNEL32.dll
 0000:fffac000       .debug$S                   0000000180000000     kernel32:KERNEL32.dll
 0000:fffac000       .debug$S                   0000000180000000     kernel32:KERNEL32.dll
 0000:fffac000       .debug$S                   0000000180000000     kernel32:KERNEL32.dll
 0000:fffac000       .debug$S                   0000000180000000     opencv_core2411:opencv_core2411.dll
 0000:fffac000       .debug$S                   0000000180000000     kernel32:KERNEL32.dll
 0000:fffac000       .debug$S                   0000000180000000     opencv_core2411:opencv_core2411.dll
 0000:fffac000       .debug$S                   0000000180000000     opencv_core2411:opencv_core2411.dll
 0000:fffac000       .debug$S                   0000000180000000     kernel32:KERNEL32.dll
 0000:fffac000       .debug$S                   0000000180000000     kernel32:KERNEL32.dll
 0000:fffac000       .debug$S                   0000000180000000     opencv_core2411:opencv_core2411.dll
 0000:fffac000       .debug$S                   0000000180000000     opencv_core2411:opencv_core2411.dll
 0000:fffac000       .debug$S                   0000000180000000     opencv_core2411:opencv_core2411.dll
 0000:fffac000       .debug$S                   0000000180000000     opencv_core2411:opencv_core2411.dll
 0000:fffac000       .debug$S                   0000000180000000     opencv_features2d2411:opencv_features2d2411.dll
 0000:fffac000       .debug$S                   0000000180000000     opencv_features2d2411:opencv_features2d2411.dll
 0000:fffac000       .debug$S                   0000000180000000     opencv_features2d2411:opencv_features2d2411.dll
 0000:fffac000       .debug$S                   0000000180000000     opencv_features2d2411:opencv_features2d2411.dll
 0000:fffac000       .debug$S                   0000000180000000     opencv_features2d2411:opencv_features2d2411.dll
 0000:fffac000       .debug$S                   0000000180000000     opencv_features2d2411:opencv_features2d2411.dll
 0000:fffac000       .debug$S                   0000000180000000     opencv_features2d2411:opencv_features2d2411.dll
 0000:fffac000       .debug$S                   0000000180000000     opencv_features2d2411:opencv_features2d2411.dll
 0000:fffac000       .debug$S                   0000000180000000     opencv_features2d2411:opencv_features2d2411.dll
 0002:fffcb000       .idata$6                   0000000180000000     opencv_features2d2411:opencv_features2d2411.dll
 0000:fffac000       .debug$S                   0000000180000000     opencv_flann2411:opencv_flann2411.dll
 0000:fffac000       .debug$S                   0000000180000000     opencv_flann2411:opencv_flann2411.dll
 0000:fffac000       .debug$S                   0000000180000000     opencv_flann2411:opencv_flann2411.dll
 0002:fffcb000       .idata$6                   0000000180000000     opencv_flann2411:opencv_flann2411.dll
 0000:fffac000       .debug$S                   0000000180000000     opencv_highgui2411:opencv_highgui2411.dll
 0000:fffac000       .debug$S                   0000000180000000     opencv_highgui2411:opencv_highgui2411.dll
 0000:fffac000       .debug$S                   0000000180000000     opencv_highgui2411:opencv_highgui2411.dll
 0000:fffac000       .debug$S                   0000000180000000     opencv_highgui2411:opencv_highgui2411.dll
 0000:fffac000       .debug$S                   0000000180000000     opencv_highgui2411:opencv_highgui2411.dll
 0000:fffac000       .debug$S                   0000000180000000     opencv_imgproc2411:opencv_imgproc2411.dll
 0000:fffac000       .debug$S                   0000000180000000     opencv_imgproc2411:opencv_imgproc2411.dll
 0000:fffac000       .debug$S                   0000000180000000     opencv_imgproc2411:opencv_imgproc2411.dll
 0000:fffac000       .debug$S                   0000000180000000     opencv_imgproc2411:opencv_imgproc2411.dll
 0000:fffac000       .debug$S                   0000000180000000     opencv_imgproc2411:opencv_imgproc2411.dll
 0000:fffac000       .debug$S                   0000000180000000     opencv_imgproc2411:opencv_imgproc2411.dll
 0000:fffac000       .debug$S                   0000000180000000     opencv_imgproc2411:opencv_imgproc2411.dll
 0000:fffac000       .debug$S                   0000000180000000     opencv_imgproc2411:opencv_imgproc2411.dll
 0000:fffac000       .debug$S                   0000000180000000     kernel32:KERNEL32.dll
 0000:fffac000       .debug$S                   0000000180000000     kernel32:KERNEL32.dll
 0000:fffac000       .debug$S                   0000000180000000     opencv_imgproc2411:opencv_imgproc2411.dll
 0000:fffac000       .debug$S                   0000000180000000     kernel32:KERNEL32.dll
 0000:fffac000       .debug$S                   0000000180000000     opencv_imgproc2411:opencv_imgproc2411.dll
 0000:fffac000       .debug$S                   0000000180000000     kernel32:KERNEL32.dll
 0000:fffac000       .debug$S                   0000000180000000     kernel32:KERNEL32.dll
 0000:fffac000       .debug$S                   0000000180000000     opencv_imgproc2411:opencv_imgproc2411.dll
 0000:fffac000       .debug$S                   0000000180000000     kernel32:KERNEL32.dll
 0000:fffac000       .debug$S                   0000000180000000     opencv_imgproc2411:opencv_imgproc2411.dll
 0000:fffac000       .debug$S                   0000000180000000     opencv_imgproc2411:opencv_imgproc2411.dll
 0000:fffac000       .debug$S                   0000000180000000     kernel32:KERNEL32.dll
 0000:fffac000       .debug$S                   0000000180000000     opencv_nonfree2411:opencv_nonfree2411.dll
 0000:fffac000       .debug$S                   0000000180000000     opencv_nonfree2411:opencv_nonfree2411.dll
 0000:fffac000       .debug$S                   0000000180000000     kernel32:KERNEL32.dll
 0002:fffcb000       .idata$6                   0000000180000000     opencv_nonfree2411:opencv_nonfree2411.dll
 0000:fffac000       .debug$S                   0000000180000000     kernel32:KERNEL32.dll
 0000:fffac000       .debug$S                   0000000180000000     kernel32:KERNEL32.dll
 0000:fffac000       .debug$S                   0000000180000000     kernel32:KERNEL32.dll
 0000:fffac000       .debug$S                   0000000180000000     kernel32:KERNEL32.dll
 0000:fffac000       .debug$S                   0000000180000000     kernel32:KERNEL32.dll
 0000:fffac000       .debug$S                   0000000180000000     kernel32:KERNEL32.dll
 0000:fffac000       .debug$S                   0000000180000000     kernel32:KERNEL32.dll
 0000:fffac000       .debug$S                   0000000180000000     kernel32:KERNEL32.dll
 0000:fffac000       .debug$S                   0000000180000000     kernel32:KERNEL32.dll
 0000:fffac000       .debug$S                   0000000180000000     kernel32:KERNEL32.dll
 0000:fffac000       .debug$S                   0000000180000000     kernel32:KERNEL32.dll
 0000:fffac000       .debug$S                   0000000180000000     kernel32:KERNEL32.dll
 0000:fffac000       .debug$S                   0000000180000000     kernel32:KERNEL32.dll
 0000:fffac000       .debug$S                   0000000180000000     kernel32:KERNEL32.dll
 0000:fffac000       .debug$S                   0000000180000000     kernel32:KERNEL32.dll
 0000:fffac000       .debug$S                   0000000180000000     kernel32:KERNEL32.dll
 0000:fffac000       .debug$S                   0000000180000000     kernel32:KERNEL32.dll
 0000:fffac000       .debug$S                   0000000180000000     kernel32:KERNEL32.dll
 0000:fffac000       .debug$S                   0000000180000000     kernel32:KERNEL32.dll
 0000:fffac000       .debug$S                   0000000180000000     kernel32:KERNEL32.dll
 0000:fffac000       .debug$S                   0000000180000000     kernel32:KERNEL32.dll
 0000:fffac000       .debug$S                   0000000180000000     kernel32:KERNEL32.dll
 0000:fffac000       .debug$S                   0000000180000000     kernel32:KERNEL32.dll
 0000:fffac000       .debug$S                   0000000180000000     kernel32:KERNEL32.dll
 0000:fffac000       .debug$S                   0000000180000000     kernel32:KERNEL32.dll
 0000:fffac000       .debug$S                   0000000180000000     kernel32:KERNEL32.dll
 0000:fffac000       .debug$S                   0000000180000000     kernel32:KERNEL32.dll
 0000:fffac000       .debug$S                   0000000180000000     kernel32:KERNEL32.dll
 0000:fffac000       .debug$S                   0000000180000000     kernel32:KERNEL32.dll
 0000:fffac000       .debug$S                   0000000180000000     kernel32:KERNEL32.dll
 0000:fffac000       .debug$S                   0000000180000000     kernel32:KERNEL32.dll
 0000:fffac000       .debug$S                   0000000180000000     kernel32:KERNEL32.dll
 0000:fffac000       .debug$S                   0000000180000000     kernel32:KERNEL32.dll
 0000:fffac000       .debug$S                   0000000180000000     kernel32:KERNEL32.dll
 0000:fffac000       .debug$S                   0000000180000000     kernel32:KERNEL32.dll
 0000:fffac000       .debug$S                   0000000180000000     kernel32:KERNEL32.dll
 0000:fffac000       .debug$S                   0000000180000000     kernel32:KERNEL32.dll
 0000:fffac000       .debug$S                   0000000180000000     kernel32:KERNEL32.dll
 0000:fffac000       .debug$S                   0000000180000000     kernel32:KERNEL32.dll
 0001:000001e0       ??__ExT_val@@YAXXZ         00000001800011e0 f   MSC_Fast_optmz_warp_pthread.obj
 0001:00000220       ??__EyT_val@@YAXXZ         0000000180001220 f   MSC_Fast_optmz_warp_pthread.obj
 0001:00000260       ??__Erot_val@@YAXXZ        0000000180001260 f   MSC_Fast_optmz_warp_pthread.obj
 0001:000002a0       ??__Esc_val@@YAXXZ         00000001800012a0 f   MSC_Fast_optmz_warp_pthread.obj
 0001:000002e0       ??__EC@@YAXXZ              00000001800012e0 f   MSC_Fast_optmz_warp_pthread.obj
 0001:00000880       ??__Ecropped_memory_images@@YAXXZ 0000000180001880 f   jsmsc.obj
 0001:0000088c       ??__Einitlocks@std@@YAXXZ  000000018000188c f   libcpmt:xlock.obj
 0001:000008ac       ??__Ecout@std@@YAXXZ       00000001800018ac f   libcpmt:cout.obj
 0001:000008dc       ??__Efout@std@@YAXXZ       00000001800018dc f   libcpmt:cout.obj
 0001:0000092c       ??__Einit_cout@std@@YAXXZ  000000018000192c f   libcpmt:cout.obj
 0001:00000938       ??__Einitlocks@@YAXXZ      0000000180001938 f   libcpmt:cout.obj
 0001:00000958       ??__E_Fac_tidy_reg@std@@YAXXZ 0000000180001958 f   libcpmt:locale0.obj
 0001:00000964       ??__Eclassic_locale@std@@YAXXZ 0000000180001964 f   libcpmt:locale0.obj
 0001:00000970       ??__Einit_atexit@@YAXXZ    0000000180001970 f   libcpmt:iosptrs.obj
 0001:0000097c       ??__Einitlocks@std@@YAXXZ  000000018000197c f   libcpmt:iosptrs.obj
 0001:00012dc0       ??$?6MN@cv@@YA?AV?$MatCommaInitializer_@M@0@AEBV?$Mat_@M@0@N@Z 0000000180013dc0 f   MSC_Fast_optmz_warp_pthread.obj
 0001:000139a0       load_exe_hook              00000001800149a0 f   win_delay_load_hook.obj
 0001:00014e70       _register_addon            0000000180015e70 f   jsmsc.obj
 0001:00016370       no_op_initialize           0000000180017370 f i libucrt:wsetlocale.obj
 0001:00016d64       tidy_global                0000000180017d64 f   libcpmt:locale0.obj
 0001:00017824       ?initialize_pointers@@YAHXZ 0000000180018824 f   libcpmt:winapisupp.obj
 0001:00017f30       $$000000                   0000000180018f30     LIBCMT:_amdsecgs_.obj
 0001:00017f74       ?__scrt_initialize_thread_safe_statics@@YAHXZ 0000000180018f74 f   LIBCMT:thread_safe_statics.obj
 0001:00018094       ?__scrt_uninitialize_thread_safe_statics@@YAXXZ 0000000180019094 f   LIBCMT:thread_safe_statics.obj
 0001:000186b0       ?dllmain_crt_dispatch@@YAHQEAUHINSTANCE__@@KQEAX@Z 00000001800196b0 f   LIBCMT:dll_dllmain.obj
 0001:00018700       ?dllmain_crt_process_attach@@YAHQEAUHINSTANCE__@@QEAX@Z 0000000180019700 f   LIBCMT:dll_dllmain.obj
 0001:0001882c       ?dllmain_crt_process_detach@@YAH_N@Z 000000018001982c f   LIBCMT:dll_dllmain.obj
 0001:000188b0       ?dllmain_dispatch@@YAHQEAUHINSTANCE__@@KQEAX@Z 00000001800198b0 f   LIBCMT:dll_dllmain.obj
 0001:000189b8       ?dllmain_raw@@YAHQEAUHINSTANCE__@@KQEAX@Z 00000001800199b8 f   LIBCMT:dll_dllmain.obj
 0001:00018b60       $$000000                   0000000180019b60     LIBCMT:_chkstk_.obj
 0001:00018d7c       capture_current_context    0000000180019d7c f   LIBCMT:gs_report.obj
 0001:00018dec       capture_previous_context   0000000180019dec f   LIBCMT:gs_report.obj
 0001:000193b0       $$000000                   000000018001a3b0     libvcruntime:memcpy.obj
 0001:00019457       MoveSmall                  000000018001a457     libvcruntime:memcpy.obj
 0001:0001991c       ?CatchIt@@YAXPEAUEHExceptionRecord@@PEA_KPEAU_CONTEXT@@PEAU_xDISPATCHER_CONTEXT@@PEBU_s_FuncInfo@@PEBU_s_HandlerType@@PEBU_s_CatchableType@@PEBU_s_TryBlockMapEntry@@H1EE@Z 000000018001a91c f   libvcruntime:frame.obj
 0001:000199e0       ?ExFilterRethrow@@YAHPEAU_EXCEPTION_POINTERS@@PEAUEHExceptionRecord@@PEAH@Z 000000018001a9e0 f   libvcruntime:frame.obj
 0001:00019a68       ?FindHandler@@YAXPEAUEHExceptionRecord@@PEA_KPEAU_CONTEXT@@PEAU_xDISPATCHER_CONTEXT@@PEBU_s_FuncInfo@@EH1@Z 000000018001aa68 f   libvcruntime:frame.obj
 0001:00019f18       ?FindHandlerForForeignException@@YAXPEAUEHExceptionRecord@@PEA_KPEAU_CONTEXT@@PEAU_xDISPATCHER_CONTEXT@@PEBU_s_FuncInfo@@HH1@Z 000000018001af18 f   libvcruntime:frame.obj
 0001:0001a170       ?IsInExceptionSpec@@YAEPEAUEHExceptionRecord@@PEBU_s_ESTypeList@@@Z 000000018001b170 f   libvcruntime:frame.obj
 0001:0001b470       $$000000                   000000018001c470     libvcruntime:memset.obj
 0001:0001b55c       MsetTab                    000000018001c55c     libvcruntime:memset.obj
 0001:0001b620       $$000000                   000000018001c620     libvcruntime:memcmp.obj
 0001:0001b6f8       ?try_get_function@@YAPEAXW4function_id@?A0x61ce2399@@QEBDQEBW4module_id@2@2@Z 000000018001c6f8 f   libvcruntime:winapi_downlevel.obj
 0001:0001bf94       _TlgDefineProvider_annotation__Tlg_Microsoft_CRTProviderProv 000000018001cf94 f   libvcruntime:telemetry.obj
 0001:0001c520       $$000000                   000000018001d520     libvcruntime:handlers.obj
 0001:0001c570       $$000000                   000000018001d570     libvcruntime:_jmpuwind_.obj
 0001:0001cc38       ??$common_vsprintf@Vformat_validation_base@__crt_stdio_output@@D@@YAH_KQEAD0QEBDQEAU__crt_locale_pointers@@1@Z 000000018001dc38 f   libucrt:output.obj
 0001:0001d1e0       ??R<lambda_0a64b6a4deda75c01876f29c44fc5eb3>@@QEBAHXZ 000000018001e1e0 f   libucrt:output.obj
 0001:0001ee58       ?atexit_exception_filter@@YAHK@Z 000000018001fe58 f   libucrt:exit.obj
 0001:0001ee64       ?common_exit@@YAXHW4_crt_exit_cleanup_mode@@W4_crt_exit_return_mode@@@Z 000000018001fe64 f   libucrt:exit.obj
 0001:0001efd0       ?exit_or_terminate_process@@YAXI@Z 000000018001ffd0 f   libucrt:exit.obj
 0001:0001f01c       ?try_cor_exit_process@@YAXI@Z 000000018002001c f   libucrt:exit.obj
 0001:0001f6ec       common_flush_all           00000001800206ec f   libucrt:fflush.obj
 0001:0001fb18       ?common_fseek@@YAHV__crt_stdio_stream@@_JH@Z 0000000180020b18 f   libucrt:fseek.obj
 0001:0001fb84       ?common_fseek_binary_mode_read_only_fast_track_nolock@@YA_NV__crt_stdio_stream@@_JH@Z 0000000180020b84 f   libucrt:fseek.obj
 0001:0001fc94       ?common_fseek_nolock@@YAHV__crt_stdio_stream@@_JH@Z 0000000180020c94 f   libucrt:fseek.obj
 0001:0001fdd4       ??R<lambda_532e024f4337e6fc7ad266c2bef9f4ed>@@QEBA_KXZ 0000000180020dd4 f   libucrt:fwrite.obj
 0001:00020098       ??R<lambda_b721fa326cdb32351d23dfa67958c160>@@QEBAHXZ 0000000180021098 f   libucrt:setvbuf.obj
 0001:000203a0       call_wsetlocale            00000001800213a0 f   libucrt:setlocale.obj
 0001:00020f44       ?x_ismbbtype_l@@YAHPEAU__crt_locale_pointers@@IHH@Z 0000000180021f44 f   libucrt:ismbbyte.obj
 0001:0002110c       ?internal_isupper_l@@YA_NHQEAU__crt_locale_pointers@@@Z 000000018002210c f   libucrt:tolower_toupper.obj
 0001:00021970       ??$common_initialize_environment_nolock@D@@YAHXZ 0000000180022970 f   libucrt:environment_initialization.obj
 0001:000219dc       ??$create_environment@D@@YAQEAPEADQEAD@Z 00000001800229dc f   libucrt:environment_initialization.obj
 0001:00021ad8       ??$free_environment@D@@YAXQEAPEAD@Z 0000000180022ad8 f   libucrt:environment_initialization.obj
 0001:00021ad8       ??$free_environment@_W@@YAXQEAPEA_W@Z 0000000180022ad8 f   libucrt:environment_initialization.obj
 0001:00021b1c       ??$uninitialize_environment_internal@D@@YAXAEAPEAPEAD@Z 0000000180022b1c f   libucrt:environment_initialization.obj
 0001:00021b38       ??$uninitialize_environment_internal@_W@@YAXAEAPEAPEA_W@Z 0000000180022b38 f   libucrt:environment_initialization.obj
 0001:00021d70       ??R<lambda_4e60a939b0d047cfe11ddc22648dfba9>@@QEBAHXZ 0000000180022d70 f   libucrt:onexit.obj
 0001:00022020       initialize_global_variables 0000000180023020 f   libucrt:initialization.obj
 0001:00022034       initialize_c               0000000180023034 f   libucrt:initialization.obj
 0001:00022058       uninitialize_c             0000000180023058 f   libucrt:initialization.obj
 0001:00022058       initialize_global_state_isolation 0000000180023058 f   libucrt:initialization.obj
 0001:00022058       initialize_environment     0000000180023058 f   libucrt:initialization.obj
 0001:00022058       uninitialize_global_state_isolation 0000000180023058 f   libucrt:initialization.obj
 0001:00022058       report_memory_leaks        0000000180023058 f   libucrt:initialization.obj
 0001:0002205c       uninitialize_environment   000000018002305c f   libucrt:initialization.obj
 0001:0002206c       initialize_pointers        000000018002306c f   libucrt:initialization.obj
 0001:000220c0       uninitialize_vcruntime     00000001800230c0 f   libucrt:initialization.obj
 0001:000220c8       uninitialize_allocated_memory 00000001800230c8 f   libucrt:initialization.obj
 0001:00022e7c       ?construct_ptd_array@@YAXQEAU__acrt_ptd@@@Z 0000000180023e7c f   libucrt:per_thread_data.obj
 0001:00022f4c       ?destroy_fls@@YAXPEAX@Z    0000000180023f4c f   libucrt:per_thread_data.obj
 0001:00022f6c       ?destroy_ptd_array@@YAXQEAU__acrt_ptd@@@Z 0000000180023f6c f   libucrt:per_thread_data.obj
 0001:00023064       ?replace_current_thread_locale_nolock@@YAXQEAU__acrt_ptd@@QEAU__crt_locale_data@@@Z 0000000180024064 f   libucrt:per_thread_data.obj
 0001:000235d8       ?<helper_func_cdecl>@<lambda_e2bb8337c48846e80c921ea5ddadc92d>@@CAHPEA_W@Z 00000001800245d8 f   libucrt:winapi_thunks.obj
 0001:000236b4       ?try_get_function@@YAPEAXW4function_id@?A0x63058377@@QEBDQEBW4module_id@2@2@Z 00000001800246b4 f   libucrt:winapi_thunks.obj
 0001:00024064       ?initialize_inherited_file_handles_nolock@@YAXXZ 0000000180025064 f   libucrt:ioinit.obj
 0001:00024150       ?initialize_stdio_handles_nolock@@YAXXZ 0000000180025150 f   libucrt:ioinit.obj
 0001:000246b0       ?fp_format_a@@YAHQEBNPEAD_KQEAD2H_NIQEAU__crt_locale_pointers@@@Z 00000001800256b0 f   libucrt:cvt.obj
 0001:00024a10       ?fp_format_e@@YAHQEBNQEAD_K12H_NIQEAU__crt_locale_pointers@@@Z 0000000180025a10 f   libucrt:cvt.obj
 0001:00024ae0       ?fp_format_e_internal@@YAHQEAD_KH_NIQEAU_strflt@@2QEAU__crt_locale_pointers@@@Z 0000000180025ae0 f   libucrt:cvt.obj
 0001:00024cbc       ?fp_format_f_internal@@YAHQEAD_KHQEAU_strflt@@_NQEAU__crt_locale_pointers@@@Z 0000000180025cbc f   libucrt:cvt.obj
 0001:00024e04       ?fp_format_g@@YAHQEBNQEAD_K12H_NIQEAU__crt_locale_pointers@@@Z 0000000180025e04 f   libucrt:cvt.obj
 0001:00024f3c       ?fp_format_nan_or_infinity@@YAHW4__acrt_fp_class@@_NPEAD_K1@Z 0000000180025f3c f   libucrt:cvt.obj
 0001:00025578       ??R<lambda_2af78c5f5901b1372d98f9ab3177dfa6>@@QEBAXXZ 0000000180026578 f   libucrt:wsetlocale.obj
 0001:0002593c       _copytlocinfo_nolock       000000018002693c f   libucrt:wsetlocale.obj
 0001:00025efc       _wsetlocale_get_all        0000000180026efc f   libucrt:wsetlocale.obj
 0001:000260e4       _wsetlocale_nolock         00000001800270e4 f   libucrt:wsetlocale.obj
 0001:0002636c       _wsetlocale_set_cat        000000018002736c f   libucrt:wsetlocale.obj
 0001:00027664       ?write_double_translated_ansi_nolock@@YA?AUwrite_result@?A0x9c548279@@HQEBDI@Z 0000000180028664 f   libucrt:write.obj
 0001:0002786c       ?write_text_ansi_nolock@@YA?AUwrite_result@?A0x9c548279@@HQEBDI@Z 000000018002886c f   libucrt:write.obj
 0001:00027974       ?write_text_utf16le_nolock@@YA?AUwrite_result@?A0x9c548279@@HQEBDI@Z 0000000180028974 f   libucrt:write.obj
 0001:00027a90       ?write_text_utf8_nolock@@YA?AUwrite_result@?A0x9c548279@@HQEBDI@Z 0000000180028a90 f   libucrt:write.obj
 0001:00027fd4       ??$common_refill_and_read_nolock@D@@YAHV__crt_stdio_stream@@@Z 0000000180028fd4 f   libucrt:_filbuf.obj
 0001:00028184       ??$common_ftell@_J@@YA_JV__crt_stdio_stream@@@Z 0000000180029184 f   libucrt:ftell.obj
 0001:000281d8       ??$common_ftell_nolock@_J@@YA_JV__crt_stdio_stream@@@Z 00000001800291d8 f   libucrt:ftell.obj
 0001:00028350       ?common_ftell_read_mode_nolock@@YA_JV__crt_stdio_stream@@_J1@Z 0000000180029350 f   libucrt:ftell.obj
 0001:000284c8       ?common_ftell_translated_utf8_nolock@@YA_JV__crt_stdio_stream@@_J@Z 00000001800294c8 f   libucrt:ftell.obj
 0001:00028650       ??$write_buffer_nolock@D@@YA_NDV__crt_stdio_stream@@@Z 0000000180029650 f   libucrt:_flsbuf.obj
 0001:0002883c       ??$common_lseek@_J@@YA_JH_JH@Z 000000018002983c f   libucrt:lseek.obj
 0001:0002892c       ??$common_lseek_nolock@_J@@YA_JH_JH@Z 000000018002992c f   libucrt:lseek.obj
 0001:00028a3c       ?_mbstowcs_l_helper@@YA_KPEA_WPEBD_KPEAU__crt_locale_pointers@@@Z 0000000180029a3c f   libucrt:mbstowcs.obj
 0001:00028d68       ?_wcstombs_l_helper@@YA_KPEADPEB_W_KPEAU__crt_locale_pointers@@@Z 0000000180029d68 f   libucrt:wcstombs.obj
 0001:000292c8       ?InternalGetLocaleInfoA@@YAHQEAU__crt_locale_pointers@@QEB_WKQEADH@Z 000000018002a2c8 f   libucrt:getlocaleinfoa.obj
 0001:000297e4       ?__acrt_LCMapStringA_stat@@YAHPEAU__crt_locale_pointers@@PEB_WKPEBDHPEADHHH@Z 000000018002a7e4 f   libucrt:lcmapstringa.obj
 0001:00029dc0       _call_matherr              000000018002adc0 f   libucrt:libm_error.obj
 0001:00029e28       _exception_enabled         000000018002ae28 f   libucrt:libm_error.obj
 0001:0002a1a4       ??R<lambda_ad1ced32f4ac17aa236e5ef05d6b3b7c>@@QEBAXXZ 000000018002b1a4 f   libucrt:mbctype.obj
 0001:0002a3bc       ?getSystemCP@@YAHH@Z       000000018002b3bc f   libucrt:mbctype.obj
 0001:0002a43c       ?setSBCS@@YAXPEAU__crt_multibyte_data@@@Z 000000018002b43c f   libucrt:mbctype.obj
 0001:0002a4cc       ?setSBUpLow@@YAXPEAU__crt_multibyte_data@@@Z 000000018002b4cc f   libucrt:mbctype.obj
 0001:0002a6b0       ?setmbcp_internal@@YAHH_N@Z 000000018002b6b0 f   libucrt:mbctype.obj
 0001:0002b394       ?GetTableIndexFromLocaleName@@YAHPEB_W@Z 000000018002c394 f   libucrt:lcidtoname_downlevel.obj
 0001:0002d18c       memcpy_s                   000000018002e18c f   libucrt:cfout.obj
 0001:0002dc04       ?free_crt_array_internal@@YAXQEAPEBX_K@Z 000000018002ec04 f   libucrt:inittime.obj
 0001:0002dc5c       ?initialize_lc_time@@YA_NQEAU__crt_lc_time_data@@QEAU__crt_locale_data@@@Z 000000018002ec5c f   libucrt:inittime.obj
 0001:0002e34c       GetLocaleNameFromDefault   000000018002f34c f   libucrt:get_qualified_locale.obj
 0001:0002e3f4       GetLocaleNameFromLangCountry 000000018002f3f4 f   libucrt:get_qualified_locale.obj
 0001:0002e4c4       GetLocaleNameFromLanguage  000000018002f4c4 f   libucrt:get_qualified_locale.obj
 0001:0002e560       LangCountryEnumProcEx      000000018002f560 f   libucrt:get_qualified_locale.obj
 0001:0002e914       LanguageEnumProcEx         000000018002f914 f   libucrt:get_qualified_locale.obj
 0001:0002ea00       ProcessCodePage            000000018002fa00 f   libucrt:get_qualified_locale.obj
 0001:0002eab4       TestDefaultCountry         000000018002fab4 f   libucrt:get_qualified_locale.obj
 0001:0002eb1c       TranslateName              000000018002fb1c f   libucrt:get_qualified_locale.obj
 0001:0002edd8       CountryEnumProc            000000018002fdd8 f   libucrt:getqloc_downlevel.obj
 0001:0002eec4       GetLcidFromLangCountry     000000018002fec4 f   libucrt:getqloc_downlevel.obj
 0001:0002ef94       GetLcidFromLanguage        000000018002ff94 f   libucrt:getqloc_downlevel.obj
 0001:0002f02c       LangCountryEnumProc        000000018003002c f   libucrt:getqloc_downlevel.obj
 0001:0002f270       LanguageEnumProc           0000000180030270 f   libucrt:getqloc_downlevel.obj
 0001:0002f36c       LcidFromHexString          000000018003036c f   libucrt:getqloc_downlevel.obj
 0001:0002f3bc       ProcessCodePage            00000001800303bc f   libucrt:getqloc_downlevel.obj
 0001:0002f46c       TestDefaultLanguage        000000018003046c f   libucrt:getqloc_downlevel.obj
 0001:0002f518       TranslateName              0000000180030518 f   libucrt:getqloc_downlevel.obj
 0001:0002f840       $$000000                   0000000180030840     libucrt:fpsr.obj
 0001:0002f984       ??$translate_text_mode_nolock@_W@@YAHHQEA_W_K@Z 0000000180030984 f   libucrt:read.obj
 0001:0002fbb4       ?translate_ansi_or_utf8_nolock@@YAHHQEAD_KQEA_W1@Z 0000000180030bb4 f   libucrt:read.obj
 0001:000305cc       ?initialize_multibyte@@YAHXZ 00000001800315cc f   libucrt:multibyte_initializer.obj
 0001:000307b0       $$000000                   00000001800317b0     libucrt:log10.obj
 0001:00030d5c       ??$common_xtox@K_W@@YAHKQEA_W_KI_N@Z 0000000180031d5c f   libucrt:xtoa.obj
 0001:00030e08       ??$common_xtox_s@K_W@@YAHKQEA_W_KI_N@Z 0000000180031e08 f   libucrt:xtoa.obj
 0001:00031138       common_control87           0000000180032138 f   libucrt:ieee.obj
 0001:00031550       _log_special_common        0000000180032550 f   libucrt:log_special.obj
 0001:00032160       $$000000                   0000000180033160     libucrt:cos.obj
 0001:000326e0       $$000000                   00000001800336e0     libucrt:sin.obj
 0001:00032d00       $$000000                   0000000180033d00     libucrt:remainder_piby2_forasm.obj
 0001:00033050       $$000000                   0000000180034050     libucrt:remainder_piby2_forfma3.obj
 0001:000332e0       _sincos_special            00000001800342e0 f   libucrt:sincos_special.obj
 0001:00033390       $$000000                   0000000180034390     LIBCMT:_guard_dispatch_.obj
 0001:000333b0       ?dtor$0@?0???$use_facet@V?$codecvt@DDU_Mbstatet@@@std@@@std@@YAAEBV?$codecvt@DDU_Mbstatet@@@0@AEBVlocale@0@@Z@4HA 00000001800343b0 f   libcpmt:cout.obj
 0001:000333bc       ?dtor$0@?0???0?$basic_ostream@DU?$char_traits@D@std@@@std@@QEAA@PEAV?$basic_streambuf@DU?$char_traits@D@std@@@1@_N@Z@4HA 00000001800343bc f   libcpmt:cout.obj
 0001:000333e6       ?dtor$0@?0???_G?$basic_ios@DU?$char_traits@D@std@@@std@@UEAAPEAXI@Z@4HA 00000001800343e6 f   libcpmt:cout.obj
 0001:000333eb       ?dtor$1@?0???_G?$basic_ios@DU?$char_traits@D@std@@@std@@UEAAPEAXI@Z@4HA 00000001800343eb f   libcpmt:cout.obj
 0001:000333f0       ?dtor$0@?0???_G?$basic_ostream@DU?$char_traits@D@std@@@std@@UEAAPEAXI@Z@4HA 00000001800343f0 f   libcpmt:cout.obj
 0001:000333f0       ?dtor$0@?0???__Fcout@std@@YAXXZ@4HA 00000001800343f0 f   libcpmt:cout.obj
 0001:000333f5       ?dtor$2@?0???_G?$basic_ostream@DU?$char_traits@D@std@@@std@@UEAAPEAXI@Z@4HA 00000001800343f5 f   libcpmt:cout.obj
 0001:000333f5       ?dtor$2@?0???__Fcout@std@@YAXXZ@4HA 00000001800343f5 f   libcpmt:cout.obj
 0001:000333fa       ?dtor$3@?0???_G?$basic_ostream@DU?$char_traits@D@std@@@std@@UEAAPEAXI@Z@4HA 00000001800343fa f   libcpmt:cout.obj
 0001:000333fa       ?dtor$3@?0???__Fcout@std@@YAXXZ@4HA 00000001800343fa f   libcpmt:cout.obj
 0001:000333ff       ?dtor$0@?0??_Endwrite@?$basic_filebuf@DU?$char_traits@D@std@@@std@@IEAA_NXZ@4HA 00000001800343ff f   libcpmt:cout.obj
 0001:0003340b       ?dtor$0@?0??_Getcat@?$codecvt@DDU_Mbstatet@@@std@@SA_KPEAPEBVfacet@locale@2@PEBV42@@Z@4HA 000000018003440b f   libcpmt:cout.obj
 0001:0003342b       ?dtor$0@?0??uflow@?$basic_filebuf@DU?$char_traits@D@std@@@std@@MEAAHXZ@4HA 000000018003442b f   libcpmt:cout.obj
 0001:0003342b       ?dtor$0@?0??overflow@?$basic_filebuf@DU?$char_traits@D@std@@@std@@MEAAHH@Z@4HA 000000018003442b f   libcpmt:cout.obj
 0001:00033437       ?dtor$0@?0??_Locimp_dtor@_Locimp@locale@std@@CAXPEAV123@@Z@4HA 0000000180034437 f   libcpmt:locale0.obj
 0001:00033437       ?dtor$0@?0??_Init@locale@std@@CAPEAV_Locimp@12@_N@Z@4HA 0000000180034437 f   libcpmt:locale0.obj
 0001:00033443       ?dtor$0@?0???_G_Locimp@locale@std@@MEAAPEAXI@Z@4HA 0000000180034443 f   libcpmt:locale0.obj
 0001:00033443       ?dtor$0@?0???_Glocale@std@@QEAAPEAXI@Z@4HA 0000000180034443 f   libcpmt:cout.obj
 0001:00033443       ?dtor$0@?0???_G_Fac_node@std@@QEAAPEAXI@Z@4HA 0000000180034443 f   libcpmt:locale0.obj
 0001:00033443       ?dtor$0@?0???1?$basic_ios@DU?$char_traits@D@std@@@std@@UEAA@XZ@4HA 0000000180034443 f   libcpmt:cout.obj
 0001:00033443       ?dtor$0@?0???_Gios_base@std@@UEAAPEAXI@Z@4HA 0000000180034443 f   libcpmt:cout.obj
 0001:00033443       ?dtor$0@?0???__Fclassic_locale@std@@YAXXZ@4HA 0000000180034443 f   libcpmt:locale0.obj
 0001:00033443       ?dtor$0@?0???0?$basic_streambuf@DU?$char_traits@D@std@@@std@@IEAA@XZ@4HA 0000000180034443 f   libcpmt:cout.obj
 0001:00033443       ?dtor$0@?0??_Init@ios_base@std@@IEAAXXZ@4HA 0000000180034443 f   libcpmt:cout.obj
 0001:00033443       ?dtor$0@?0???__Finit_atexit@@YAXXZ@4HA 0000000180034443 f   libcpmt:iosptrs.obj
 0001:00033448       __scrt_is_nonwritable_in_current_image$filt$0 0000000180034448 f   LIBCMT:utility.obj
 0001:00033460       ?fin$0@?0??dllmain_crt_process_attach@@YAHQEAUHINSTANCE__@@QEAX@Z@4HA 0000000180034460 f   LIBCMT:dll_dllmain.obj
 0001:00033477       ?fin$0@?0??dllmain_crt_process_detach@@YAH_N@Z@4HA 0000000180034477 f   LIBCMT:dll_dllmain.obj
 0001:00033493       ?filt$0@?0??dllmain_dispatch@@YAHQEAUHINSTANCE__@@KQEAX@Z@4HA 0000000180034493 f   LIBCMT:dll_dllmain.obj
 0001:000334c9       __CxxCallCatchBlock$filt$0 00000001800344c9 f   libvcruntime:frame.obj
 0001:000334ee       __CxxCallCatchBlock$fin$1  00000001800344ee f   libvcruntime:frame.obj
 0001:00033566       __DestructExceptionObject$filt$0 0000000180034566 f   libvcruntime:frame.obj
 0001:0003357e       __FrameUnwindToState$filt$0 000000018003457e f   libvcruntime:frame.obj
 0001:00033594       __FrameUnwindToState$fin$1 0000000180034594 f   libvcruntime:frame.obj
 0001:000335b7       _CallSETranslator$filt$0   00000001800345b7 f   libvcruntime:trnsctrl.obj
 0001:00033603       ?filt$0@?0??common_exit@@YAXHW4_crt_exit_cleanup_mode@@W4_crt_exit_return_mode@@@Z@4HA 0000000180034603 f   libucrt:exit.obj
 0001:0003361e       ?fin$1@?0??common_exit@@YAXHW4_crt_exit_cleanup_mode@@W4_crt_exit_return_mode@@@Z@4HA 000000018003461e f   libucrt:exit.obj
 0001:00033637       common_flush_all$fin$0     0000000180034637 f   libucrt:fflush.obj
 0001:00033651       common_flush_all$fin$1     0000000180034651 f   libucrt:fflush.obj
 0001:0003366a       fclose$fin$0               000000018003466a f   libucrt:fclose.obj
 0001:0003366a       fflush$fin$0               000000018003466a f   libucrt:fflush.obj
 0001:00033682       fgetc$fin$0                0000000180034682 f   libucrt:fgetc.obj
 0001:0003369c       fputc$fin$0                000000018003469c f   libucrt:fputc.obj
 0001:000336b6       ?fin$0@?0???$common_ftell@_J@@YA_JV__crt_stdio_stream@@@Z@4HA 00000001800346b6 f   libucrt:ftell.obj
 0001:000336b6       ?fin$0@?0??common_fseek@@YAHV__crt_stdio_stream@@_JH@Z@4HA 00000001800346b6 f   libucrt:fseek.obj
 0001:000336d0       ?fin$0@?0???$?RV<lambda_7a5ef57ff966f610505f1d28a3d40618>@@AEAV<lambda_b721fa326cdb32351d23dfa67958c160>@@V<lambda_5e0fb27672408a07956fe59e48ccb2aa>@@@?$__crt_seh_guarded_call@H@@QEAAH$$QEAV<lambda_7a5ef57ff966f610505f1d28a3d40618>@@AEAV<lambda_b721fa326cdb32351d23dfa67958c160>@@$$QEAV<lambda_5e0fb27672408a07956fe59e48ccb2aa>@@@Z@4HA 00000001800346d0 f   libucrt:setvbuf.obj
 0001:000336d0       ?fin$0@?0???$?RV<lambda_5d4c3fee44080f75d5d9762853974fe0>@@AEAV<lambda_532e024f4337e6fc7ad266c2bef9f4ed>@@V<lambda_c87bdc10097eb2402edb8ba9bdf0697b>@@@?$__crt_seh_guarded_call@_K@@QEAA_K$$QEAV<lambda_5d4c3fee44080f75d5d9762853974fe0>@@AEAV<lambda_532e024f4337e6fc7ad266c2bef9f4ed>@@$$QEAV<lambda_c87bdc10097eb2402edb8ba9bdf0697b>@@@Z@4HA 00000001800346d0 f   libucrt:fwrite.obj
 0001:000336d0       ?fin$0@?0???$?RV<lambda_aa279a7bcb127014629d5b1d62c7325d>@@AEAV<lambda_0a64b6a4deda75c01876f29c44fc5eb3>@@V<lambda_3323e69fbefe9d1a11713e670d47cdfa>@@@?$__crt_seh_guarded_call@H@@QEAAH$$QEAV<lambda_aa279a7bcb127014629d5b1d62c7325d>@@AEAV<lambda_0a64b6a4deda75c01876f29c44fc5eb3>@@$$QEAV<lambda_3323e69fbefe9d1a11713e670d47cdfa>@@@Z@4HA 00000001800346d0 f   libucrt:output.obj
 0001:000336eb       ungetc$fin$0               00000001800346eb f   libucrt:ungetc.obj
 0001:00033703       setlocale$fin$0            0000000180034703 f   libucrt:setlocale.obj
 0001:0003371e       _query_new_handler$fin$0   000000018003471e f   libucrt:new_handler.obj
 0001:00033734       ?fin$0@?0???$?RV<lambda_e24bbb7b643b32fcea6fa61b31d4c984>@@AEAV<lambda_275893d493268fdec8709772e3fcec0e>@@V<lambda_9d71df4d7cf3f480f8d633942495c3b0>@@@?$__crt_seh_guarded_call@H@@QEAAH$$QEAV<lambda_e24bbb7b643b32fcea6fa61b31d4c984>@@AEAV<lambda_275893d493268fdec8709772e3fcec0e>@@$$QEAV<lambda_9d71df4d7cf3f480f8d633942495c3b0>@@@Z@4HA 0000000180034734 f   libucrt:onexit.obj
 0001:00033751       raise$fin$0                0000000180034751 f   libucrt:signal.obj
 0001:00033775       _fcloseall$fin$0           0000000180034775 f   libucrt:closeall.obj
 0001:0003378e       __acrt_lowio_ensure_fh_exists$fin$0 000000018003478e f   libucrt:osfinfo.obj
 0001:0003378e       __acrt_initialize_lowio$fin$0 000000018003478e f   libucrt:ioinit.obj
 0001:000337a7       ?fin$0@?0???$?RV<lambda_5df02c53a8f32f81fd64e5bbb78039f1>@@AEAV<lambda_2af78c5f5901b1372d98f9ab3177dfa6>@@AEAV<lambda_f51fe5fd7c79a33db34fc9310f277369>@@@?$__crt_seh_guarded_call@X@@QEAAX$$QEAV<lambda_5df02c53a8f32f81fd64e5bbb78039f1>@@AEAV<lambda_2af78c5f5901b1372d98f9ab3177dfa6>@@AEAV<lambda_f51fe5fd7c79a33db34fc9310f277369>@@@Z@4HA 00000001800347a7 f   libucrt:wsetlocale.obj
 0001:000337c8       ?fin$0@?0???$?RV<lambda_46352004c1216016012b18bd6f87e700>@@AEAV<lambda_3bd07e1a1191394380780325891bf33f>@@V<lambda_334532d3f185bcaa59b5be82d7d22bff>@@@?$__crt_seh_guarded_call@X@@QEAAX$$QEAV<lambda_46352004c1216016012b18bd6f87e700>@@AEAV<lambda_3bd07e1a1191394380780325891bf33f>@@$$QEAV<lambda_334532d3f185bcaa59b5be82d7d22bff>@@@Z@4HA 00000001800347c8 f   libucrt:per_thread_data.obj
 0001:000337c8       ?fin$0@?0???$?RV<lambda_d67e8342c384adda8f857579ab50b2ae>@@AEAV<lambda_30712929f77e709619002f448b6a9510>@@V<lambda_4525336fd7e478d965fb7ca7a337cad8>@@@?$__crt_seh_guarded_call@X@@QEAAX$$QEAV<lambda_d67e8342c384adda8f857579ab50b2ae>@@AEAV<lambda_30712929f77e709619002f448b6a9510>@@$$QEAV<lambda_4525336fd7e478d965fb7ca7a337cad8>@@@Z@4HA 00000001800347c8 f   libucrt:wsetlocale.obj
 0001:000337c8       ?fin$0@?0???$?RV<lambda_630b2aca97f6d20d5b5ea6529ea6b6af>@@AEAV<lambda_af91936f1d075d609f72d9d8cba980af>@@V<lambda_e82fa975f615b5c7c7b0e4d178fdae67>@@@?$__crt_seh_guarded_call@H@@QEAAH$$QEAV<lambda_630b2aca97f6d20d5b5ea6529ea6b6af>@@AEAV<lambda_af91936f1d075d609f72d9d8cba980af>@@$$QEAV<lambda_e82fa975f615b5c7c7b0e4d178fdae67>@@@Z@4HA 00000001800347c8 f   libucrt:winapi_thunks.obj
 0001:000337c8       ?fin$0@?0???$?RV<lambda_99476a1ad63dd22509b5d3e65b0ffc95>@@AEAV<lambda_ad1ced32f4ac17aa236e5ef05d6b3b7c>@@V<lambda_f7424dd8d45958661754dc4f2697e9c3>@@@?$__crt_seh_guarded_call@X@@QEAAX$$QEAV<lambda_99476a1ad63dd22509b5d3e65b0ffc95>@@AEAV<lambda_ad1ced32f4ac17aa236e5ef05d6b3b7c>@@$$QEAV<lambda_f7424dd8d45958661754dc4f2697e9c3>@@@Z@4HA 00000001800347c8 f   libucrt:mbctype.obj
 0001:000337c8       ?fin$0@?0???$?RV<lambda_b8c45f8f788dd370798f47cfe8ac3a86>@@AEAV<lambda_4e60a939b0d047cfe11ddc22648dfba9>@@V<lambda_332c3edc96d0294ec56c57d38c1cdfd5>@@@?$__crt_seh_guarded_call@H@@QEAAH$$QEAV<lambda_b8c45f8f788dd370798f47cfe8ac3a86>@@AEAV<lambda_4e60a939b0d047cfe11ddc22648dfba9>@@$$QEAV<lambda_332c3edc96d0294ec56c57d38c1cdfd5>@@@Z@4HA 00000001800347c8 f   libucrt:onexit.obj
 0001:000337c8       ?fin$0@?0???$?RV<lambda_c36588078e9f5dfd39652860aa6b3aaf>@@AEAV<lambda_ec61778202f4f5fc7e7711acc23c3bca>@@V<lambda_dc9d2797ccde5d239b4a0efae8ebd7db>@@@?$__crt_seh_guarded_call@P6AXH@Z@@QEAAP6AXH@Z$$QEAV<lambda_c36588078e9f5dfd39652860aa6b3aaf>@@AEAV<lambda_ec61778202f4f5fc7e7711acc23c3bca>@@$$QEAV<lambda_dc9d2797ccde5d239b4a0efae8ebd7db>@@@Z@4HA 00000001800347c8 f   libucrt:signal.obj
 0001:000337c8       ?fin$0@?0???$?RV<lambda_5e887d1dcbef67a5eb4283622ba103bf>@@AEAV<lambda_4466841279450cc726390878d4a41900>@@V<lambda_341c25c0346d94847f1f3c463c57e077>@@@?$__crt_seh_guarded_call@X@@QEAAX$$QEAV<lambda_5e887d1dcbef67a5eb4283622ba103bf>@@AEAV<lambda_4466841279450cc726390878d4a41900>@@$$QEAV<lambda_341c25c0346d94847f1f3c463c57e077>@@@Z@4HA 00000001800347c8 f   libucrt:per_thread_data.obj
 0001:000337c8       ?fin$0@?0???$?RV<lambda_72d1df2b273a38828b1ce30cbf4cdab5>@@AEAV<lambda_876a65b173b8412d3a47c70a915b0cf4>@@V<lambda_41932305e351933ebe8f8be3ed8bb5dc>@@@?$__crt_seh_guarded_call@X@@QEAAX$$QEAV<lambda_72d1df2b273a38828b1ce30cbf4cdab5>@@AEAV<lambda_876a65b173b8412d3a47c70a915b0cf4>@@$$QEAV<lambda_41932305e351933ebe8f8be3ed8bb5dc>@@@Z@4HA 00000001800347c8 f   libucrt:per_thread_data.obj
 0001:000337c8       ?fin$0@?0???$?RV<lambda_fb3a7dec4e47f37f22dae91bb15c9095>@@AEAV<lambda_698284760c8add0bfb0756c19673e34b>@@V<lambda_dfb8eca1e75fef3034a8fb18dd509707>@@@?$__crt_seh_guarded_call@X@@QEAAX$$QEAV<lambda_fb3a7dec4e47f37f22dae91bb15c9095>@@AEAV<lambda_698284760c8add0bfb0756c19673e34b>@@$$QEAV<lambda_dfb8eca1e75fef3034a8fb18dd509707>@@@Z@4HA 00000001800347c8 f   libucrt:per_thread_data.obj
 0001:000337e2       ?fin$0@?0???$?RV<lambda_bfedae4ebbf01fab1bb6dcc6a9e276e0>@@AEAV<lambda_2fe9b910cf3cbf4a0ab98a02ba45b3ec>@@V<lambda_237c231691f317818eb88cc1d5d642d6>@@@?$__crt_seh_guarded_call@H@@QEAAH$$QEAV<lambda_bfedae4ebbf01fab1bb6dcc6a9e276e0>@@AEAV<lambda_2fe9b910cf3cbf4a0ab98a02ba45b3ec>@@$$QEAV<lambda_237c231691f317818eb88cc1d5d642d6>@@@Z@4HA 00000001800347e2 f   libucrt:close.obj
 0001:000337e2       ?fin$0@?0???$?RV<lambda_b521505b218e5242e90febf6bfebc422>@@AEAV<lambda_6978c1fb23f02e42e1d9e99668cc68aa>@@V<lambda_314360699dd331753a4119843814e9a7>@@@?$__crt_seh_guarded_call@H@@QEAAH$$QEAV<lambda_b521505b218e5242e90febf6bfebc422>@@AEAV<lambda_6978c1fb23f02e42e1d9e99668cc68aa>@@$$QEAV<lambda_314360699dd331753a4119843814e9a7>@@@Z@4HA 00000001800347e2 f   libucrt:commit.obj
 0001:000337fc       ?fin$0@?0???$common_lseek@_J@@YA_JH_JH@Z@4HA 00000001800347fc f   libucrt:lseek.obj
 0001:000337fc       _write$fin$0               00000001800347fc f   libucrt:write.obj
 0001:000337fc       _read$fin$0                00000001800347fc f   libucrt:read.obj
 0001:00033813       __acrt_update_thread_multibyte_data$fin$0 0000000180034813 f   libucrt:mbctype.obj
 0001:0003382c       __acrt_uninitialize_locale$fin$0 000000018003482c f   libucrt:wsetlocale.obj
 0001:0003382c       __acrt_update_thread_locale_data$fin$0 000000018003482c f   libucrt:locale_refcounting.obj
 0001:00033845       common_control87$filt$0    0000000180034845 f   libucrt:ieee.obj
 0001:00033845       _ctrlfp$filt$0             0000000180034845 f   libucrt:fpctrl.obj
 0001:00033880       _IsNonwritableInCurrentImage$filt$0 0000000180034880 f   LIBCMT:pesect.obj
 0001:000338b0       ??__FxT_val@@YAXXZ         00000001800348b0 f   MSC_Fast_optmz_warp_pthread.obj
 0001:00033960       ??__FyT_val@@YAXXZ         0000000180034960 f   MSC_Fast_optmz_warp_pthread.obj
 0001:00033a10       ??__Frot_val@@YAXXZ        0000000180034a10 f   MSC_Fast_optmz_warp_pthread.obj
 0001:00033ac0       ??__Fsc_val@@YAXXZ         0000000180034ac0 f   MSC_Fast_optmz_warp_pthread.obj
 0001:00033b70       ??__FC@@YAXXZ              0000000180034b70 f   MSC_Fast_optmz_warp_pthread.obj
 0001:00033c20       ??__Fcropped_memory_images@@YAXXZ 0000000180034c20 f   jsmsc.obj
 0001:00033cc4       ??__Finitlocks@std@@YAXXZ  0000000180034cc4 f   libcpmt:xlock.obj
 0001:00033cd0       ??__Fcout@std@@YAXXZ       0000000180034cd0 f   libcpmt:cout.obj
 0001:00033d30       ??__Ffout@std@@YAXXZ       0000000180034d30 f   libcpmt:cout.obj
 0001:00033d3c       ??__Finitlocks@@YAXXZ      0000000180034d3c f   libcpmt:cout.obj
 0001:00033d48       ??__F_Fac_tidy_reg@std@@YAXXZ 0000000180034d48 f   libcpmt:locale0.obj
 0001:00033d74       ??__Fclassic_locale@std@@YAXXZ 0000000180034d74 f   libcpmt:locale0.obj
 0001:00033dd4       ??__Finit_atexit@@YAXXZ    0000000180034dd4 f   libcpmt:iosptrs.obj
 0001:00033e28       ??__Finitlocks@std@@YAXXZ  0000000180034e28 f   libcpmt:iosptrs.obj
 0002:00000530       ?initlocks$initializer$@std@@3P6AXXZEA 0000000180035530     libcpmt:xlock.obj
 0002:00000538       ?initlocks$initializer$@@3P6AXXZEA 0000000180035538     libcpmt:cout.obj
 0002:00000540       ?fout$initializer$@std@@3P6AXXZEA 0000000180035540     libcpmt:cout.obj
 0002:00000548       ?cout$initializer$@std@@3P6AXXZEA 0000000180035548     libcpmt:cout.obj
 0002:00000550       ?init_cout$initializer$@std@@3P6AXXZEA 0000000180035550     libcpmt:cout.obj
 0002:00000558       ?initlocks$initializer$@std@@3P6AXXZEA 0000000180035558     libcpmt:iosptrs.obj
 0002:00000560       ?init_atexit$initializer$@@3P6AXXZEA 0000000180035560     libcpmt:iosptrs.obj
 0002:00000568       ?_Fac_tidy_reg$initializer$@std@@3P6AXXZEA 0000000180035568     libcpmt:locale0.obj
 0002:00000570       ?classic_locale$initializer$@std@@3P6AXXZEA 0000000180035570     libcpmt:locale0.obj
 0002:00000580       ?xT_val$initializer$@@3P6AXXZEA 0000000180035580     MSC_Fast_optmz_warp_pthread.obj
 0002:00000588       ?yT_val$initializer$@@3P6AXXZEA 0000000180035588     MSC_Fast_optmz_warp_pthread.obj
 0002:00000590       ?rot_val$initializer$@@3P6AXXZEA 0000000180035590     MSC_Fast_optmz_warp_pthread.obj
 0002:00000598       ?sc_val$initializer$@@3P6AXXZEA 0000000180035598     MSC_Fast_optmz_warp_pthread.obj
 0002:000005a0       ?C$initializer$@@3P6AXXZEA 00000001800355a0     MSC_Fast_optmz_warp_pthread.obj
 0002:000005a8       ?cropped_memory_images$initializer$@@3P6AXXZEA 00000001800355a8     jsmsc.obj
 0002:000005c0       ?pinit@@3P6AHXZEA          00000001800355c0     libcpmt:winapisupp.obj
 0002:000005c8       ?__scrt_initialize_tss_var@@3P6AHXZEA 00000001800355c8     LIBCMT:thread_safe_statics.obj
 0002:00000660       $cppxdata$??_Glocale@std@@QEAAPEAXI@Z 0000000180035660     libcpmt:cout.obj
 0002:00000688       $cppxdata$?_Init@ios_base@std@@IEAAXXZ 0000000180035688     libcpmt:cout.obj
 0002:000006b0       $cppxdata$??_Gios_base@std@@UEAAPEAXI@Z 00000001800356b0     libcpmt:cout.obj
 0002:000006d8       $cppxdata$??0?$basic_streambuf@DU?$char_traits@D@std@@@std@@IEAA@XZ 00000001800356d8     libcpmt:cout.obj
 0002:00000700       $cppxdata$??1?$basic_filebuf@DU?$char_traits@D@std@@@std@@UEAA@XZ 0000000180035700     libcpmt:cout.obj
 0002:00000728       $cppxdata$?overflow@?$basic_filebuf@DU?$char_traits@D@std@@@std@@MEAAHH@Z 0000000180035728     libcpmt:cout.obj
 0002:00000750       $cppxdata$?uflow@?$basic_filebuf@DU?$char_traits@D@std@@@std@@MEAAHXZ 0000000180035750     libcpmt:cout.obj
 0002:00000778       $cppxdata$?_Endwrite@?$basic_filebuf@DU?$char_traits@D@std@@@std@@IEAA_NXZ 0000000180035778     libcpmt:cout.obj
 0002:000007a0       $cppxdata$??1?$basic_ios@DU?$char_traits@D@std@@@std@@UEAA@XZ 00000001800357a0     libcpmt:cout.obj
 0002:000007c8       $cppxdata$??_G?$basic_ios@DU?$char_traits@D@std@@@std@@UEAAPEAXI@Z 00000001800357c8     libcpmt:cout.obj
 0002:000007f0       $cppxdata$??0?$basic_ostream@DU?$char_traits@D@std@@@std@@QEAA@PEAV?$basic_streambuf@DU?$char_traits@D@std@@@1@_N@Z 00000001800357f0     libcpmt:cout.obj
 0002:00000818       $cppxdata$??_G?$basic_ostream@DU?$char_traits@D@std@@@std@@UEAAPEAXI@Z 0000000180035818     libcpmt:cout.obj
 0002:00000840       $cppxdata$??__Fcout@std@@YAXXZ 0000000180035840     libcpmt:cout.obj
 0002:00000868       $cppxdata$??$use_facet@V?$codecvt@DDU_Mbstatet@@@std@@@std@@YAAEBV?$codecvt@DDU_Mbstatet@@@0@AEBVlocale@0@@Z 0000000180035868     libcpmt:cout.obj
 0002:00000890       $cppxdata$?_Getcat@?$codecvt@DDU_Mbstatet@@@std@@SA_KPEAPEBVfacet@locale@2@PEBV42@@Z 0000000180035890     libcpmt:cout.obj
 0002:00000bd8       $cppxdata$??_G_Fac_node@std@@QEAAPEAXI@Z 0000000180035bd8     libcpmt:locale0.obj
 0002:00000c00       $cppxdata$?_Locimp_dtor@_Locimp@locale@std@@CAXPEAV123@@Z 0000000180035c00     libcpmt:locale0.obj
 0002:00000c28       $cppxdata$??_G_Locimp@locale@std@@MEAAPEAXI@Z 0000000180035c28     libcpmt:locale0.obj
 0002:00000c50       $cppxdata$?_Init@locale@std@@CAPEAV_Locimp@12@_N@Z 0000000180035c50     libcpmt:locale0.obj
 0002:00000c78       $cppxdata$??__Fclassic_locale@std@@YAXXZ 0000000180035c78     libcpmt:locale0.obj
 0002:00000d40       ?_Win_errtab@std@@3QBU_Win_errtab_t@1@B 0000000180035d40     libcpmt:syserror.obj
 0002:00000f90       ?_Sys_errtab@std@@3QBU_Sys_errtab_t@1@B 0000000180035f90     libcpmt:syserror.obj
 0002:00001b38       $cppxdata$??__Finit_atexit@@YAXXZ 0000000180036b38     libcpmt:iosptrs.obj
 0002:00002008       digits                     0000000180037008     libcpmt:xstoul.obj
 0002:00002030       ndigs                      0000000180037030     libcpmt:xstoul.obj
 0002:00002058       digits                     0000000180037058     libcpmt:xstoull.obj
 0002:00002080       ndigs                      0000000180037080     libcpmt:xstoull.obj
 0002:00002850       ?LcidToLocaleNameTable@@3QBULcidToLocaleName@@B 0000000180037850     libcpmt:winapinls.obj
 0002:00003690       ?LocaleNameToIndexTable@@3QBULocaleNameIndex@@B 0000000180038690     libcpmt:winapinls.obj
 0002:000053f0       ?digits@?1??_Stoxflt@@9@9  000000018003a3f0     libcpmt:xstoxflt.obj
 0002:00005408       ?vals@?1??_Stoxflt@@9@9    000000018003a408     libcpmt:xstoxflt.obj
 0002:00005420       tenth                      000000018003a420     libcpmt:xfdtento.obj
 0002:00005440       tenth                      000000018003a440     libcpmt:xdtento.obj
 0002:00005460       tenth                      000000018003a460     libcpmt:xldtento.obj
 0002:00005480       ?mask@?3??_FDint@@9@9      000000018003a480     libcpmt:xfdint.obj
 0002:000054a0       ?sub@?3??_FDint@@9@9       000000018003a4a0     libcpmt:xfdint.obj
 0002:000054b0       ?mask@?3??_Dint@@9@9       000000018003a4b0     libcpmt:xdint.obj
 0002:000054d0       ?sub@?3??_Dint@@9@9        000000018003a4d0     libcpmt:xdint.obj
 0002:00005508       GS_ExceptionPointers       000000018003a508     LIBCMT:gs_report.obj
 0002:00005580       ?ExceptionTemplate@?1??_CxxThrowException@@9@4UEHExceptionRecord@@B 000000018003a580     libvcruntime:throw.obj
 0002:000055c0       ?ExceptionTemplate@?1??_UnwindNestedFrames@@9@4U_EXCEPTION_RECORD@@B 000000018003a5c0     libvcruntime:trnsctrl.obj
 0002:00005658       ?module_names@?A0x61ce2399@@3QBQEB_WB 000000018003a658     libvcruntime:winapi_downlevel.obj
 0002:00005724       ?candidate_modules@?1??try_get_EventRegister@@YAP6AKPEBU_GUID@@P6AX0KE_K1PEAU_EVENT_FILTER_DESCRIPTOR@@PEAX@Z3PEA_K@ZXZ@4QBW4module_id@?A0x61ce2399@@B 000000018003a724     libvcruntime:winapi_downlevel.obj
 0002:00005738       ?candidate_modules@?1??try_get_EventSetInformation@@YAP6AK_KW4_EVENT_INFO_CLASS@@PEAXK@ZXZ@4QBW4module_id@?A0x61ce2399@@B 000000018003a738     libvcruntime:winapi_downlevel.obj
 0002:00005754       ?candidate_modules@?1??try_get_EventUnregister@@YAP6AK_K@ZXZ@4QBW4module_id@?A0x61ce2399@@B 000000018003a754     libvcruntime:winapi_downlevel.obj
 0002:00005768       ?candidate_modules@?1??try_get_EventWriteTransfer@@YAP6AK_KPEBU_EVENT_DESCRIPTOR@@PEBU_GUID@@2KPEAU_EVENT_DATA_DESCRIPTOR@@@ZXZ@4QBW4module_id@?A0x61ce2399@@B 000000018003a768     libvcruntime:winapi_downlevel.obj
 0002:00005788       ?candidate_modules@?1??try_get_FlsAlloc@@YAP6AKP6AXPEAX@Z@ZXZ@4QBW4module_id@?A0x61ce2399@@B 000000018003a788     libvcruntime:winapi_downlevel.obj
 0002:00005790       ?candidate_modules@?1??try_get_FlsFree@@YAP6AHK@ZXZ@4QBW4module_id@?A0x61ce2399@@B 000000018003a790     libvcruntime:winapi_downlevel.obj
 0002:00005798       ?candidate_modules@?1??try_get_FlsGetValue@@YAP6APEAXK@ZXZ@4QBW4module_id@?A0x61ce2399@@B 000000018003a798     libvcruntime:winapi_downlevel.obj
 0002:000057a0       ?candidate_modules@?1??try_get_FlsSetValue@@YAP6AHKPEAX@ZXZ@4QBW4module_id@?A0x61ce2399@@B 000000018003a7a0     libvcruntime:winapi_downlevel.obj
 0002:000057a8       ?candidate_modules@?1??try_get_InitializeCriticalSectionEx@@YAP6AHPEAU_RTL_CRITICAL_SECTION@@KK@ZXZ@4QBW4module_id@?A0x61ce2399@@B 000000018003a7a8     libvcruntime:winapi_downlevel.obj
 0002:00005ca0       ?rttiTable@@3QBQEBDB       000000018003aca0     libvcruntime:undname.obj
 0002:00005cd0       ?tokenTable@@3QBQEBDB      000000018003acd0     libvcruntime:undname.obj
 0002:00005d40       ?nameTable@@3QBQEBDB       000000018003ad40     libvcruntime:undname.obj
 0002:00006260       errtable                   000000018003b260     libucrt:errno.obj
 0002:00006cc0       __acrt_initializers        000000018003bcc0     libucrt:initialization.obj
 0002:00006db0       module_names               000000018003bdb0     libucrt:winapi_thunks.obj
 0002:000072e0       ?candidate_modules@?1??try_get_CompareStringEx@@YAP6AHPEB_WK0H0HPEAU_nlsversioninfo@@PEAX_J@ZXZ@4QBW4module_id@?A0x63058377@@B 000000018003c2e0     libucrt:winapi_thunks.obj
 0002:000072e8       ?candidate_modules@?1??try_get_EnumSystemLocalesEx@@YAP6AHP6AHPEA_WK_J@ZK1PEAX@ZXZ@4QBW4module_id@?A0x63058377@@B 000000018003c2e8     libucrt:winapi_thunks.obj
 0002:00007308       ?candidate_modules@?1??try_get_FlsAlloc@@YAP6AKP6AXPEAX@Z@ZXZ@4QBW4module_id@?A0x63058377@@B 000000018003c308     libucrt:winapi_thunks.obj
 0002:00007310       ?candidate_modules@?1??try_get_FlsFree@@YAP6AHK@ZXZ@4QBW4module_id@?A0x63058377@@B 000000018003c310     libucrt:winapi_thunks.obj
 0002:00007318       ?candidate_modules@?1??try_get_FlsGetValue@@YAP6APEAXK@ZXZ@4QBW4module_id@?A0x63058377@@B 000000018003c318     libucrt:winapi_thunks.obj
 0002:00007320       ?candidate_modules@?1??try_get_FlsSetValue@@YAP6AHKPEAX@ZXZ@4QBW4module_id@?A0x63058377@@B 000000018003c320     libucrt:winapi_thunks.obj
 0002:00007328       ?candidate_modules@?1??try_get_GetCurrentPackageId@@YAP6AJPEAIPEAE@ZXZ@4QBW4module_id@?A0x63058377@@B 000000018003c328     libucrt:winapi_thunks.obj
 0002:00007330       ?candidate_modules@?1??try_get_GetLocaleInfoEx@@YAP6AHPEB_WKPEA_WH@ZXZ@4QBW4module_id@?A0x63058377@@B 000000018003c330     libucrt:winapi_thunks.obj
 0002:00007338       ?candidate_modules@?1??try_get_GetUserDefaultLocaleName@@YAP6AHPEA_WH@ZXZ@4QBW4module_id@?A0x63058377@@B 000000018003c338     libucrt:winapi_thunks.obj
 0002:00007360       ?candidate_modules@?1??try_get_InitializeCriticalSectionEx@@YAP6AHPEAU_RTL_CRITICAL_SECTION@@KK@ZXZ@4QBW4module_id@?A0x63058377@@B 000000018003c360     libucrt:winapi_thunks.obj
 0002:00007368       ?candidate_modules@?1??try_get_IsValidLocaleName@@YAP6AHPEB_W@ZXZ@4QBW4module_id@?A0x63058377@@B 000000018003c368     libucrt:winapi_thunks.obj
 0002:00007388       ?candidate_modules@?1??try_get_LCMapStringEx@@YAP6AHPEB_WK0HPEA_WHPEAU_nlsversioninfo@@PEAX_J@ZXZ@4QBW4module_id@?A0x63058377@@B 000000018003c388     libucrt:winapi_thunks.obj
 0002:00007390       ?candidate_modules@?1??try_get_LCIDToLocaleName@@YAP6AHKPEA_WHK@ZXZ@4QBW4module_id@?A0x63058377@@B 000000018003c390     libucrt:winapi_thunks.obj
 0002:000073b0       ?candidate_modules@?1??try_get_LocaleNameToLCID@@YAP6AKPEB_WK@ZXZ@4QBW4module_id@?A0x63058377@@B 000000018003c3b0     libucrt:winapi_thunks.obj
 0002:00007540       _first_127char             000000018003c540     libucrt:wsetlocale.obj
 0002:00007c60       ?_names@?1??_get_fname@@9@9 000000018003cc60     libucrt:fpexcept.obj
 0002:00007f08       ?mask@?3??_d_int@@9@9      000000018003cf08     libucrt:_test.obj
 0002:00007f28       ?sub@?3??_d_int@@9@9       000000018003cf28     libucrt:_test.obj
 0002:00007f48       ?mask@?3??_fd_int@@9@9     000000018003cf48     libucrt:_test.obj
 0002:00007f68       ?sub@?3??_fd_int@@9@9      000000018003cf68     libucrt:_test.obj
 0002:00007f78       _mb_locale_names           000000018003cf78     libucrt:mbctype.obj
 0002:00007fa0       LcidToLocaleNameTable      000000018003cfa0     libucrt:lcidtoname_downlevel.obj
 0002:00008de0       LocaleNameToIndexTable     000000018003dde0     libucrt:lcidtoname_downlevel.obj
 0002:0000b5e0       __real@433fffffffffffff    00000001800405e0     libucrt:fpsr.obj
 0002:0000b5e8       __real@c33fffffffffffff    00000001800405e8     libucrt:fpsr.obj
 0002:0000b5f0       __real_ninf                00000001800405f0     libucrt:log10.obj
 0002:0000b600       __real_inf                 0000000180040600     libucrt:log10.obj
 0002:0000b610       __real_neg_qnan            0000000180040610     libucrt:log10.obj
 0002:0000b620       __real_qnanbit             0000000180040620     libucrt:log10.obj
 0002:0000b630       __int_1023                 0000000180040630     libucrt:log10.obj
 0002:0000b640       __mask_001                 0000000180040640     libucrt:log10.obj
 0002:0000b650       __mask_mant                0000000180040650     libucrt:log10.obj
 0002:0000b660       __mask_mant_top8           0000000180040660     libucrt:log10.obj
 0002:0000b670       __mask_mant9               0000000180040670     libucrt:log10.obj
 0002:0000b680       __real_log10_e             0000000180040680     libucrt:log10.obj
 0002:0000b690       __real_log10_e_lead        0000000180040690     libucrt:log10.obj
 0002:0000b6a0       __real_log10_e_tail        00000001800406a0     libucrt:log10.obj
 0002:0000b6b0       __real_log10_2_lead        00000001800406b0     libucrt:log10.obj
 0002:0000b6c0       __real_log10_2_tail        00000001800406c0     libucrt:log10.obj
 0002:0000b6d0       __real_two                 00000001800406d0     libucrt:log10.obj
 0002:0000b6e0       __real_one                 00000001800406e0     libucrt:log10.obj
 0002:0000b6f0       __real_half                00000001800406f0     libucrt:log10.obj
 0002:0000b700       __mask_100                 0000000180040700     libucrt:log10.obj
 0002:0000b710       __real_1_over_512          0000000180040710     libucrt:log10.obj
 0002:0000b720       __real_1_over_2            0000000180040720     libucrt:log10.obj
 0002:0000b730       __real_1_over_3            0000000180040730     libucrt:log10.obj
 0002:0000b740       __real_1_over_4            0000000180040740     libucrt:log10.obj
 0002:0000b750       __real_1_over_5            0000000180040750     libucrt:log10.obj
 0002:0000b760       __real_1_over_6            0000000180040760     libucrt:log10.obj
 0002:0000b770       __real_neg_1023            0000000180040770     libucrt:log10.obj
 0002:0000b780       __mask_2045                0000000180040780     libucrt:log10.obj
 0002:0000b790       __real_threshold           0000000180040790     libucrt:log10.obj
 0002:0000b7a0       __real_near_one_lt         00000001800407a0     libucrt:log10.obj
 0002:0000b7b0       __real_near_one_gt         00000001800407b0     libucrt:log10.obj
 0002:0000b7c0       __real_min_norm            00000001800407c0     libucrt:log10.obj
 0002:0000b7d0       __real_notsign             00000001800407d0     libucrt:log10.obj
 0002:0000b7e0       __real_ca1                 00000001800407e0     libucrt:log10.obj
 0002:0000b7f0       __real_ca2                 00000001800407f0     libucrt:log10.obj
 0002:0000b800       __real_ca3                 0000000180040800     libucrt:log10.obj
 0002:0000b810       __real_ca4                 0000000180040810     libucrt:log10.obj
 0002:0000b820       __mask_lower               0000000180040820     libucrt:log10.obj
 0002:0000b830       __flag_x_zero              0000000180040830     libucrt:log10.obj
 0002:0000b834       __flag_x_neg               0000000180040834     libucrt:log10.obj
 0002:0000b838       __flag_x_nan               0000000180040838     libucrt:log10.obj
 0002:0000d460       ?piecewise_construct@std@@3Upiecewise_construct_t@1@B 0000000180042460     Learn_Image.obj
 0002:0000d880       L_real_piby2_1             0000000180042880     libucrt:cos.obj
 0002:0000d890       L_real_piby2_1tail         0000000180042890     libucrt:cos.obj
 0002:0000d8a0       L_real_piby2_2             00000001800428a0     libucrt:cos.obj
 0002:0000d8b0       L_real_piby2_2tail         00000001800428b0     libucrt:cos.obj
 0002:0000d8c0       L_one                      00000001800428c0     libucrt:cos.obj
 0002:0000d8d0       L_signbit                  00000001800428d0     libucrt:cos.obj
 0002:0000d8e0       L_int_one                  00000001800428e0     libucrt:cos.obj
 0002:0000d8f0       L_int_two                  00000001800428f0     libucrt:cos.obj
 0002:0000d900       L_2_by_pi                  0000000180042900     libucrt:cos.obj
 0002:0000d908       L_one_half                 0000000180042908     libucrt:cos.obj
 0002:0000d910       L_neg_one_half             0000000180042910     libucrt:cos.obj
 0002:0000d918       L_two_to_neg_27            0000000180042918     libucrt:cos.obj
 0002:0000d920       L_two_to_neg_13            0000000180042920     libucrt:cos.obj
 0002:0000d928       L_piby4                    0000000180042928     libucrt:cos.obj
 0002:0000d930       L_small_arg_cw             0000000180042930     libucrt:cos.obj
 0002:0000d938       L_small_arg_bdl            0000000180042938     libucrt:cos.obj
 0002:0000d940       L_sign_mask                0000000180042940     libucrt:cos.obj
 0002:0000d948       L__inf_mask_64             0000000180042948     libucrt:cos.obj
 0002:0000d950       L_2_to_32                  0000000180042950     libucrt:cos.obj
 0002:0000d960       L_real_piby2_1             0000000180042960     libucrt:sin.obj
 0002:0000d970       L_real_piby2_1tail         0000000180042970     libucrt:sin.obj
 0002:0000d980       L_real_piby2_2             0000000180042980     libucrt:sin.obj
 0002:0000d990       L_real_piby2_2tail         0000000180042990     libucrt:sin.obj
 0002:0000d9a0       L_one                      00000001800429a0     libucrt:sin.obj
 0002:0000d9b0       L_signbit                  00000001800429b0     libucrt:sin.obj
 0002:0000d9c0       L_int_one                  00000001800429c0     libucrt:sin.obj
 0002:0000d9d0       L_int_two                  00000001800429d0     libucrt:sin.obj
 0002:0000d9e0       L_int_three                00000001800429e0     libucrt:sin.obj
 0002:0000d9f0       L_2_by_pi                  00000001800429f0     libucrt:sin.obj
 0002:0000d9f8       L_one_half                 00000001800429f8     libucrt:sin.obj
 0002:0000da00       L_one_sixth                0000000180042a00     libucrt:sin.obj
 0002:0000da08       L_two_to_neg_27            0000000180042a08     libucrt:sin.obj
 0002:0000da10       L_two_to_neg_13            0000000180042a10     libucrt:sin.obj
 0002:0000da18       L_piby4                    0000000180042a18     libucrt:sin.obj
 0002:0000da20       L_small_arg_cw             0000000180042a20     libucrt:sin.obj
 0002:0000da28       L_small_arg_bdl            0000000180042a28     libucrt:sin.obj
 0002:0000da30       L__inf_mask_64             0000000180042a30     libucrt:sin.obj
 0002:0000da38       L_near_one                 0000000180042a38     libucrt:sin.obj
 0002:0000db10       L__piby2_part3_piby2_lead  0000000180042b10     libucrt:remainder_piby2_forasm.obj
 0002:0000db20       L__piby2_part1             0000000180042b20     libucrt:remainder_piby2_forasm.obj
 0002:0000db30       L__piby2_part2             0000000180042b30     libucrt:remainder_piby2_forasm.obj
 0002:0000db40       L_piby2_1                  0000000180042b40     libucrt:remainder_piby2_forasm.obj
 0002:0000db50       L_piby2_2                  0000000180042b50     libucrt:remainder_piby2_forasm.obj
 0002:0000db60       L_piby2_3                  0000000180042b60     libucrt:remainder_piby2_forasm.obj
 0002:0000db70       L_piby2_1tail              0000000180042b70     libucrt:remainder_piby2_forasm.obj
 0002:0000db80       L_piby2_2tail              0000000180042b80     libucrt:remainder_piby2_forasm.obj
 0002:0000db90       L_piby2_3tail              0000000180042b90     libucrt:remainder_piby2_forasm.obj
 0002:0000dba0       L_twobypi                  0000000180042ba0     libucrt:remainder_piby2_forasm.obj
 0002:0000dbb0       L_point_five               0000000180042bb0     libucrt:remainder_piby2_forasm.obj
 0002:0000dbc0       L_int_three                0000000180042bc0     libucrt:remainder_piby2_forasm.obj
 0002:0000dbd0       L_inf_mask_64              0000000180042bd0     libucrt:remainder_piby2_forasm.obj
 0002:0000dbe0       L_signbit                  0000000180042be0     libucrt:remainder_piby2_forasm.obj
 0002:0000dbf0       L_int_1                    0000000180042bf0     libucrt:remainder_piby2_forasm.obj
 0002:0000dc00       L_int_15                   0000000180042c00     libucrt:remainder_piby2_forasm.obj
 0002:0000dc08       L_int_48                   0000000180042c08     libucrt:remainder_piby2_forasm.obj
 0002:0000dc10       L_3pio4                    0000000180042c10     libucrt:remainder_piby2_forasm.obj
 0002:0000dc18       L_5pio4                    0000000180042c18     libucrt:remainder_piby2_forasm.obj
 0002:0000dc20       L_7pio4                    0000000180042c20     libucrt:remainder_piby2_forasm.obj
 0002:0000dc28       L_9pio4                    0000000180042c28     libucrt:remainder_piby2_forasm.obj
 0002:0000dc30       L__2_by_pi_bits            0000000180042c30     libucrt:remainder_piby2_forasm.obj
 0002:0000dcd0       L_piby2_lead               0000000180042cd0     libucrt:remainder_piby2_forfma3.obj
 0002:0000dce0       L_fff800                   0000000180042ce0     libucrt:remainder_piby2_forfma3.obj
 0002:0000dcf0       L_piby2_part1              0000000180042cf0     libucrt:remainder_piby2_forfma3.obj
 0002:0000dd00       L_piby2_part2              0000000180042d00     libucrt:remainder_piby2_forfma3.obj
 0002:0000dd10       L_piby2_part3              0000000180042d10     libucrt:remainder_piby2_forfma3.obj
 0002:0000dd20       L_piby2_1                  0000000180042d20     libucrt:remainder_piby2_forfma3.obj
 0002:0000dd30       L_piby2_2                  0000000180042d30     libucrt:remainder_piby2_forfma3.obj
 0002:0000dd40       L_piby2_3                  0000000180042d40     libucrt:remainder_piby2_forfma3.obj
 0002:0000dd50       L_piby2_1tail              0000000180042d50     libucrt:remainder_piby2_forfma3.obj
 0002:0000dd60       L_piby2_2tail              0000000180042d60     libucrt:remainder_piby2_forfma3.obj
 0002:0000dd70       L_piby2_3tail              0000000180042d70     libucrt:remainder_piby2_forfma3.obj
 0002:0000dd80       L_sign_mask                0000000180042d80     libucrt:remainder_piby2_forfma3.obj
 0002:0000dd90       L_twobypi                  0000000180042d90     libucrt:remainder_piby2_forfma3.obj
 0002:0000dda0       L_point_five               0000000180042da0     libucrt:remainder_piby2_forfma3.obj
 0002:0000ddb0       L_int_three                0000000180042db0     libucrt:remainder_piby2_forfma3.obj
 0002:0000ddc0       L_inf_mask_64              0000000180042dc0     libucrt:remainder_piby2_forfma3.obj
 0002:0000ddd0       L_signbit                  0000000180042dd0     libucrt:remainder_piby2_forfma3.obj
 0002:0000dde0       L_r                        0000000180042de0     libucrt:remainder_piby2_forfma3.obj
 0002:0000ddf0       L_xc1                      0000000180042df0     libucrt:remainder_piby2_forfma3.obj
 0002:0000de00       L_xc2                      0000000180042e00     libucrt:remainder_piby2_forfma3.obj
 0002:0000de10       L_xc3                      0000000180042e10     libucrt:remainder_piby2_forfma3.obj
 0002:0000de20       L_sigma                    0000000180042e20     libucrt:remainder_piby2_forfma3.obj
 0002:0000efc8       ?_TlgEvent@?3??__telemetry_main_invoke_trigger@@9@4U<unnamed-type-_TlgEvent>@?3??1@YAXQEAUHINSTANCE__@@@Z@B 0000000180043fc8     libvcruntime:telemetry.obj
 0002:0000f004       ?_TlgEvent@?3??__telemetry_main_return_trigger@@9@4U<unnamed-type-_TlgEvent>@?3??1@YAXQEAUHINSTANCE__@@@Z@B 0000000180044004     libvcruntime:telemetry.obj
 0002:0000f03f       ?_Tlg_Microsoft_CRTProviderProv_Meta@@3U<unnamed-type-_Tlg_Microsoft_CRTProviderProv_Meta>@@B 000000018004403f     libvcruntime:telemetry.obj
 0002:0000f590       $unwind$___lc_locale_name_func 0000000180044590     libucrt:initctype.obj
 0002:0000f590       $unwind$__vcrt_uninitialize_telemetry_provider 0000000180044590     libvcruntime:telemetry.obj
 0002:0000f590       $unwind$__acrt_initialize_command_line 0000000180044590     libucrt:argv_data.obj
 0002:0000f590       $unwind$_wcsicmp           0000000180044590     libucrt:wcsicmp.obj
 0002:0000f590       $unwind$initialize_c       0000000180044590     libucrt:initialization.obj
 0002:0000f590       $unwind$_set_errno_from_matherr 0000000180044590     libucrt:fpexcept.obj
 0002:0000f590       $unwind$?_Locinfo_dtor@_Locinfo@std@@SAXPEAV12@@Z 0000000180044590     libcpmt:locale0.obj
 0002:0000f590       $unwind$??$uninitialize_environment_internal@_W@@YAXAEAPEAPEA_W@Z 0000000180044590     libucrt:environment_initialization.obj
 0002:0000f590       $unwind$??__Fcropped_memory_images@@YAXXZ 0000000180044590     jsmsc.obj
 0002:0000f590       $unwind$_stricmp           0000000180044590     libucrt:stricmp.obj
 0002:0000f590       $unwind$??__FC@@YAXXZ      0000000180044590     MSC_Fast_optmz_warp_pthread.obj
 0002:0000f590       $unwind$__acrt_initialize_clock 0000000180044590     libucrt:clock.obj
 0002:0000f590       $unwind$_wcsnicmp          0000000180044590     libucrt:wcsnicmp.obj
 0002:0000f590       $unwind$__report_rangecheckfailure 0000000180044590     LIBCMT:gs_report.obj
 0002:0000f590       $unwind$__acrt_thread_detach 0000000180044590     libucrt:initialization.obj
 0002:0000f590       $unwind$??__Fsc_val@@YAXXZ 0000000180044590     MSC_Fast_optmz_warp_pthread.obj
 0002:0000f590       $unwind$_msize             0000000180044590     libucrt:msize.obj
 0002:0000f590       $unwind$__scrt_dllmain_before_initialize_c 0000000180044590     LIBCMT:utility.obj
 0002:0000f590       $unwind$?state_case_normal_tchar@?$output_processor@DV?$string_output_adapter@D@__crt_stdio_output@@V?$format_validation_base@DV?$string_output_adapter@D@__crt_stdio_output@@@2@@__crt_stdio_output@@AEAA_ND@Z 0000000180044590     libucrt:output.obj
 0002:0000f590       $unwind$?deallocate@?$_Wrap_alloc@V?$allocator@VMat@cv@@@std@@@std@@QEAAXPEAVMat@cv@@_K@Z 0000000180044590     MSC_Fast_optmz_warp_pthread.obj
 0002:0000f590       $unwind$?_Reserve@?$vector@NV?$allocator@N@std@@@std@@IEAAX_K@Z 0000000180044590     MSC_Fast_optmz_warp_pthread.obj
 0002:0000f590       $unwind$_get_stream_buffer_pointers 0000000180044590     libucrt:_file.obj
 0002:0000f590       $unwind$??__Einitlocks@std@@YAXXZ 0000000180044590     libcpmt:xlock.obj
 0002:0000f590       $unwind$??__Esc_val@@YAXXZ 0000000180044590     MSC_Fast_optmz_warp_pthread.obj
 0002:0000f590       $unwind$?state_case_size@?$output_processor@DV?$string_output_adapter@D@__crt_stdio_output@@V?$format_validation_base@DV?$string_output_adapter@D@__crt_stdio_output@@@2@@__crt_stdio_output@@AEAA_NXZ 0000000180044590     libucrt:output.obj
 0002:0000f590       $unwind$__scrt_dllmain_after_initialize_c 0000000180044590     LIBCMT:utility.obj
 0002:0000f590       $unwind$??1_Lockit@std@@QEAA@XZ 0000000180044590     libcpmt:xlock.obj
 0002:0000f590       $unwind$?allocate@?$_Wrap_alloc@V?$allocator@VMat@cv@@@std@@@std@@QEAAPEAVMat@cv@@_K@Z 0000000180044590     MSC_Fast_optmz_warp_pthread.obj
 0002:0000f590       $unwind$??__Frot_val@@YAXXZ 0000000180044590     MSC_Fast_optmz_warp_pthread.obj
 0002:0000f590       $unwind$?__GetCurrentState@@YAHPEA_KPEAU_xDISPATCHER_CONTEXT@@PEBU_s_FuncInfo@@@Z 0000000180044590     libvcruntime:ehstate.obj
 0002:0000f590       $unwind$__scrt_acquire_startup_lock 0000000180044590     LIBCMT:utility.obj
 0002:0000f590       $unwind$__acrt_release_locale_ref 0000000180044590     libucrt:locale_refcounting.obj
 0002:0000f590       $unwind$??__Erot_val@@YAXXZ 0000000180044590     MSC_Fast_optmz_warp_pthread.obj
 0002:0000f590       $unwind$??__FyT_val@@YAXXZ 0000000180044590     MSC_Fast_optmz_warp_pthread.obj
 0002:0000f590       $unwind$__scrt_dllmain_uninitialize_c 0000000180044590     LIBCMT:utility.obj
 0002:0000f590       $unwind$?_Deallocate@std@@YAXPEAX_K1@Z 0000000180044590     Image_PreProcessing.obj
 0002:0000f590       $unwind$__scrt_dllmain_uninitialize_critical 0000000180044590     LIBCMT:utility.obj
 0002:0000f590       $unwind$??__EyT_val@@YAXXZ 0000000180044590     MSC_Fast_optmz_warp_pthread.obj
 0002:0000f590       $unwind$?validate_stream_is_ansi_if_required@?$__acrt_stdio_char_traits@D@@SA_NQEAU_iobuf@@@Z 0000000180044590     libucrt:output.obj
 0002:0000f590       $unwind$___mb_cur_max_func 0000000180044590     libucrt:initctype.obj
 0002:0000f590       $unwind$?_Unlock@?$basic_filebuf@DU?$char_traits@D@std@@@std@@UEAAXXZ 0000000180044590     libcpmt:cout.obj
 0002:0000f590       $unwind$??__Einitlocks@std@@YAXXZ 0000000180044590     libcpmt:iosptrs.obj
 0002:0000f590       $unwind$?_Atexit@@YAXP6AXXZ@Z 0000000180044590     libcpmt:iosptrs.obj
 0002:0000f590       $unwind$??$_Immortalize@V_Iostream_error_category@std@@@std@@YAAEAV_Iostream_error_category@0@XZ 0000000180044590     Learn_Image.obj
 0002:0000f590       $unwind$__vcrt_freefls     0000000180044590     libvcruntime:per_thread_data.obj
 0002:0000f590       $unwind$??__Ecout@std@@YAXXZ 0000000180044590     libcpmt:cout.obj
 0002:0000f590       $unwind$?_Lock@?$basic_filebuf@DU?$char_traits@D@std@@@std@@UEAAXXZ 0000000180044590     libcpmt:cout.obj
 0002:0000f590       $unwind$__acrt_thread_attach 0000000180044590     libucrt:initialization.obj
 0002:0000f590       $unwind$__GSHandlerCheck   0000000180044590     LIBCMT:_gshandler_.obj
 0002:0000f590       $unwind$__acrt_initialize_ptd 0000000180044590     libucrt:per_thread_data.obj
 0002:0000f590       $unwind$__vcrt_getptd      0000000180044590     libvcruntime:per_thread_data.obj
 0002:0000f590       $unwind$_get_osfhandle     0000000180044590     libucrt:osfinfo.obj
 0002:0000f590       $unwind$??__FxT_val@@YAXXZ 0000000180044590     MSC_Fast_optmz_warp_pthread.obj
 0002:0000f590       $unwind$__acrt_uninitialize_ptd 0000000180044590     libucrt:per_thread_data.obj
 0002:0000f590       $unwind$__vcrt_uninitialize_ptd 0000000180044590     libvcruntime:per_thread_data.obj
 0002:0000f590       $unwind$__scrt_dllmain_crt_thread_attach 0000000180044590     LIBCMT:utility.obj
 0002:0000f590       $unwind$__scrt_dllmain_crt_thread_detach 0000000180044590     LIBCMT:utility.obj
 0002:0000f590       $unwind$__vcrt_initialize_ptd 0000000180044590     libvcruntime:per_thread_data.obj
 0002:0000f590       $unwind$_fileno            0000000180044590     libucrt:fileno.obj
 0002:0000f590       $unwind$??__ExT_val@@YAXXZ 0000000180044590     MSC_Fast_optmz_warp_pthread.obj
 0002:0000f590       $unwind$___lc_codepage_func 0000000180044590     libucrt:initctype.obj
 0002:0000f590       $unwind$__crtDownlevelLocaleNameToLCID 0000000180044590     libcpmt:winapinls.obj
 0002:0000f590       $unwind$?state_case_size@?$output_processor@DV?$stream_output_adapter@D@__crt_stdio_output@@V?$standard_base@DV?$stream_output_adapter@D@__crt_stdio_output@@@2@@__crt_stdio_output@@AEAA_NXZ 0000000180044590     libucrt:output.obj
 0002:0000f590       $unwind$?initialize_multibyte@@YAHXZ 0000000180044590     libucrt:multibyte_initializer.obj
 0002:0000f590       $unwind$_fgetc_nolock      0000000180044590     libucrt:fgetc.obj
 0002:0000f590       $unwind$__dcrt_terminate_console_output 0000000180044590     libucrt:initcon.obj
 0002:0000f590       $unwind$__doserrno         0000000180044590     libucrt:errno.obj
 0002:0000f590       $unwind$fsetpos            0000000180044590     libucrt:fsetpos.obj
 0002:0000f590       $unwind$?dllmain_crt_dispatch@@YAHQEAUHINSTANCE__@@KQEAX@Z 0000000180044590     LIBCMT:dll_dllmain.obj
 0002:0000f590       $unwind$_isatty            0000000180044590     libucrt:isatty.obj
 0002:0000f590       $unwind$tidy_global        0000000180044590     libcpmt:locale0.obj
 0002:0000f590       $unwind$__vcrt_thread_detach 0000000180044590     libvcruntime:initialization.obj
 0002:0000f590       $unwind$__vcrt_thread_attach 0000000180044590     libvcruntime:initialization.obj
 0002:0000f590       $unwind$__vcrt_uninitialize_critical 0000000180044590     libvcruntime:initialization.obj
 0002:0000f590       $unwind$__acrt_initialize_multibyte 0000000180044590     libucrt:mbctype.obj
 0002:0000f590       $unwind$_GetImageBase      0000000180044590     libvcruntime:trnsctrl.obj
 0002:0000f590       $unwind$_GetThrowImageBase 0000000180044590     libvcruntime:trnsctrl.obj
 0002:0000f590       $unwind$_invoke_watson     0000000180044590     libucrt:invalid_parameter.obj
 0002:0000f590       $unwind$__vcrt_initialize  0000000180044590     libvcruntime:initialization.obj
 0002:0000f590       $unwind$__pctype_func      0000000180044590     libucrt:ctype.obj
 0002:0000f590       $unwind$__acrt_DownlevelLocaleNameToLCID 0000000180044590     libucrt:lcidtoname_downlevel.obj
 0002:0000f590       $unwind$tolower            0000000180044590     libucrt:tolower_toupper.obj
 0002:0000f590       $unwind$__dcrt_uninitialize_environments_nolock 0000000180044590     libucrt:environment_initialization.obj
 0002:0000f590       $unwind$localeconv         0000000180044590     libucrt:localeconv.obj
 0002:0000f590       $unwind$?deallocate@?$_Wrap_alloc@V?$allocator@D@std@@@std@@QEAAXPEAD_K@Z 0000000180044590     Learn_Image.obj
 0002:0000f590       $unwind$??__Einitlocks@@YAXXZ 0000000180044590     libcpmt:cout.obj
 0002:0000f590       $unwind$__acrt_uninitialize_critical 0000000180044590     libucrt:initialization.obj
 0002:0000f590       $unwind$??$uninitialize_environment_internal@D@@YAXAEAPEAPEAD@Z 0000000180044590     libucrt:environment_initialization.obj
 0002:0000f590       $unwind$_getfpstatusword   0000000180044590     libucrt:_fenvutils.obj
 0002:0000f590       $unwind$?__scrt_uninitialize_thread_safe_statics@@YAXXZ 0000000180044590     LIBCMT:thread_safe_statics.obj
 0002:0000f590       $unwind$__acrt_can_use_vista_locale_apis 0000000180044590     libucrt:winapi_thunks.obj
 0002:0000f590       $unwind$__std_terminate    0000000180044590     libvcruntime:frame.obj
 0002:0000f590       $unwind$atexit             0000000180044590     LIBCMT:utility.obj
 0002:0000f590       $unwind$abort              0000000180044590     libucrt:abort.obj
 0002:0000f590       $unwind$??__F_Fac_tidy_reg@std@@YAXXZ 0000000180044590     libcpmt:locale0.obj
 0002:0000f590       $unwind$_copytlocinfo_nolock 0000000180044590     libucrt:wsetlocale.obj
 0002:0000f590       $unwind$__scrt_initialize_default_local_stdio_options 0000000180044590     LIBCMT:default_local_stdio_options.obj
 0002:0000f590       $unwind$_getfpcontrolword  0000000180044590     libucrt:_fenvutils.obj
 0002:0000f590       $unwind$_errno             0000000180044590     libucrt:errno.obj
 0002:0000f590       $unwind$uninitialize_environment 0000000180044590     libucrt:initialization.obj
 0002:0000f590       $unwind$__FrameUnwindFilter 0000000180044590     libvcruntime:frame.obj
 0002:0000f590       $unwind$_statfp            0000000180044590     libucrt:fpctrl.obj
 0002:0000f590       $unwind$__acrt_initialize_heap 0000000180044590     libucrt:heap_handle.obj
 0002:0000f598       $unwind$??_G?$ctype@D@std@@MEAAPEAXI@Z 0000000180044598     Learn_Image.obj
 0002:0000f598       $unwind$__acrt_errno_map_os_error 0000000180044598     libucrt:errno.obj
 0002:0000f598       $unwind$?assign@?$basic_string@DU?$char_traits@D@std@@V?$allocator@D@2@@std@@QEAAAEAV12@$$QEAV12@@Z 0000000180044598     Learn_Image.obj
 0002:0000f598       $unwind$??_Gbad_cast@std@@UEAAPEAXI@Z 0000000180044598     libcpmt:cout.obj
 0002:0000f598       $unwind$??_Gbad_exception@std@@UEAAPEAXI@Z 0000000180044598     libvcruntime:frame.obj
 0002:0000f598       $unwind$_ungetc_nolock     0000000180044598     libucrt:ungetc.obj
 0002:0000f598       $unwind$?ExFilterRethrow@@YAHPEAU_EXCEPTION_POINTERS@@PEAUEHExceptionRecord@@PEAH@Z 0000000180044598     libvcruntime:frame.obj
 0002:0000f598       $unwind$??_Gexception@std@@UEAAPEAXI@Z 0000000180044598     libcpmt:cout.obj
 0002:0000f598       $unwind$?erase@?$basic_string@DU?$char_traits@D@std@@V?$allocator@D@2@@std@@QEAAAEAV12@_K0@Z 0000000180044598     Learn_Image.obj
 0002:0000f598       $unwind$__acrt_FlsFree     0000000180044598     libucrt:winapi_thunks.obj
 0002:0000f598       $unwind$__acrt_FlsGetValue 0000000180044598     libucrt:winapi_thunks.obj
 0002:0000f598       $unwind$?internal_isupper_l@@YA_NHQEAU__crt_locale_pointers@@@Z 0000000180044598     libucrt:tolower_toupper.obj
 0002:0000f598       $unwind$??_Gbad_alloc@std@@UEAAPEAXI@Z 0000000180044598     libcpmt:xthrow.obj
 0002:0000f598       $unwind$_Deletegloballocale 0000000180044598     libcpmt:locale0.obj
 0002:0000f598       $unwind$?DloadAcquireSectionWriteAccess@@YAXXZ 0000000180044598     DelayImp:delayhlp.obj
 0002:0000f598       $unwind$??_G?$numpunct@D@std@@MEAAPEAXI@Z 0000000180044598     Learn_Image.obj
 0002:0000f598       $unwind$__acrt_stdio_begin_temporary_buffering_nolock 0000000180044598     libucrt:_sftbuf.obj
 0002:0000f598       $unwind$?uflow@?$basic_streambuf@DU?$char_traits@D@std@@@std@@MEAAHXZ 0000000180044598     libcpmt:cout.obj
 0002:0000f598       $unwind$?replace_current_thread_locale_nolock@@YAXQEAU__acrt_ptd@@QEAU__crt_locale_data@@@Z 0000000180044598     libucrt:per_thread_data.obj
 0002:0000f598       $unwind$??_G?$basic_filebuf@DU?$char_traits@D@std@@@std@@UEAAPEAXI@Z 0000000180044598     libcpmt:cout.obj
 0002:0000f598       $unwind$??$common_initialize_environment_nolock@D@@YAHXZ 0000000180044598     libucrt:environment_initialization.obj
 0002:0000f598       $unwind$_fclose_nolock     0000000180044598     libucrt:fclose.obj
 0002:0000f598       $unwind$__acrt_getptd      0000000180044598     libucrt:per_thread_data.obj
 0002:0000f598       $unwind$??_G?$basic_streambuf@DU?$char_traits@D@std@@@std@@UEAAPEAXI@Z 0000000180044598     libcpmt:cout.obj
 0002:0000f598       $unwind$__acrt_locale_initialize_time 0000000180044598     libucrt:inittime.obj
 0002:0000f598       $unwind$_close_nolock      0000000180044598     libucrt:close.obj
 0002:0000f598       $unwind$?force_decimal_point@__crt_stdio_output@@YAXPEADQEAU__crt_locale_pointers@@@Z 0000000180044598     libucrt:output.obj
 0002:0000f598       $unwind$?type_case_c_tchar@?$output_processor@DV?$stream_output_adapter@D@__crt_stdio_output@@V?$standard_base@DV?$stream_output_adapter@D@__crt_stdio_output@@@2@@__crt_stdio_output@@AEAA_ND@Z 0000000180044598     libucrt:output.obj
 0002:0000f598       $unwind$??4Mat@cv@@QEAAAEAV01@AEBV01@@Z 0000000180044598     Image_PreProcessing.obj
 0002:0000f598       $unwind$_realloc_base      0000000180044598     libucrt:realloc_base.obj
 0002:0000f598       $unwind$GetLcidFromLangCountry 0000000180044598     libucrt:getqloc_downlevel.obj
 0002:0000f598       $unwind$__vcrt_EventUnregister 0000000180044598     libvcruntime:winapi_downlevel.obj
 0002:0000f598       $unwind$?type_case_c_tchar@?$output_processor@DV?$string_output_adapter@D@__crt_stdio_output@@V?$format_validation_base@DV?$string_output_adapter@D@__crt_stdio_output@@@2@@__crt_stdio_output@@AEAA_ND@Z 0000000180044598     libucrt:output.obj
 0002:0000f598       $unwind$__vcrt_FlsAlloc    0000000180044598     libvcruntime:winapi_downlevel.obj
 0002:0000f598       $unwind$__acrt_uninitialize_lowio 0000000180044598     libucrt:ioinit.obj
 0002:0000f598       $unwind$??1_Locinfo@std@@QEAA@XZ 0000000180044598     Learn_Image.obj
 0002:0000f598       $unwind$??_Glogic_error@std@@UEAAPEAXI@Z 0000000180044598     libcpmt:xthrow.obj
 0002:0000f598       $unwind$__vcrt_FlsFree     0000000180044598     libvcruntime:winapi_downlevel.obj
 0002:0000f598       $unwind$?pbackfail@?$basic_filebuf@DU?$char_traits@D@std@@@std@@MEAAHH@Z 0000000180044598     libcpmt:cout.obj
 0002:0000f598       $unwind$??$common_xtox@K_W@@YAHKQEA_W_KI_N@Z 0000000180044598     libucrt:xtoa.obj
 0002:0000f598       $unwind$strncpy_s          0000000180044598     libucrt:strncpy_s.obj
 0002:0000f598       $unwind$__vcrt_FlsGetValue 0000000180044598     libvcruntime:winapi_downlevel.obj
 0002:0000f598       $unwind$?_Buy@?$vector@VMat@cv@@V?$allocator@VMat@cv@@@std@@@std@@IEAA_N_K@Z 0000000180044598     MSC_Fast_optmz_warp_pthread.obj
 0002:0000f598       $unwind$??_Gbad_array_new_length@std@@UEAAPEAXI@Z 0000000180044598     LIBCMT:throw_bad_alloc.obj
 0002:0000f598       $unwind$?_New_Locimp@_Locimp@locale@std@@CAPEAV123@_N@Z 0000000180044598     libcpmt:locale0.obj
 0002:0000f598       $unwind$?try_cor_exit_process@@YAXI@Z 0000000180044598     libucrt:exit.obj
 0002:0000f598       $unwind$??0Mat@cv@@QEAA@AEBV01@@Z 0000000180044598     Image_PreProcessing.obj
 0002:0000f598       $unwind$?clone@?$big_any_policy@W4flann_algorithm_t@cvflann@@@anyimpl@cvflann@@UEAAXPEBQEAXPEAPEAX@Z 0000000180044598     Learn_Image.obj
 0002:0000f598       $unwind$??1_Init_locks@std@@QEAA@XZ 0000000180044598     libcpmt:xlock.obj
 0002:0000f598       $unwind$GetLcidFromLanguage 0000000180044598     libucrt:getqloc_downlevel.obj
 0002:0000f598       $unwind$??0_LocaleUpdate@@QEAA@QEAU__crt_locale_pointers@@@Z 0000000180044598     libucrt:output.obj
 0002:0000f598       $unwind$fgetpos            0000000180044598     libucrt:fgetpos.obj
 0002:0000f598       $unwind$?push_back@?$vector@VMat@cv@@V?$allocator@VMat@cv@@@std@@@std@@QEAAX$$QEAVMat@cv@@@Z 0000000180044598     MSC_Fast_optmz_warp_pthread.obj
 0002:0000f598       $unwind$?push_back@?$vector@VMat@cv@@V?$allocator@VMat@cv@@@std@@@std@@QEAAXAEBVMat@cv@@@Z 0000000180044598     MSC_Fast_optmz_warp_pthread.obj
 0002:0000f598       $unwind$?copy_from_value@?$big_any_policy@W4flann_algorithm_t@cvflann@@@anyimpl@cvflann@@UEAAXPEBXPEAPEAX@Z 0000000180044598     Learn_Image.obj
 0002:0000f598       $unwind$??0sentry@?$basic_ostream@DU?$char_traits@D@std@@@std@@QEAA@AEAV12@@Z 0000000180044598     Learn_Image.obj
 0002:0000f598       $unwind$_callnewh          0000000180044598     libucrt:new_handler.obj
 0002:0000f598       $unwind$?clone@?$big_any_policy@W4flann_centers_init_t@cvflann@@@anyimpl@cvflann@@UEAAXPEBQEAXPEAPEAX@Z 0000000180044598     Learn_Image.obj
 0002:0000f598       $unwind$??_Glength_error@std@@UEAAPEAXI@Z 0000000180044598     libcpmt:xthrow.obj
 0002:0000f598       $unwind$?copy_from_value@?$big_any_policy@W4flann_centers_init_t@cvflann@@@anyimpl@cvflann@@UEAAXPEBXPEAPEAX@Z 0000000180044598     Learn_Image.obj
 0002:0000f598       $unwind$?move@?$big_any_policy@V?$basic_string@DU?$char_traits@D@std@@V?$allocator@D@2@@std@@@anyimpl@cvflann@@UEAAXPEBQEAXPEAPEAX@Z 0000000180044598     Learn_Image.obj
 0002:0000f598       $unwind$?__SetUnwindTryBlock@@YAXPEA_KPEAU_xDISPATCHER_CONTEXT@@PEBU_s_FuncInfo@@H@Z 0000000180044598     libvcruntime:ehstate.obj
 0002:0000f598       $unwind$GetLocaleNameFromLanguage 0000000180044598     libucrt:get_qualified_locale.obj
 0002:0000f598       $unwind$__acrt_IsValidLocaleName 0000000180044598     libucrt:winapi_thunks.obj
 0002:0000f598       $unwind$?DloadGetSRWLockFunctionPointers@@YAEXZ 0000000180044598     DelayImp:delayhlp.obj
 0002:0000f598       $unwind$??_Gout_of_range@std@@UEAAPEAXI@Z 0000000180044598     libcpmt:xthrow.obj
 0002:0000f598       $unwind$?static_delete@?$big_any_policy@V?$basic_string@DU?$char_traits@D@std@@V?$allocator@D@2@@std@@@anyimpl@cvflann@@UEAAXPEAPEAX@Z 0000000180044598     Learn_Image.obj
 0002:0000f598       $unwind$?_Locinfo_ctor@_Locinfo@std@@SAXPEAV12@PEBD@Z 0000000180044598     libcpmt:locale0.obj
 0002:0000f598       $unwind$?<helper_func_cdecl>@<lambda_e2bb8337c48846e80c921ea5ddadc92d>@@CAHPEA_W@Z 0000000180044598     libucrt:winapi_thunks.obj
 0002:0000f598       $unwind$_FindAndUnlinkFrame 0000000180044598     libvcruntime:trnsctrl.obj
 0002:0000f598       $unwind$_updatetlocinfoEx_nolock 0000000180044598     libucrt:locale_refcounting.obj
 0002:0000f598       $unwind$wcsncpy_s          0000000180044598     libucrt:wcsncpy_s.obj
 0002:0000f598       $unwind$__acrt_invoke_user_matherr 0000000180044598     libucrt:matherr.obj
 0002:0000f598       $unwind$__acrt_FlsAlloc    0000000180044598     libucrt:winapi_thunks.obj
 0002:0000f598       $unwind$GetLocaleNameFromLangCountry 0000000180044598     libucrt:get_qualified_locale.obj
 0002:0000f5a4       $unwind$__vcrt_initialize_locks 00000001800445a4     libvcruntime:locks.obj
 0002:0000f5a4       $unwind$_malloc_base       00000001800445a4     libucrt:malloc_base.obj
 0002:0000f5a4       $unwind$_onexit            00000001800445a4     LIBCMT:utility.obj
 0002:0000f5a4       $unwind$??__Efout@std@@YAXXZ 00000001800445a4     libcpmt:cout.obj
 0002:0000f5a4       $unwind$??0_Lockit@std@@QEAA@H@Z 00000001800445a4     libcpmt:xlock.obj
 0002:0000f5a4       $unwind$?type_case_integer@?$output_processor@DV?$stream_output_adapter@D@__crt_stdio_output@@V?$standard_base@DV?$stream_output_adapter@D@__crt_stdio_output@@@2@@__crt_stdio_output@@AEAA_NI_N@Z 00000001800445a4     libucrt:output.obj
 0002:0000f5a4       $unwind$_IsExceptionObjectToBeDestroyed 00000001800445a4     libvcruntime:trnsctrl.obj
 0002:0000f5a4       $unwind$load_exe_hook      00000001800445a4     win_delay_load_hook.obj
 0002:0000f5a4       $unwind$strcpy_s           00000001800445a4     libucrt:strcpy_s.obj
 0002:0000f5a4       $unwind$__scrt_release_startup_lock 00000001800445a4     LIBCMT:utility.obj
 0002:0000f5a4       $unwind$fesetenv           00000001800445a4     libucrt:fesetenv.obj
 0002:0000f5a4       $unwind$__scrt_initialize_crt 00000001800445a4     LIBCMT:utility.obj
 0002:0000f5a4       $unwind$?imbue@?$basic_filebuf@DU?$char_traits@D@std@@@std@@MEAAXAEBVlocale@2@@Z 00000001800445a4     libcpmt:cout.obj
 0002:0000f5a4       $unwind$__scrt_uninitialize_crt 00000001800445a4     LIBCMT:utility.obj
 0002:0000f5a4       $unwind$??_G_Facet_base@std@@UEAAPEAXI@Z 00000001800445a4     Learn_Image.obj
 0002:0000f5a4       $unwind$?setbuf@?$basic_filebuf@DU?$char_traits@D@std@@@std@@MEAAPEAV?$basic_streambuf@DU?$char_traits@D@std@@@2@PEAD_J@Z 00000001800445a4     libcpmt:cout.obj
 0002:0000f5a4       $unwind$_calloc_base       00000001800445a4     libucrt:calloc_base.obj
 0002:0000f5a4       $unwind$_CreateFrameInfo   00000001800445a4     libvcruntime:trnsctrl.obj
 0002:0000f5a4       $unwind$_setfpstatusword   00000001800445a4     libucrt:_fenvutils.obj
 0002:0000f5a4       $unwind$__acrt_update_multibyte_info 00000001800445a4     libucrt:locale_update.obj
 0002:0000f5a4       $unwind$_SetThrowImageBase 00000001800445a4     libvcruntime:trnsctrl.obj
 0002:0000f5a4       $unwind$__acrt_update_locale_info 00000001800445a4     libucrt:locale_update.obj
 0002:0000f5a4       $unwind$_SetImageBase      00000001800445a4     libvcruntime:trnsctrl.obj
 0002:0000f5a4       $unwind$??0?$output_processor@DV?$stream_output_adapter@D@__crt_stdio_output@@V?$standard_base@DV?$stream_output_adapter@D@__crt_stdio_output@@@2@@__crt_stdio_output@@QEAA@AEBV?$stream_output_adapter@D@1@_KQEBDQEAU__crt_locale_pointers@@QEAD@Z 00000001800445a4     libucrt:output.obj
 0002:0000f5a4       $unwind$?do_truename@?$numpunct@D@std@@MEBA?AV?$basic_string@DU?$char_traits@D@std@@V?$allocator@D@2@@2@XZ 00000001800445a4     Learn_Image.obj
 0002:0000f5a4       $unwind$??_Gruntime_error@std@@UEAAPEAXI@Z 00000001800445a4     Learn_Image.obj
 0002:0000f5a4       $unwind$?do_falsename@?$numpunct@D@std@@MEBA?AV?$basic_string@DU?$char_traits@D@std@@V?$allocator@D@2@@2@XZ 00000001800445a4     Learn_Image.obj
 0002:0000f5a4       $unwind$?do_grouping@?$numpunct@D@std@@MEBA?AV?$basic_string@DU?$char_traits@D@std@@V?$allocator@D@2@@2@XZ 00000001800445a4     Learn_Image.obj
 0002:0000f5a4       $unwind$?do_widen@?$ctype@D@std@@MEBAPEBDPEBD0PEAD@Z 00000001800445a4     Learn_Image.obj
 0002:0000f5a4       $unwind$feholdexcept       00000001800445a4     libucrt:feholdexcept.obj
 0002:0000f5a4       $unwind$_fflush_nolock     00000001800445a4     libucrt:fflush.obj
 0002:0000f5a4       $unwind$fegetenv           00000001800445a4     libucrt:fegetenv.obj
 0002:0000f5a4       $unwind$??0bad_exception@std@@QEAA@AEBV01@@Z 00000001800445a4     libvcruntime:frame.obj
 0002:0000f5a4       $unwind$_set_statfp        00000001800445a4     libucrt:fpctrl.obj
 0002:0000f5a4       $unwind$?_Setgloballocale@locale@std@@CAXPEAX@Z 00000001800445a4     libcpmt:locale0.obj
 0002:0000f5a4       $unwind$??_Gexception@stdext@@UEAAPEAXI@Z 00000001800445a4     Learn_Image.obj
 0002:0000f5a4       $unwind$__acrt_fp_strflt_to_string 00000001800445a4     libucrt:_fptostr.obj
 0002:0000f5a4       $unwind$?do_narrow@?$ctype@D@std@@MEBAPEBDPEBD0DPEAD@Z 00000001800445a4     Learn_Image.obj
 0002:0000f5a4       $unwind$??_G?$codecvt@DDU_Mbstatet@@@std@@MEAAPEAXI@Z 00000001800445a4     libcpmt:cout.obj
 0002:0000f5a4       $unwind$?state_case_normal@?$output_processor@DV?$stream_output_adapter@D@__crt_stdio_output@@V?$standard_base@DV?$stream_output_adapter@D@__crt_stdio_output@@@2@@__crt_stdio_output@@AEAA_NXZ 00000001800445a4     libucrt:output.obj
 0002:0000f5a4       $unwind$??0bad_alloc@std@@QEAA@AEBV01@@Z 00000001800445a4     libcpmt:xthrow.obj
 0002:0000f5a4       $unwind$?_Facet_Register@std@@YAXPEAV_Facet_base@1@@Z 00000001800445a4     libcpmt:locale0.obj
 0002:0000f5a4       $unwind$??_Gtype_info@@UEAAPEAXI@Z 00000001800445a4     LIBCMT:std_type_info_static.obj
 0002:0000f5a4       $unwind$__acrt_uninitialize_locks 00000001800445a4     libucrt:locks.obj
 0002:0000f5a4       $unwind$??_Gerror_category@std@@UEAAPEAXI@Z 00000001800445a4     Learn_Image.obj
 0002:0000f5a4       $unwind$?state_case_normal_tchar@?$output_processor@DV?$stream_output_adapter@D@__crt_stdio_output@@V?$standard_base@DV?$stream_output_adapter@D@__crt_stdio_output@@@2@@__crt_stdio_output@@AEAA_ND@Z 00000001800445a4     libucrt:output.obj
 0002:0000f5a4       $unwind$??0bad_cast@std@@QEAA@AEBV01@@Z 00000001800445a4     libcpmt:cout.obj
 0002:0000f5a4       $unwind$??0exception@std@@QEAA@AEBV01@@Z 00000001800445a4     libcpmt:cout.obj
 0002:0000f5a4       $unwind$?DloadReleaseSectionWriteAccess@@YAXXZ 00000001800445a4     DelayImp:delayhlp.obj
 0002:0000f5a4       $unwind$?__StateFromIp@@YAHPEBU_s_FuncInfo@@PEAU_xDISPATCHER_CONTEXT@@_J@Z 00000001800445a4     libvcruntime:ehstate.obj
 0002:0000f5a4       $unwind$_Init_thread_notify 00000001800445a4     LIBCMT:thread_safe_statics.obj
 0002:0000f5a4       $unwind$??1?$basic_string@DU?$char_traits@D@std@@V?$allocator@D@2@@std@@QEAA@XZ 00000001800445a4     Learn_Image.obj
 0002:0000f5a4       $unwind$__acrt_initialize_locks 00000001800445a4     libucrt:locks.obj
 0002:0000f5a4       $unwind$?__GetUnwindTryBlock@@YAHPEA_KPEAU_xDISPATCHER_CONTEXT@@PEBU_s_FuncInfo@@@Z 00000001800445a4     libvcruntime:ehstate.obj
 0002:0000f5a4       $unwind$__std_exception_destroy 00000001800445a4     libvcruntime:std_exception.obj
 0002:0000f5a4       $unwind$__std_type_info_destroy_list 00000001800445a4     libvcruntime:std_type_info.obj
 0002:0000f5a4       $unwind$_clrfp             00000001800445a4     libucrt:fpctrl.obj
 0002:0000f5a4       $unwind$__vcrt_uninitialize 00000001800445a4     libvcruntime:initialization.obj
 0002:0000f5a4       $unwind$_Init_thread_footer 00000001800445a4     LIBCMT:thread_safe_statics.obj
 0002:0000f5a4       $unwind$?static_delete@?$big_any_policy@W4flann_centers_init_t@cvflann@@@anyimpl@cvflann@@UEAAXPEAPEAX@Z 00000001800445a4     Learn_Image.obj
 0002:0000f5a4       $unwind$??_G?$num_put@DV?$ostreambuf_iterator@DU?$char_traits@D@std@@@std@@@std@@MEAAPEAXI@Z 00000001800445a4     Learn_Image.obj
 0002:0000f5a4       $unwind$__acrt_uninitialize_winapi_thunks 00000001800445a4     libucrt:winapi_thunks.obj
 0002:0000f5a4       $unwind$??_G_System_error@std@@UEAAPEAXI@Z 00000001800445a4     Learn_Image.obj
 0002:0000f5a4       $unwind$wcscat_s           00000001800445a4     libucrt:wcscat_s.obj
 0002:0000f5a4       $unwind$?message@_Iostream_error_category@std@@UEBA?AV?$basic_string@DU?$char_traits@D@std@@V?$allocator@D@2@@2@H@Z 00000001800445a4     Learn_Image.obj
 0002:0000f5a4       $unwind$__vcrt_uninitialize_locks 00000001800445a4     libvcruntime:locks.obj
 0002:0000f5a4       $unwind$__raise_securityfailure 00000001800445a4     LIBCMT:gs_report.obj
 0002:0000f5a4       $unwind$__acrt_freeptd     00000001800445a4     libucrt:per_thread_data.obj
 0002:0000f5a4       $unwind$?_Addstd@ios_base@std@@SAXPEAV12@@Z 00000001800445a4     libcpmt:ios.obj
 0002:0000f5a4       $unwind$_Init_thread_header 00000001800445a4     LIBCMT:thread_safe_statics.obj
 0002:0000f5a4       $unwind$??0out_of_range@std@@QEAA@AEBV01@@Z 00000001800445a4     libcpmt:xthrow.obj
 0002:0000f5a4       $unwind$??_G_Iostream_error_category@std@@UEAAPEAXI@Z 00000001800445a4     Learn_Image.obj
 0002:0000f5a4       $unwind$?_Ios_base_dtor@ios_base@std@@CAXPEAV12@@Z 00000001800445a4     libcpmt:ios.obj
 0002:0000f5a4       $unwind$?type_case_integer@?$output_processor@DV?$string_output_adapter@D@__crt_stdio_output@@V?$format_validation_base@DV?$string_output_adapter@D@__crt_stdio_output@@@2@@__crt_stdio_output@@AEAA_NI_N@Z 00000001800445a4     libucrt:output.obj
 0002:0000f5a4       $unwind$__acrt_uninitialize_stdio 00000001800445a4     libucrt:_file.obj
 0002:0000f5a4       $unwind$initialize_pointers 00000001800445a4     libucrt:initialization.obj
 0002:0000f5a4       $unwind$_clearfp           00000001800445a4     libucrt:ieee.obj
 0002:0000f5a4       $unwind$clock              00000001800445a4     libucrt:clock.obj
 0002:0000f5a4       $unwind$__vcrt_freeptd     00000001800445a4     libvcruntime:per_thread_data.obj
 0002:0000f5a4       $unwind$wcscpy_s           00000001800445a4     libucrt:wcscpy_s.obj
 0002:0000f5a4       $unwind$__acrt_stdio_allocate_buffer_nolock 00000001800445a4     libucrt:_getbuf.obj
 0002:0000f5a4       $unwind$??0?$Mat_@M@cv@@QEAA@HH@Z 00000001800445a4     Learn_Image.obj
 0002:0000f5a4       $unwind$??_Gfailure@ios_base@std@@UEAAPEAXI@Z 00000001800445a4     Learn_Image.obj
 0002:0000f5a4       $unwind$uninitialize_allocated_memory 00000001800445a4     libucrt:initialization.obj
 0002:0000f5a4       $unwind$??0logic_error@std@@QEAA@AEBV01@@Z 00000001800445a4     libcpmt:xthrow.obj
 0002:0000f5a4       $unwind$_purecall          00000001800445a4     libvcruntime:purevirt.obj
 0002:0000f5a4       $unwind$_Getctype          00000001800445a4     libcpmt:_tolower.obj
 0002:0000f5a4       $unwind$?static_delete@?$big_any_policy@Uempty_any@anyimpl@cvflann@@@anyimpl@cvflann@@UEAAXPEAPEAX@Z 00000001800445a4     Learn_Image.obj
 0002:0000f5a4       $unwind$??1Mat@cv@@QEAA@XZ 00000001800445a4     Image_PreProcessing.obj
 0002:0000f5a4       $unwind$?_Reserve@?$vector@VMat@cv@@V?$allocator@VMat@cv@@@std@@@std@@IEAAX_K@Z 00000001800445a4     MSC_Fast_optmz_warp_pthread.obj
 0002:0000f5a4       $unwind$?_Tidy@?$vector@VMat@cv@@V?$allocator@VMat@cv@@@std@@@std@@IEAAXXZ 00000001800445a4     MSC_Fast_optmz_warp_pthread.obj
 0002:0000f5a4       $unwind$?static_delete@?$big_any_policy@W4flann_algorithm_t@cvflann@@@anyimpl@cvflann@@UEAAXPEAPEAX@Z 00000001800445a4     Learn_Image.obj
 0002:0000f5a4       $unwind$??0MatConstIterator@cv@@QEAA@PEBVMat@1@@Z 00000001800445a4     Learn_Image.obj
 0002:0000f5a4       $unwind$?initialize_pointers@@YAHXZ 00000001800445a4     libcpmt:winapisupp.obj
 0002:0000f5a4       $unwind$??0bad_array_new_length@std@@QEAA@AEBV01@@Z 00000001800445a4     LIBCMT:throw_bad_alloc.obj
 0002:0000f5a4       $unwind$??0length_error@std@@QEAA@AEBV01@@Z 00000001800445a4     libcpmt:xthrow.obj
 0002:0000f5a4       $unwind$__acrt_stdio_free_buffer_nolock 00000001800445a4     libucrt:_freebuf.obj
 0002:0000f5a4       $unwind$?state_case_normal@?$output_processor@DV?$string_output_adapter@D@__crt_stdio_output@@V?$format_validation_base@DV?$string_output_adapter@D@__crt_stdio_output@@@2@@__crt_stdio_output@@AEAA_NXZ 00000001800445a4     libucrt:output.obj
 0002:0000f5a4       $unwind$?clone@?$big_any_policy@Uempty_any@anyimpl@cvflann@@@anyimpl@cvflann@@UEAAXPEBQEAXPEAPEAX@Z 00000001800445a4     Learn_Image.obj
 0002:0000f5a4       $unwind$?exit_or_terminate_process@@YAXI@Z 00000001800445a4     libucrt:exit.obj
 0002:0000f5a4       $unwind$??2@YAPEAX_K@Z     00000001800445a4     LIBCMT:new_scalar.obj
 0002:0000f5a4       $unwind$??0?$output_processor@DV?$string_output_adapter@D@__crt_stdio_output@@V?$format_validation_base@DV?$string_output_adapter@D@__crt_stdio_output@@@2@@__crt_stdio_output@@QEAA@AEBV?$string_output_adapter@D@1@_KQEBDQEAU__crt_locale_pointers@@QEAD@Z 00000001800445a4     libucrt:output.obj
 0002:0000f5a4       $unwind$?copy_from_value@?$big_any_policy@Uempty_any@anyimpl@cvflann@@@anyimpl@cvflann@@UEAAXPEBXPEAPEAX@Z 00000001800445a4     Learn_Image.obj
 0002:0000f5ac       $unwind$?CannyThreshold@@YA?AVMat@cv@@V12@HH@Z 00000001800445ac     Image_PreProcessing.obj
 0002:0000f5c8       $unwind$?CannyThreshold_MemoryImages@@YA?AVMat@cv@@V12@@Z 00000001800445c8     Image_PreProcessing.obj
 0002:0000f5e4       $chain$0$?CannyThreshold_MemoryImages@@YA?AVMat@cv@@V12@@Z 00000001800445e4     Image_PreProcessing.obj
 0002:0000f5f8       $chain$3$?CannyThreshold_MemoryImages@@YA?AVMat@cv@@V12@@Z 00000001800445f8     Image_PreProcessing.obj
 0002:0000f614       $chain$4$?CannyThreshold_MemoryImages@@YA?AVMat@cv@@V12@@Z 0000000180044614     Image_PreProcessing.obj
 0002:0000f624       $chain$5$?CannyThreshold_MemoryImages@@YA?AVMat@cv@@V12@@Z 0000000180044624     Image_PreProcessing.obj
 0002:0000f634       $unwind$?padImageMatrix@@YA?AVMat@cv@@V12@HH@Z 0000000180044634     Image_PreProcessing.obj
 0002:0000f654       $unwind$??$_Destroy_range@U?$_Wrap_alloc@V?$allocator@V?$vector@V?$Point_@H@cv@@V?$allocator@V?$Point_@H@cv@@@std@@@std@@@std@@@std@@@std@@YAXPEAV?$vector@V?$Point_@H@cv@@V?$allocator@V?$Point_@H@cv@@@std@@@0@0AEAU?$_Wrap_alloc@V?$allocator@V?$vector@V?$Point_@H@cv@@V?$allocator@V?$Point_@H@cv@@@std@@@std@@@std@@@0@U_Nonscalar_ptr_iterator_tag@0@@Z 0000000180044654     Image_PreProcessing.obj
 0002:0000f660       $chain$1$??$_Destroy_range@U?$_Wrap_alloc@V?$allocator@V?$vector@V?$Point_@H@cv@@V?$allocator@V?$Point_@H@cv@@@std@@@std@@@std@@@std@@@std@@YAXPEAV?$vector@V?$Point_@H@cv@@V?$allocator@V?$Point_@H@cv@@@std@@@0@0AEAU?$_Wrap_alloc@V?$allocator@V?$vector@V?$Point_@H@cv@@V?$allocator@V?$Point_@H@cv@@@std@@@std@@@std@@@0@U_Nonscalar_ptr_iterator_tag@0@@Z 0000000180044660     Image_PreProcessing.obj
 0002:0000f678       $chain$2$??$_Destroy_range@U?$_Wrap_alloc@V?$allocator@V?$vector@V?$Point_@H@cv@@V?$allocator@V?$Point_@H@cv@@@std@@@std@@@std@@@std@@@std@@YAXPEAV?$vector@V?$Point_@H@cv@@V?$allocator@V?$Point_@H@cv@@@std@@@0@0AEAU?$_Wrap_alloc@V?$allocator@V?$vector@V?$Point_@H@cv@@V?$allocator@V?$Point_@H@cv@@@std@@@std@@@std@@@0@U_Nonscalar_ptr_iterator_tag@0@@Z 0000000180044678     Image_PreProcessing.obj
 0002:0000f688       $chain$3$??$_Destroy_range@U?$_Wrap_alloc@V?$allocator@V?$vector@V?$Point_@H@cv@@V?$allocator@V?$Point_@H@cv@@@std@@@std@@@std@@@std@@@std@@YAXPEAV?$vector@V?$Point_@H@cv@@V?$allocator@V?$Point_@H@cv@@@std@@@0@0AEAU?$_Wrap_alloc@V?$allocator@V?$vector@V?$Point_@H@cv@@V?$allocator@V?$Point_@H@cv@@@std@@@std@@@std@@@0@U_Nonscalar_ptr_iterator_tag@0@@Z 0000000180044688     Image_PreProcessing.obj
 0002:0000f6a0       $unwind$printf             00000001800446a0     Learn_Image.obj
 0002:0000f6ac       $unwind$sprintf_s          00000001800446ac     Learn_Image.obj
 0002:0000f6bc       $unwind$?x_ismbbtype_l@@YAHPEAU__crt_locale_pointers@@IHH@Z 00000001800446bc     libucrt:ismbbyte.obj
 0002:0000f6bc       $unwind$_stricmp_l         00000001800446bc     libucrt:stricmp.obj
 0002:0000f6bc       $unwind$??0_Locinfo@std@@QEAA@PEBD@Z 00000001800446bc     Learn_Image.obj
 0002:0000f6cc       $unwind$?_Getcat@?$ctype@D@std@@SA_KPEAPEBVfacet@locale@2@PEBV42@@Z 00000001800446cc     Learn_Image.obj
 0002:0000f6dc       $chain$0$?_Getcat@?$ctype@D@std@@SA_KPEAPEBVfacet@locale@2@PEBV42@@Z 00000001800446dc     Learn_Image.obj
 0002:0000f6f0       $chain$1$?_Getcat@?$ctype@D@std@@SA_KPEAPEBVfacet@locale@2@PEBV42@@Z 00000001800446f0     Learn_Image.obj
 0002:0000f700       $unwind$?do_toupper@?$ctype@D@std@@MEBAPEBDPEADPEBD@Z 0000000180044700     Learn_Image.obj
 0002:0000f700       $unwind$ProcessCodePage    0000000180044700     libucrt:get_qualified_locale.obj
 0002:0000f700       $unwind$?do_tolower@?$ctype@D@std@@MEBAPEBDPEADPEBD@Z 0000000180044700     Learn_Image.obj
 0002:0000f700       $unwind$??R<lambda_b721fa326cdb32351d23dfa67958c160>@@QEBAHXZ 0000000180044700     libucrt:setvbuf.obj
 0002:0000f700       $unwind$TestDefaultLanguage 0000000180044700     libucrt:getqloc_downlevel.obj
 0002:0000f700       $unwind$ProcessCodePage    0000000180044700     libucrt:getqloc_downlevel.obj
 0002:0000f710       $chain$0$?do_tolower@?$ctype@D@std@@MEBAPEBDPEADPEBD@Z 0000000180044710     Learn_Image.obj
 0002:0000f724       $chain$1$?do_tolower@?$ctype@D@std@@MEBAPEBDPEADPEBD@Z 0000000180044724     Learn_Image.obj
 0002:0000f734       $chain$0$?do_toupper@?$ctype@D@std@@MEBAPEBDPEADPEBD@Z 0000000180044734     Learn_Image.obj
 0002:0000f748       $chain$1$?do_toupper@?$ctype@D@std@@MEBAPEBDPEADPEBD@Z 0000000180044748     Learn_Image.obj
 0002:0000f758       $unwind$strtol             0000000180044758     libucrt:strtox.obj
 0002:0000f758       $unwind$??0length_error@std@@QEAA@PEBD@Z 0000000180044758     libcpmt:xthrow.obj
 0002:0000f758       $unwind$?flush@?$basic_ostream@DU?$char_traits@D@std@@@std@@QEAAAEAV12@XZ 0000000180044758     Learn_Image.obj
 0002:0000f758       $unwind$??$common_xtox_s@K_W@@YAHKQEA_W_KI_N@Z 0000000180044758     libucrt:xtoa.obj
 0002:0000f758       $unwind$??0out_of_range@std@@QEAA@PEBD@Z 0000000180044758     libcpmt:xthrow.obj
 0002:0000f758       $unwind$?equivalent@error_category@std@@UEBA_NHAEBVerror_condition@2@@Z 0000000180044758     Learn_Image.obj
 0002:0000f758       $unwind$__stdio_common_vsprintf_s 0000000180044758     libucrt:output.obj
 0002:0000f760       $unwind$?_Makestr@_System_error@std@@CA?AV?$basic_string@DU?$char_traits@D@std@@V?$allocator@D@2@@2@Verror_code@2@V32@@Z 0000000180044760     Learn_Image.obj
 0002:0000f774       $unwind$?clear@ios_base@std@@QEAAXH_N@Z 0000000180044774     Learn_Image.obj
 0002:0000f788       $chain$1$?clear@ios_base@std@@QEAAXH_N@Z 0000000180044788     Learn_Image.obj
 0002:0000f7a0       $chain$2$?clear@ios_base@std@@QEAAXH_N@Z 00000001800447a0     Learn_Image.obj
 0002:0000f7b0       $chain$3$?clear@ios_base@std@@QEAAXH_N@Z 00000001800447b0     Learn_Image.obj
 0002:0000f7c8       $unwind$?Verify_Object@@YANVMat@cv@@0N@Z 00000001800447c8     Learn_Image.obj
 0002:0000f7e0       $unwind$??6?$basic_ostream@DU?$char_traits@D@std@@@std@@QEAAAEAV01@_N@Z 00000001800447e0     Learn_Image.obj
 0002:0000f7e0       $unwind$??6?$basic_ostream@DU?$char_traits@D@std@@@std@@QEAAAEAV01@I@Z 00000001800447e0     Learn_Image.obj
 0002:0000f7e0       $unwind$??6?$basic_ostream@DU?$char_traits@D@std@@@std@@QEAAAEAV01@H@Z 00000001800447e0     Learn_Image.obj
 0002:0000f7e8       $chain$1$??6?$basic_ostream@DU?$char_traits@D@std@@@std@@QEAAAEAV01@I@Z 00000001800447e8     Learn_Image.obj
 0002:0000f800       $chain$3$??6?$basic_ostream@DU?$char_traits@D@std@@@std@@QEAAAEAV01@I@Z 0000000180044800     Learn_Image.obj
 0002:0000f818       $chain$4$??6?$basic_ostream@DU?$char_traits@D@std@@@std@@QEAAAEAV01@I@Z 0000000180044818     Learn_Image.obj
 0002:0000f82c       $chain$5$??6?$basic_ostream@DU?$char_traits@D@std@@@std@@QEAAAEAV01@I@Z 000000018004482c     Learn_Image.obj
 0002:0000f83c       $chain$6$??6?$basic_ostream@DU?$char_traits@D@std@@@std@@QEAAAEAV01@I@Z 000000018004483c     Learn_Image.obj
 0002:0000f850       $chain$7$??6?$basic_ostream@DU?$char_traits@D@std@@@std@@QEAAAEAV01@I@Z 0000000180044850     Learn_Image.obj
 0002:0000f860       $chain$1$??6?$basic_ostream@DU?$char_traits@D@std@@@std@@QEAAAEAV01@H@Z 0000000180044860     Learn_Image.obj
 0002:0000f878       $chain$3$??6?$basic_ostream@DU?$char_traits@D@std@@@std@@QEAAAEAV01@H@Z 0000000180044878     Learn_Image.obj
 0002:0000f890       $chain$4$??6?$basic_ostream@DU?$char_traits@D@std@@@std@@QEAAAEAV01@H@Z 0000000180044890     Learn_Image.obj
 0002:0000f8a4       $chain$5$??6?$basic_ostream@DU?$char_traits@D@std@@@std@@QEAAAEAV01@H@Z 00000001800448a4     Learn_Image.obj
 0002:0000f8b4       $chain$6$??6?$basic_ostream@DU?$char_traits@D@std@@@std@@QEAAAEAV01@H@Z 00000001800448b4     Learn_Image.obj
 0002:0000f8c8       $chain$7$??6?$basic_ostream@DU?$char_traits@D@std@@@std@@QEAAAEAV01@H@Z 00000001800448c8     Learn_Image.obj
 0002:0000f8d8       $unwind$?do_put@?$num_put@DV?$ostreambuf_iterator@DU?$char_traits@D@std@@@std@@@std@@MEBA?AV?$ostreambuf_iterator@DU?$char_traits@D@std@@@2@V32@AEAVios_base@2@DPEBX@Z 00000001800448d8     Learn_Image.obj
 0002:0000f8f0       $unwind$?do_put@?$num_put@DV?$ostreambuf_iterator@DU?$char_traits@D@std@@@std@@@std@@MEBA?AV?$ostreambuf_iterator@DU?$char_traits@D@std@@@2@V32@AEAVios_base@2@DO@Z 00000001800448f0     Learn_Image.obj
 0002:0000f8f0       $unwind$?do_put@?$num_put@DV?$ostreambuf_iterator@DU?$char_traits@D@std@@@std@@@std@@MEBA?AV?$ostreambuf_iterator@DU?$char_traits@D@std@@@2@V32@AEAVios_base@2@DN@Z 00000001800448f0     Learn_Image.obj
 0002:0000f914       $unwind$?do_put@?$num_put@DV?$ostreambuf_iterator@DU?$char_traits@D@std@@@std@@@std@@MEBA?AV?$ostreambuf_iterator@DU?$char_traits@D@std@@@2@V32@AEAVios_base@2@D_K@Z 0000000180044914     Learn_Image.obj
 0002:0000f914       $unwind$?do_put@?$num_put@DV?$ostreambuf_iterator@DU?$char_traits@D@std@@@std@@@std@@MEBA?AV?$ostreambuf_iterator@DU?$char_traits@D@std@@@2@V32@AEAVios_base@2@DJ@Z 0000000180044914     Learn_Image.obj
 0002:0000f914       $unwind$?do_put@?$num_put@DV?$ostreambuf_iterator@DU?$char_traits@D@std@@@std@@@std@@MEBA?AV?$ostreambuf_iterator@DU?$char_traits@D@std@@@2@V32@AEAVios_base@2@DK@Z 0000000180044914     Learn_Image.obj
 0002:0000f914       $unwind$?do_put@?$num_put@DV?$ostreambuf_iterator@DU?$char_traits@D@std@@@std@@@std@@MEBA?AV?$ostreambuf_iterator@DU?$char_traits@D@std@@@2@V32@AEAVios_base@2@D_J@Z 0000000180044914     Learn_Image.obj
 0002:0000f92c       $unwind$?do_put@?$num_put@DV?$ostreambuf_iterator@DU?$char_traits@D@std@@@std@@@std@@MEBA?AV?$ostreambuf_iterator@DU?$char_traits@D@std@@@2@V32@AEAVios_base@2@D_N@Z 000000018004492c     Learn_Image.obj
 0002:0000f948       $chain$1$?do_put@?$num_put@DV?$ostreambuf_iterator@DU?$char_traits@D@std@@@std@@@std@@MEBA?AV?$ostreambuf_iterator@DU?$char_traits@D@std@@@2@V32@AEAVios_base@2@D_N@Z 0000000180044948     Learn_Image.obj
 0002:0000f960       $chain$2$?do_put@?$num_put@DV?$ostreambuf_iterator@DU?$char_traits@D@std@@@std@@@std@@MEBA?AV?$ostreambuf_iterator@DU?$char_traits@D@std@@@2@V32@AEAVios_base@2@D_N@Z 0000000180044960     Learn_Image.obj
 0002:0000f974       $chain$3$?do_put@?$num_put@DV?$ostreambuf_iterator@DU?$char_traits@D@std@@@std@@@std@@MEBA?AV?$ostreambuf_iterator@DU?$char_traits@D@std@@@2@V32@AEAVios_base@2@D_N@Z 0000000180044974     Learn_Image.obj
 0002:0000f984       $chain$4$?do_put@?$num_put@DV?$ostreambuf_iterator@DU?$char_traits@D@std@@@std@@@std@@MEBA?AV?$ostreambuf_iterator@DU?$char_traits@D@std@@@2@V32@AEAVios_base@2@D_N@Z 0000000180044984     Learn_Image.obj
 0002:0000f994       $chain$5$?do_put@?$num_put@DV?$ostreambuf_iterator@DU?$char_traits@D@std@@@std@@@std@@MEBA?AV?$ostreambuf_iterator@DU?$char_traits@D@std@@@2@V32@AEAVios_base@2@D_N@Z 0000000180044994     Learn_Image.obj
 0002:0000f9ac       $unwind$?assign@?$basic_string@DU?$char_traits@D@std@@V?$allocator@D@2@@std@@QEAAAEAV12@_KD@Z 00000001800449ac     Learn_Image.obj
 0002:0000f9ac       $unwind$?__scrt_initialize_thread_safe_statics@@YAHXZ 00000001800449ac     LIBCMT:thread_safe_statics.obj
 0002:0000f9ac       $unwind$??0_Init_locks@std@@QEAA@XZ 00000001800449ac     libcpmt:xlock.obj
 0002:0000f9ac       $unwind$?sync@?$basic_filebuf@DU?$char_traits@D@std@@@std@@MEAAHXZ 00000001800449ac     libcpmt:cout.obj
 0002:0000f9ac       $unwind$__acrt_LocaleNameToLCID 00000001800449ac     libucrt:winapi_thunks.obj
 0002:0000f9ac       $unwind$?free_crt_array_internal@@YAXQEAPEBX_K@Z 00000001800449ac     libucrt:inittime.obj
 0002:0000f9ac       $unwind$?assign@?$basic_string@DU?$char_traits@D@std@@V?$allocator@D@2@@std@@QEAAAEAV12@PEBD_K@Z 00000001800449ac     Learn_Image.obj
 0002:0000f9ac       $unwind$_DllMainCRTStartup 00000001800449ac     LIBCMT:dll_dllmain.obj
 0002:0000f9ac       $unwind$?underflow@?$basic_filebuf@DU?$char_traits@D@std@@@std@@MEAAHXZ 00000001800449ac     libcpmt:cout.obj
 0002:0000f9ac       $unwind$?_Tidy@ios_base@std@@AEAAXXZ 00000001800449ac     libcpmt:ios.obj
 0002:0000f9ac       $unwind$memcpy_s           00000001800449ac     libucrt:cfout.obj
 0002:0000f9ac       $unwind$??4?$_Yarn@D@std@@QEAAAEAV01@PEBD@Z 00000001800449ac     libcpmt:locale0.obj
 0002:0000f9ac       $unwind$_exception_enabled 00000001800449ac     libucrt:libm_error.obj
 0002:0000f9ac       $unwind$??R<lambda_532e024f4337e6fc7ad266c2bef9f4ed>@@QEBA_KXZ 00000001800449ac     libucrt:fwrite.obj
 0002:0000f9ac       $unwind$?type_case_s@?$output_processor@DV?$stream_output_adapter@D@__crt_stdio_output@@V?$standard_base@DV?$stream_output_adapter@D@__crt_stdio_output@@@2@@__crt_stdio_output@@AEAA_NXZ 00000001800449ac     libucrt:output.obj
 0002:0000f9ac       $unwind$__acrt_FlsSetValue 00000001800449ac     libucrt:winapi_thunks.obj
 0002:0000f9ac       $unwind$??$common_lseek_nolock@_J@@YA_JH_JH@Z 00000001800449ac     libucrt:lseek.obj
 0002:0000f9ac       $unwind$??$_Ucopy@PEAVMat@cv@@@?$vector@VMat@cv@@V?$allocator@VMat@cv@@@std@@@std@@IEAAPEAVMat@cv@@PEAV23@00@Z 00000001800449ac     MSC_Fast_optmz_warp_pthread.obj
 0002:0000f9ac       $unwind$?type_case_n@?$output_processor@DV?$string_output_adapter@D@__crt_stdio_output@@V?$format_validation_base@DV?$string_output_adapter@D@__crt_stdio_output@@@2@@__crt_stdio_output@@AEAA_NXZ 00000001800449ac     libucrt:output.obj
 0002:0000f9ac       $unwind$__acrt_getptd_noexit 00000001800449ac     libucrt:per_thread_data.obj
 0002:0000f9ac       $unwind$_Getcvt            00000001800449ac     libcpmt:xwctomb.obj
 0002:0000f9ac       $unwind$__vcrt_getptd_noexit 00000001800449ac     libvcruntime:per_thread_data.obj
 0002:0000f9ac       $unwind$?type_case_s@?$output_processor@DV?$string_output_adapter@D@__crt_stdio_output@@V?$format_validation_base@DV?$string_output_adapter@D@__crt_stdio_output@@@2@@__crt_stdio_output@@AEAA_NXZ 00000001800449ac     libucrt:output.obj
 0002:0000f9ac       $unwind$?type_case_Z@?$output_processor@DV?$string_output_adapter@D@__crt_stdio_output@@V?$format_validation_base@DV?$string_output_adapter@D@__crt_stdio_output@@@2@@__crt_stdio_output@@AEAA_NXZ 00000001800449ac     libucrt:output.obj
 0002:0000f9ac       $unwind$_initterm_e        00000001800449ac     libucrt:initterm.obj
 0002:0000f9ac       $unwind$?type_case_Z@?$output_processor@DV?$stream_output_adapter@D@__crt_stdio_output@@V?$standard_base@DV?$stream_output_adapter@D@__crt_stdio_output@@@2@@__crt_stdio_output@@AEAA_NXZ 00000001800449ac     libucrt:output.obj
 0002:0000f9ac       $unwind$__vcrt_FlsSetValue 00000001800449ac     libvcruntime:winapi_downlevel.obj
 0002:0000f9ac       $unwind$__acrt_stdio_flush_nolock 00000001800449ac     libucrt:fflush.obj
 0002:0000f9ac       $unwind$__acrt_execute_uninitializers 00000001800449ac     libucrt:shared_initialization.obj
 0002:0000f9ac       $unwind$?_Initcvt@?$basic_filebuf@DU?$char_traits@D@std@@@std@@IEAAXPEBV?$codecvt@DDU_Mbstatet@@@2@@Z 00000001800449ac     libcpmt:cout.obj
 0002:0000f9ac       $unwind$?put@?$basic_ostream@DU?$char_traits@D@std@@@std@@QEAAAEAV12@D@Z 00000001800449ac     Learn_Image.obj
 0002:0000f9ac       $unwind$??R<lambda_ad1ced32f4ac17aa236e5ef05d6b3b7c>@@QEBAXXZ 00000001800449ac     libucrt:mbctype.obj
 0002:0000f9ac       $unwind$?TraceLoggingRegister@__vcrt_trace_logging_provider@@YAJPEBU_TlgProvider_t@1@PEBU_GUID@@P6AX1KE_K2PEAU_EVENT_FILTER_DESCRIPTOR@@PEAX@Z4@Z 00000001800449ac     libvcruntime:telemetry.obj
 0002:0000f9ac       $unwind$__acrt_stdio_flush_and_write_narrow_nolock 00000001800449ac     libucrt:_flsbuf.obj
 0002:0000f9ac       $unwind$__acrt_GetUserDefaultLocaleName 00000001800449ac     libucrt:winapi_thunks.obj
 0002:0000f9ac       $unwind$_RTC_Initialize    00000001800449ac     LIBCMT:_initsect_.obj
 0002:0000f9ac       $unwind$?clone@?$big_any_policy@V?$basic_string@DU?$char_traits@D@std@@V?$allocator@D@2@@std@@@anyimpl@cvflann@@UEAAXPEBQEAXPEAPEAX@Z 00000001800449ac     Learn_Image.obj
 0002:0000f9ac       $unwind$?copy_from_value@?$big_any_policy@V?$basic_string@DU?$char_traits@D@std@@V?$allocator@D@2@@std@@@anyimpl@cvflann@@UEAAXPEBXPEAPEAX@Z 00000001800449ac     Learn_Image.obj
 0002:0000f9ac       $unwind$?type_case_n@?$output_processor@DV?$stream_output_adapter@D@__crt_stdio_output@@V?$standard_base@DV?$stream_output_adapter@D@__crt_stdio_output@@@2@@__crt_stdio_output@@AEAA_NXZ 00000001800449ac     libucrt:output.obj
 0002:0000f9ac       $unwind$_Init_thread_wait  00000001800449ac     LIBCMT:thread_safe_statics.obj
 0002:0000f9ac       $unwind$_RTC_Terminate     00000001800449ac     LIBCMT:_initsect_.obj
 0002:0000f9bc       $unwind$_seh_filter_exe    00000001800449bc     libucrt:exception_filter.obj
 0002:0000f9bc       $unwind$_recalloc_base     00000001800449bc     libucrt:recalloc.obj
 0002:0000f9bc       $unwind$?dllmain_raw@@YAHQEAUHINSTANCE__@@KQEAX@Z 00000001800449bc     LIBCMT:dll_dllmain.obj
 0002:0000f9bc       $unwind$__acrt_free_locale 00000001800449bc     libucrt:locale_refcounting.obj
 0002:0000f9bc       $unwind$__scrt_dllmain_exception_filter 00000001800449bc     LIBCMT:utility.obj
 0002:0000f9bc       $unwind$__crtInitializeCriticalSectionEx 00000001800449bc     libcpmt:winapisupp.obj
 0002:0000f9bc       $unwind$?assign@?$basic_string@DU?$char_traits@D@std@@V?$allocator@D@2@@std@@QEAAAEAV12@AEBV12@_K1@Z 00000001800449bc     Learn_Image.obj
 0002:0000f9bc       $unwind$__vcrt_InitializeCriticalSectionEx 00000001800449bc     libvcruntime:winapi_downlevel.obj
 0002:0000f9bc       $unwind$__acrt_execute_initializers 00000001800449bc     libucrt:shared_initialization.obj
 0002:0000f9bc       $unwind$?process@?$output_processor@DV?$string_output_adapter@D@__crt_stdio_output@@V?$format_validation_base@DV?$string_output_adapter@D@__crt_stdio_output@@@2@@__crt_stdio_output@@QEAAHXZ 00000001800449bc     libucrt:output.obj
 0002:0000f9bc       $unwind$__acrt_InitializeCriticalSectionEx 00000001800449bc     libucrt:winapi_thunks.obj
 0002:0000f9bc       $unwind$??$ensure_buffer_is_big_enough@D@formatting_buffer@__crt_stdio_output@@QEAA_N_K@Z 00000001800449bc     libucrt:output.obj
 0002:0000f9bc       $unwind$?setSBCS@@YAXPEAU__crt_multibyte_data@@@Z 00000001800449bc     libucrt:mbctype.obj
 0002:0000f9bc       $unwind$__acrt_lowio_create_handle_array 00000001800449bc     libucrt:osfinfo.obj
 0002:0000f9d0       $unwind$?append@?$basic_string@DU?$char_traits@D@std@@V?$allocator@D@2@@std@@QEAAAEAV12@PEBD_K@Z 00000001800449d0     Learn_Image.obj
 0002:0000f9d0       $unwind$?append@?$basic_string@DU?$char_traits@D@std@@V?$allocator@D@2@@std@@QEAAAEAV12@_KD@Z 00000001800449d0     Learn_Image.obj
 0002:0000f9e0       $chain$0$?append@?$basic_string@DU?$char_traits@D@std@@V?$allocator@D@2@@std@@QEAAAEAV12@PEBD_K@Z 00000001800449e0     Learn_Image.obj
 0002:0000f9f4       $chain$1$?append@?$basic_string@DU?$char_traits@D@std@@V?$allocator@D@2@@std@@QEAAAEAV12@PEBD_K@Z 00000001800449f4     Learn_Image.obj
 0002:0000fa04       $chain$2$?append@?$basic_string@DU?$char_traits@D@std@@V?$allocator@D@2@@std@@QEAAAEAV12@PEBD_K@Z 0000000180044a04     Learn_Image.obj
 0002:0000fa18       $unwind$?append@?$basic_string@DU?$char_traits@D@std@@V?$allocator@D@2@@std@@QEAAAEAV12@AEBV12@_K1@Z 0000000180044a18     Learn_Image.obj
 0002:0000fa2c       $chain$0$?append@?$basic_string@DU?$char_traits@D@std@@V?$allocator@D@2@@std@@QEAAAEAV12@AEBV12@_K1@Z 0000000180044a2c     Learn_Image.obj
 0002:0000fa40       $chain$1$?append@?$basic_string@DU?$char_traits@D@std@@V?$allocator@D@2@@std@@QEAAAEAV12@AEBV12@_K1@Z 0000000180044a40     Learn_Image.obj
 0002:0000fa50       $chain$2$?append@?$basic_string@DU?$char_traits@D@std@@V?$allocator@D@2@@std@@QEAAAEAV12@AEBV12@_K1@Z 0000000180044a50     Learn_Image.obj
 0002:0000fa64       $unwind$?_Iput@?$num_put@DV?$ostreambuf_iterator@DU?$char_traits@D@std@@@std@@@std@@AEBA?AV?$ostreambuf_iterator@DU?$char_traits@D@std@@@2@V32@AEAVios_base@2@DPEAD_K@Z 0000000180044a64     Learn_Image.obj
 0002:0000fa88       $unwind$?_Fput@?$num_put@DV?$ostreambuf_iterator@DU?$char_traits@D@std@@@std@@@std@@AEBA?AV?$ostreambuf_iterator@DU?$char_traits@D@std@@@2@V32@AEAVios_base@2@DPEBD_K@Z 0000000180044a88     Learn_Image.obj
 0002:0000faac       $chain$0$?append@?$basic_string@DU?$char_traits@D@std@@V?$allocator@D@2@@std@@QEAAAEAV12@_KD@Z 0000000180044aac     Learn_Image.obj
 0002:0000fac0       $chain$1$?append@?$basic_string@DU?$char_traits@D@std@@V?$allocator@D@2@@std@@QEAAAEAV12@_KD@Z 0000000180044ac0     Learn_Image.obj
 0002:0000fad0       $chain$2$?append@?$basic_string@DU?$char_traits@D@std@@V?$allocator@D@2@@std@@QEAAAEAV12@_KD@Z 0000000180044ad0     Learn_Image.obj
 0002:0000fae4       $chain$0$?flush@?$basic_ostream@DU?$char_traits@D@std@@@std@@QEAAAEAV12@XZ 0000000180044ae4     Learn_Image.obj
 0002:0000faf8       $chain$1$?flush@?$basic_ostream@DU?$char_traits@D@std@@@std@@QEAAAEAV12@XZ 0000000180044af8     Learn_Image.obj
 0002:0000fb08       $unwind$?_Copy@?$basic_string@DU?$char_traits@D@std@@V?$allocator@D@2@@std@@QEAAX_K0@Z 0000000180044b08     Learn_Image.obj
 0002:0000fb1c       $unwind$__acrt_copy_locale_name 0000000180044b1c     libucrt:wsetlocale.obj
 0002:0000fb1c       $unwind$?widen@?$basic_ios@DU?$char_traits@D@std@@@std@@QEBADD@Z 0000000180044b1c     Learn_Image.obj
 0002:0000fb2c       $unwind$??$use_facet@V?$numpunct@D@std@@@std@@YAAEBV?$numpunct@D@0@AEBVlocale@0@@Z 0000000180044b2c     Learn_Image.obj
 0002:0000fb2c       $unwind$??$use_facet@V?$ctype@D@std@@@std@@YAAEBV?$ctype@D@0@AEBVlocale@0@@Z 0000000180044b2c     Learn_Image.obj
 0002:0000fb3c       $unwind$??$?6U?$char_traits@D@std@@@std@@YAAEAV?$basic_ostream@DU?$char_traits@D@std@@@0@AEAV10@PEBD@Z 0000000180044b3c     Learn_Image.obj
 0002:0000fb44       $chain$3$??$?6U?$char_traits@D@std@@@std@@YAAEAV?$basic_ostream@DU?$char_traits@D@std@@@0@AEAV10@PEBD@Z 0000000180044b44     Learn_Image.obj
 0002:0000fb64       $chain$4$??$?6U?$char_traits@D@std@@@std@@YAAEAV?$basic_ostream@DU?$char_traits@D@std@@@0@AEAV10@PEBD@Z 0000000180044b64     Learn_Image.obj
 0002:0000fb78       $chain$5$??$?6U?$char_traits@D@std@@@std@@YAAEAV?$basic_ostream@DU?$char_traits@D@std@@@0@AEAV10@PEBD@Z 0000000180044b78     Learn_Image.obj
 0002:0000fb88       $unwind$??$?6DU?$char_traits@D@std@@V?$allocator@D@1@@std@@YAAEAV?$basic_ostream@DU?$char_traits@D@std@@@0@AEAV10@AEBV?$basic_string@DU?$char_traits@D@std@@V?$allocator@D@2@@0@@Z 0000000180044b88     Learn_Image.obj
 0002:0000fba0       $unwind$??$use_facet@V?$num_put@DV?$ostreambuf_iterator@DU?$char_traits@D@std@@@std@@@std@@@std@@YAAEBV?$num_put@DV?$ostreambuf_iterator@DU?$char_traits@D@std@@@std@@@0@AEBVlocale@0@@Z 0000000180044ba0     Learn_Image.obj
 0002:0000fbb4       $unwind$?_Getcat@?$numpunct@D@std@@SA_KPEAPEBVfacet@locale@2@PEBV42@@Z 0000000180044bb4     Learn_Image.obj
 0002:0000fbc4       $chain$0$?_Getcat@?$numpunct@D@std@@SA_KPEAPEBVfacet@locale@2@PEBV42@@Z 0000000180044bc4     Learn_Image.obj
 0002:0000fbd8       $chain$1$?_Getcat@?$numpunct@D@std@@SA_KPEAPEBVfacet@locale@2@PEBV42@@Z 0000000180044bd8     Learn_Image.obj
 0002:0000fbe8       $unwind$?_Init@?$numpunct@D@std@@IEAAXAEBV_Locinfo@2@_N@Z 0000000180044be8     Learn_Image.obj
 0002:0000fc00       $unwind$??4?$Mat_@M@cv@@QEAAAEAV01@AEBVMat@1@@Z 0000000180044c00     Learn_Image.obj
 0002:0000fc00       $unwind$??4?$Mat_@N@cv@@QEAAAEAV01@AEBVMat@1@@Z 0000000180044c00     Learn_Image.obj
 0002:0000fc14       $chain$0$??4?$Mat_@M@cv@@QEAAAEAV01@AEBVMat@1@@Z 0000000180044c14     Learn_Image.obj
 0002:0000fc28       $chain$1$??4?$Mat_@M@cv@@QEAAAEAV01@AEBVMat@1@@Z 0000000180044c28     Learn_Image.obj
 0002:0000fc38       $chain$0$??4?$Mat_@N@cv@@QEAAAEAV01@AEBVMat@1@@Z 0000000180044c38     Learn_Image.obj
 0002:0000fc4c       $chain$1$??4?$Mat_@N@cv@@QEAAAEAV01@AEBVMat@1@@Z 0000000180044c4c     Learn_Image.obj
 0002:0000fc5c       $unwind$??6?$basic_ostream@DU?$char_traits@D@std@@@std@@QEAAAEAV01@M@Z 0000000180044c5c     Learn_Image.obj
 0002:0000fc64       $chain$0$??6?$basic_ostream@DU?$char_traits@D@std@@@std@@QEAAAEAV01@M@Z 0000000180044c64     Learn_Image.obj
 0002:0000fc78       $chain$1$??6?$basic_ostream@DU?$char_traits@D@std@@@std@@QEAAAEAV01@M@Z 0000000180044c78     Learn_Image.obj
 0002:0000fc8c       $chain$3$??6?$basic_ostream@DU?$char_traits@D@std@@@std@@QEAAAEAV01@M@Z 0000000180044c8c     Learn_Image.obj
 0002:0000fca4       $chain$4$??6?$basic_ostream@DU?$char_traits@D@std@@@std@@QEAAAEAV01@M@Z 0000000180044ca4     Learn_Image.obj
 0002:0000fcb8       $chain$5$??6?$basic_ostream@DU?$char_traits@D@std@@@std@@QEAAAEAV01@M@Z 0000000180044cb8     Learn_Image.obj
 0002:0000fcc8       $chain$6$??6?$basic_ostream@DU?$char_traits@D@std@@@std@@QEAAAEAV01@M@Z 0000000180044cc8     Learn_Image.obj
 0002:0000fcd8       $chain$7$??6?$basic_ostream@DU?$char_traits@D@std@@@std@@QEAAAEAV01@M@Z 0000000180044cd8     Learn_Image.obj
 0002:0000fce8       $chain$1$??6?$basic_ostream@DU?$char_traits@D@std@@@std@@QEAAAEAV01@_N@Z 0000000180044ce8     Learn_Image.obj
 0002:0000fd00       $chain$3$??6?$basic_ostream@DU?$char_traits@D@std@@@std@@QEAAAEAV01@_N@Z 0000000180044d00     Learn_Image.obj
 0002:0000fd18       $chain$4$??6?$basic_ostream@DU?$char_traits@D@std@@@std@@QEAAAEAV01@_N@Z 0000000180044d18     Learn_Image.obj
 0002:0000fd2c       $chain$5$??6?$basic_ostream@DU?$char_traits@D@std@@@std@@QEAAAEAV01@_N@Z 0000000180044d2c     Learn_Image.obj
 0002:0000fd3c       $chain$6$??6?$basic_ostream@DU?$char_traits@D@std@@@std@@QEAAAEAV01@_N@Z 0000000180044d3c     Learn_Image.obj
 0002:0000fd50       $chain$7$??6?$basic_ostream@DU?$char_traits@D@std@@@std@@QEAAAEAV01@_N@Z 0000000180044d50     Learn_Image.obj
 0002:0000fd60       $unwind$??__EC@@YAXXZ      0000000180044d60     MSC_Fast_optmz_warp_pthread.obj
 0002:0000fd78       $unwind$?SL_MSC@@YAHVMat@cv@@0V?$Size_@H@2@PEAV12@2AEAVTransformationSet@@@Z 0000000180044d78     MSC_Fast_optmz_warp_pthread.obj
 0002:0000fda8       $unwind$?MapSeekingCircuit@@YAHVMat@cv@@0V?$Size_@H@2@PEAV12@2HV?$vector@VMat@cv@@V?$allocator@VMat@cv@@@std@@@std@@PEAV45@QEAN@Z 0000000180044da8     MSC_Fast_optmz_warp_pthread.obj
 0002:0000fdcc       $unwind$?ForwardTransform@@YAPEAXPEAX@Z 0000000180044dcc     MSC_Fast_optmz_warp_pthread.obj
 0002:0000fdfc       $chain$7$?ForwardTransform@@YAPEAXPEAX@Z 0000000180044dfc     MSC_Fast_optmz_warp_pthread.obj
 0002:0000fe2c       $unwind$?BackwardTransform@@YAPEAXPEAX@Z 0000000180044e2c     MSC_Fast_optmz_warp_pthread.obj
 0002:0000fe7c       $unwind$?UpdateCompetition@@YA?AVMat@cv@@V12@00HN0N@Z 0000000180044e7c     MSC_Fast_optmz_warp_pthread.obj
 0002:0000fea8       $chain$4$?UpdateCompetition@@YA?AVMat@cv@@V12@00HN0N@Z 0000000180044ea8     MSC_Fast_optmz_warp_pthread.obj
 0002:0000fecc       $unwind$?getTransform@@YAXV?$Size_@H@cv@@AEAV?$vector@VMat@cv@@V?$allocator@VMat@cv@@@std@@@std@@1VTransformationSet@@@Z 0000000180044ecc     MSC_Fast_optmz_warp_pthread.obj
 0002:0000ff04       $chain$2$?getTransform@@YAXV?$Size_@H@cv@@AEAV?$vector@VMat@cv@@V?$allocator@VMat@cv@@@std@@@std@@1VTransformationSet@@@Z 0000000180044f04     MSC_Fast_optmz_warp_pthread.obj
 0002:0000ff20       $chain$4$?getTransform@@YAXV?$Size_@H@cv@@AEAV?$vector@VMat@cv@@V?$allocator@VMat@cv@@@std@@@std@@1VTransformationSet@@@Z 0000000180044f20     MSC_Fast_optmz_warp_pthread.obj
 0002:0000ff38       $unwind$??4?$vector@VMat@cv@@V?$allocator@VMat@cv@@@std@@@std@@QEAAAEAV01@AEBV01@@Z 0000000180044f38     MSC_Fast_optmz_warp_pthread.obj
 0002:0000ff50       $unwind$??0?$vector@VMat@cv@@V?$allocator@VMat@cv@@@std@@@std@@QEAA@AEBV01@@Z 0000000180044f50     MSC_Fast_optmz_warp_pthread.obj
 0002:0000ff60       $chain$1$??0?$vector@VMat@cv@@V?$allocator@VMat@cv@@@std@@@std@@QEAA@AEBV01@@Z 0000000180044f60     MSC_Fast_optmz_warp_pthread.obj
 0002:0000ff78       $chain$2$??0?$vector@VMat@cv@@V?$allocator@VMat@cv@@@std@@@std@@QEAA@AEBV01@@Z 0000000180044f78     MSC_Fast_optmz_warp_pthread.obj
 0002:0000ff88       $unwind$?_Reallocate@?$vector@NV?$allocator@N@std@@@std@@IEAAX_K@Z 0000000180044f88     MSC_Fast_optmz_warp_pthread.obj
 0002:0000ff88       $unwind$?seekpos@?$basic_filebuf@DU?$char_traits@D@std@@@std@@MEAA?AV?$fpos@U_Mbstatet@@@2@V32@H@Z 0000000180044f88     libcpmt:cout.obj
 0002:0000ff9c       $chain$0$?_Reallocate@?$vector@NV?$allocator@N@std@@@std@@IEAAX_K@Z 0000000180044f9c     MSC_Fast_optmz_warp_pthread.obj
 0002:0000ffb0       $chain$1$?_Reallocate@?$vector@NV?$allocator@N@std@@@std@@IEAAX_K@Z 0000000180044fb0     MSC_Fast_optmz_warp_pthread.obj
 0002:0000ffb0       $chain$5$?_Reallocate@?$vector@NV?$allocator@N@std@@@std@@IEAAX_K@Z 0000000180044fb0     MSC_Fast_optmz_warp_pthread.obj
 0002:0000ffc0       $chain$6$?_Reallocate@?$vector@NV?$allocator@N@std@@@std@@IEAAX_K@Z 0000000180044fc0     MSC_Fast_optmz_warp_pthread.obj
 0002:0000ffc0       $chain$2$?_Reallocate@?$vector@NV?$allocator@N@std@@@std@@IEAAX_K@Z 0000000180044fc0     MSC_Fast_optmz_warp_pthread.obj
 0002:0000ffc0       $chain$4$?_Reallocate@?$vector@NV?$allocator@N@std@@@std@@IEAAX_K@Z 0000000180044fc0     MSC_Fast_optmz_warp_pthread.obj
 0002:0000ffd4       $unwind$?_Reallocate@?$vector@VMat@cv@@V?$allocator@VMat@cv@@@std@@@std@@IEAAX_K@Z 0000000180044fd4     MSC_Fast_optmz_warp_pthread.obj
 0002:0000ffe4       $chain$0$?_Reallocate@?$vector@VMat@cv@@V?$allocator@VMat@cv@@@std@@@std@@IEAAX_K@Z 0000000180044fe4     MSC_Fast_optmz_warp_pthread.obj
 0002:0000fff8       $chain$2$?_Reallocate@?$vector@VMat@cv@@V?$allocator@VMat@cv@@@std@@@std@@IEAAX_K@Z 0000000180044ff8     MSC_Fast_optmz_warp_pthread.obj
 0002:00010010       $chain$3$?_Reallocate@?$vector@VMat@cv@@V?$allocator@VMat@cv@@@std@@@std@@IEAAX_K@Z 0000000180045010     MSC_Fast_optmz_warp_pthread.obj
 0002:00010024       $chain$8$?_Reallocate@?$vector@VMat@cv@@V?$allocator@VMat@cv@@@std@@@std@@IEAAX_K@Z 0000000180045024     MSC_Fast_optmz_warp_pthread.obj
 0002:00010024       $chain$4$?_Reallocate@?$vector@VMat@cv@@V?$allocator@VMat@cv@@@std@@@std@@IEAAX_K@Z 0000000180045024     MSC_Fast_optmz_warp_pthread.obj
 0002:00010034       $chain$7$?_Reallocate@?$vector@VMat@cv@@V?$allocator@VMat@cv@@@std@@@std@@IEAAX_K@Z 0000000180045034     MSC_Fast_optmz_warp_pthread.obj
 0002:00010034       $chain$5$?_Reallocate@?$vector@VMat@cv@@V?$allocator@VMat@cv@@@std@@@std@@IEAAX_K@Z 0000000180045034     MSC_Fast_optmz_warp_pthread.obj
 0002:00010034       $chain$9$?_Reallocate@?$vector@VMat@cv@@V?$allocator@VMat@cv@@@std@@@std@@IEAAX_K@Z 0000000180045034     MSC_Fast_optmz_warp_pthread.obj
 0002:0001004c       $unwind$??$?6MN@cv@@YA?AV?$MatCommaInitializer_@M@0@AEBV?$Mat_@M@0@N@Z 000000018004504c     MSC_Fast_optmz_warp_pthread.obj
 0002:00010058       $unwind$??$_Copy_impl@PEAVMat@cv@@PEAV12@@std@@YAPEAVMat@cv@@PEAV12@00U_Nonscalar_ptr_iterator_tag@0@@Z 0000000180045058     MSC_Fast_optmz_warp_pthread.obj
 0002:00010064       $chain$2$??$_Copy_impl@PEAVMat@cv@@PEAV12@@std@@YAPEAVMat@cv@@PEAV12@00U_Nonscalar_ptr_iterator_tag@0@@Z 0000000180045064     MSC_Fast_optmz_warp_pthread.obj
 0002:00010080       $chain$3$??$_Copy_impl@PEAVMat@cv@@PEAV12@@std@@YAPEAVMat@cv@@PEAV12@00U_Nonscalar_ptr_iterator_tag@0@@Z 0000000180045080     MSC_Fast_optmz_warp_pthread.obj
 0002:00010090       $unwind$??$_Destroy_range@U?$_Wrap_alloc@V?$allocator@VMat@cv@@@std@@@std@@@std@@YAXPEAVMat@cv@@0AEAU?$_Wrap_alloc@V?$allocator@VMat@cv@@@std@@@0@U_Nonscalar_ptr_iterator_tag@0@@Z 0000000180045090     MSC_Fast_optmz_warp_pthread.obj
 0002:00010098       $chain$1$??$_Destroy_range@U?$_Wrap_alloc@V?$allocator@VMat@cv@@@std@@@std@@@std@@YAXPEAVMat@cv@@0AEAU?$_Wrap_alloc@V?$allocator@VMat@cv@@@std@@@0@U_Nonscalar_ptr_iterator_tag@0@@Z 0000000180045098     MSC_Fast_optmz_warp_pthread.obj
 0002:000100b0       $chain$2$??$_Destroy_range@U?$_Wrap_alloc@V?$allocator@VMat@cv@@@std@@@std@@@std@@YAXPEAVMat@cv@@0AEAU?$_Wrap_alloc@V?$allocator@VMat@cv@@@std@@@0@U_Nonscalar_ptr_iterator_tag@0@@Z 00000001800450b0     MSC_Fast_optmz_warp_pthread.obj
 0002:000100c0       $unwind$?ROI_image@@YA?AVMat@cv@@V12@@Z 00000001800450c0     region_of_interest.obj
 0002:000100e0       $chain$0$?ROI_image@@YA?AVMat@cv@@V12@@Z 00000001800450e0     region_of_interest.obj
 0002:000100f4       $unwind$?_Reallocate@?$vector@V?$Point_@H@cv@@V?$allocator@V?$Point_@H@cv@@@std@@@std@@IEAAX_K@Z 00000001800450f4     region_of_interest.obj
 0002:00010108       $chain$0$?_Reallocate@?$vector@V?$Point_@H@cv@@V?$allocator@V?$Point_@H@cv@@@std@@@std@@IEAAX_K@Z 0000000180045108     region_of_interest.obj
 0002:0001011c       $chain$5$?_Reallocate@?$vector@V?$Point_@H@cv@@V?$allocator@V?$Point_@H@cv@@@std@@@std@@IEAAX_K@Z 000000018004511c     region_of_interest.obj
 0002:0001011c       $chain$1$?_Reallocate@?$vector@V?$Point_@H@cv@@V?$allocator@V?$Point_@H@cv@@@std@@@std@@IEAAX_K@Z 000000018004511c     region_of_interest.obj
 0002:0001012c       $chain$6$?_Reallocate@?$vector@V?$Point_@H@cv@@V?$allocator@V?$Point_@H@cv@@@std@@@std@@IEAAX_K@Z 000000018004512c     region_of_interest.obj
 0002:0001012c       $chain$4$?_Reallocate@?$vector@V?$Point_@H@cv@@V?$allocator@V?$Point_@H@cv@@@std@@@std@@IEAAX_K@Z 000000018004512c     region_of_interest.obj
 0002:0001012c       $chain$2$?_Reallocate@?$vector@V?$Point_@H@cv@@V?$allocator@V?$Point_@H@cv@@@std@@@std@@IEAAX_K@Z 000000018004512c     region_of_interest.obj
 0002:00010140       $unwind$?DroneControl@@YAXVMat@cv@@0PEAVIsolate@v8@@AEAV?$Local@VObject@v8@@@4@@Z 0000000180045140     jsmsc.obj
 0002:00010168       $unwind$?jsmsc@@YAXAEBV?$FunctionCallbackInfo@VValue@v8@@@v8@@@Z 0000000180045168     jsmsc.obj
 0002:0001018c       $unwind$?CreateFunction@@YAXAEBV?$FunctionCallbackInfo@VValue@v8@@@v8@@@Z 000000018004518c     jsmsc.obj
 0002:00010198       $unwind$?Init@@YAXV?$Local@VObject@v8@@@v8@@0@Z 0000000180045198     jsmsc.obj
 0002:000101a0       $unwind$??$NODE_SET_METHOD@V?$Local@VObject@v8@@@v8@@@node@@YAXAEBV?$Local@VObject@v8@@@v8@@PEBDP6AXAEBV?$FunctionCallbackInfo@VValue@v8@@@2@@Z@Z 00000001800451a0     jsmsc.obj
 0002:000101ac       xdata                      00000001800451ac     node:node.exe
 0002:000101b4       $unwind$??_Glocale@std@@QEAAPEAXI@Z 00000001800451b4     libcpmt:cout.obj
 0002:000101d0       $ip2state$??_Glocale@std@@QEAAPEAXI@Z 00000001800451d0     libcpmt:cout.obj
 0002:000101e8       $unwind$?_Init@ios_base@std@@IEAAXXZ 00000001800451e8     libcpmt:cout.obj
 0002:000101fc       $stateUnwindMap$??_G_Fac_node@std@@QEAAPEAXI@Z 00000001800451fc     libcpmt:locale0.obj
 0002:000101fc       $stateUnwindMap$??1?$basic_ios@DU?$char_traits@D@std@@@std@@UEAA@XZ 00000001800451fc     libcpmt:cout.obj
 0002:000101fc       $stateUnwindMap$??_Glocale@std@@QEAAPEAXI@Z 00000001800451fc     libcpmt:cout.obj
 0002:000101fc       $stateUnwindMap$??__Finit_atexit@@YAXXZ 00000001800451fc     libcpmt:iosptrs.obj
 0002:000101fc       $stateUnwindMap$??0?$basic_streambuf@DU?$char_traits@D@std@@@std@@IEAA@XZ 00000001800451fc     libcpmt:cout.obj
 0002:000101fc       $stateUnwindMap$??_G_Locimp@locale@std@@MEAAPEAXI@Z 00000001800451fc     libcpmt:locale0.obj
 0002:000101fc       $stateUnwindMap$??_Gios_base@std@@UEAAPEAXI@Z 00000001800451fc     libcpmt:cout.obj
 0002:000101fc       $stateUnwindMap$?_Init@ios_base@std@@IEAAXXZ 00000001800451fc     libcpmt:cout.obj
 0002:000101fc       $stateUnwindMap$??__Fclassic_locale@std@@YAXXZ 00000001800451fc     libcpmt:locale0.obj
 0002:00010208       $ip2state$?_Init@ios_base@std@@IEAAXXZ 0000000180045208     libcpmt:cout.obj
 0002:00010220       $unwind$??_Gios_base@std@@UEAAPEAXI@Z 0000000180045220     libcpmt:cout.obj
 0002:00010238       $ip2state$??_Gios_base@std@@UEAAPEAXI@Z 0000000180045238     libcpmt:cout.obj
 0002:00010250       $unwind$??0?$basic_streambuf@DU?$char_traits@D@std@@@std@@IEAA@XZ 0000000180045250     libcpmt:cout.obj
 0002:00010268       $ip2state$??0?$basic_streambuf@DU?$char_traits@D@std@@@std@@IEAA@XZ 0000000180045268     libcpmt:cout.obj
 0002:00010280       $unwind$?xsputn@?$basic_streambuf@DU?$char_traits@D@std@@@std@@MEAA_JPEBD_J@Z 0000000180045280     libcpmt:cout.obj
 0002:00010280       $unwind$?write_string@?$stream_output_adapter@D@__crt_stdio_output@@QEBAXQEBDHQEAH1@Z 0000000180045280     libucrt:output.obj
 0002:00010298       $unwind$??1?$basic_filebuf@DU?$char_traits@D@std@@@std@@UEAA@XZ 0000000180045298     libcpmt:cout.obj
 0002:000102a8       $ip2state$??1?$basic_filebuf@DU?$char_traits@D@std@@@std@@UEAA@XZ 00000001800452a8     libcpmt:cout.obj
 0002:000102b0       $unwind$?overflow@?$basic_filebuf@DU?$char_traits@D@std@@@std@@MEAAHH@Z 00000001800452b0     libcpmt:cout.obj
 0002:000102d8       $stateUnwindMap$?overflow@?$basic_filebuf@DU?$char_traits@D@std@@@std@@MEAAHH@Z 00000001800452d8     libcpmt:cout.obj
 0002:000102d8       $stateUnwindMap$?uflow@?$basic_filebuf@DU?$char_traits@D@std@@@std@@MEAAHXZ 00000001800452d8     libcpmt:cout.obj
 0002:000102e0       $ip2state$?overflow@?$basic_filebuf@DU?$char_traits@D@std@@@std@@MEAAHH@Z 00000001800452e0     libcpmt:cout.obj
 0002:000102f8       $unwind$?uflow@?$basic_filebuf@DU?$char_traits@D@std@@@std@@MEAAHXZ 00000001800452f8     libcpmt:cout.obj
 0002:00010328       $ip2state$?uflow@?$basic_filebuf@DU?$char_traits@D@std@@@std@@MEAAHXZ 0000000180045328     libcpmt:cout.obj
 0002:00010340       $unwind$?seekoff@?$basic_filebuf@DU?$char_traits@D@std@@@std@@MEAA?AV?$fpos@U_Mbstatet@@@2@_JHH@Z 0000000180045340     libcpmt:cout.obj
 0002:00010354       $unwind$?_Init@?$basic_filebuf@DU?$char_traits@D@std@@@std@@IEAAXPEAU_iobuf@@W4_Initfl@12@@Z 0000000180045354     libcpmt:cout.obj
 0002:00010360       $unwind$?_Endwrite@?$basic_filebuf@DU?$char_traits@D@std@@@std@@IEAA_NXZ 0000000180045360     libcpmt:cout.obj
 0002:00010388       $stateUnwindMap$?_Endwrite@?$basic_filebuf@DU?$char_traits@D@std@@@std@@IEAA_NXZ 0000000180045388     libcpmt:cout.obj
 0002:00010390       $ip2state$?_Endwrite@?$basic_filebuf@DU?$char_traits@D@std@@@std@@IEAA_NXZ 0000000180045390     libcpmt:cout.obj
 0002:000103a8       $unwind$??1?$basic_ios@DU?$char_traits@D@std@@@std@@UEAA@XZ 00000001800453a8     libcpmt:cout.obj
 0002:000103b8       $ip2state$??1?$basic_ios@DU?$char_traits@D@std@@@std@@UEAA@XZ 00000001800453b8     libcpmt:cout.obj
 0002:000103d0       $unwind$??_G?$basic_ios@DU?$char_traits@D@std@@@std@@UEAAPEAXI@Z 00000001800453d0     libcpmt:cout.obj
 0002:000103e4       $stateUnwindMap$??_G?$basic_ios@DU?$char_traits@D@std@@@std@@UEAAPEAXI@Z 00000001800453e4     libcpmt:cout.obj
 0002:000103f8       $ip2state$??_G?$basic_ios@DU?$char_traits@D@std@@@std@@UEAAPEAXI@Z 00000001800453f8     libcpmt:cout.obj
 0002:00010410       $unwind$??0?$basic_ostream@DU?$char_traits@D@std@@@std@@QEAA@PEAV?$basic_streambuf@DU?$char_traits@D@std@@@1@_N@Z 0000000180045410     libcpmt:cout.obj
 0002:00010428       $stateUnwindMap$??0?$basic_ostream@DU?$char_traits@D@std@@@std@@QEAA@PEAV?$basic_streambuf@DU?$char_traits@D@std@@@1@_N@Z 0000000180045428     libcpmt:cout.obj
 0002:00010430       $ip2state$??0?$basic_ostream@DU?$char_traits@D@std@@@std@@QEAA@PEAV?$basic_streambuf@DU?$char_traits@D@std@@@1@_N@Z 0000000180045430     libcpmt:cout.obj
 0002:00010448       $unwind$??_G?$basic_ostream@DU?$char_traits@D@std@@@std@@UEAAPEAXI@Z 0000000180045448     libcpmt:cout.obj
 0002:0001045c       $stateUnwindMap$??__Fcout@std@@YAXXZ 000000018004545c     libcpmt:cout.obj
 0002:0001045c       $stateUnwindMap$??_G?$basic_ostream@DU?$char_traits@D@std@@@std@@UEAAPEAXI@Z 000000018004545c     libcpmt:cout.obj
 0002:00010478       $ip2state$??_G?$basic_ostream@DU?$char_traits@D@std@@@std@@UEAAPEAXI@Z 0000000180045478     libcpmt:cout.obj
 0002:00010498       $unwind$??__Fcout@std@@YAXXZ 0000000180045498     libcpmt:cout.obj
 0002:000104a8       $ip2state$??__Fcout@std@@YAXXZ 00000001800454a8     libcpmt:cout.obj
 0002:000104c8       $unwind$??$use_facet@V?$codecvt@DDU_Mbstatet@@@std@@@std@@YAAEBV?$codecvt@DDU_Mbstatet@@@0@AEBVlocale@0@@Z 00000001800454c8     libcpmt:cout.obj
 0002:000104e0       $stateUnwindMap$??$use_facet@V?$codecvt@DDU_Mbstatet@@@std@@@std@@YAAEBV?$codecvt@DDU_Mbstatet@@@0@AEBVlocale@0@@Z 00000001800454e0     libcpmt:cout.obj
 0002:000104e8       $ip2state$??$use_facet@V?$codecvt@DDU_Mbstatet@@@std@@@std@@YAAEBV?$codecvt@DDU_Mbstatet@@@0@AEBVlocale@0@@Z 00000001800454e8     libcpmt:cout.obj
 0002:00010500       $unwind$?_Getcat@?$codecvt@DDU_Mbstatet@@@std@@SA_KPEAPEBVfacet@locale@2@PEBV42@@Z 0000000180045500     libcpmt:cout.obj
 0002:00010520       $stateUnwindMap$?_Getcat@?$codecvt@DDU_Mbstatet@@@std@@SA_KPEAPEBVfacet@locale@2@PEBV42@@Z 0000000180045520     libcpmt:cout.obj
 0002:00010528       $ip2state$?_Getcat@?$codecvt@DDU_Mbstatet@@@std@@SA_KPEAPEBVfacet@locale@2@PEBV42@@Z 0000000180045528     libcpmt:cout.obj
 0002:00010540       $unwind$??_G_Fac_node@std@@QEAAPEAXI@Z 0000000180045540     libcpmt:locale0.obj
 0002:00010560       $ip2state$??_G_Fac_node@std@@QEAAPEAXI@Z 0000000180045560     libcpmt:locale0.obj
 0002:00010578       $unwind$?_Locimp_dtor@_Locimp@locale@std@@CAXPEAV123@@Z 0000000180045578     libcpmt:locale0.obj
 0002:00010598       $ip2state$?_Locimp_dtor@_Locimp@locale@std@@CAXPEAV123@@Z 0000000180045598     libcpmt:locale0.obj
 0002:000105b0       $unwind$??_G_Locimp@locale@std@@MEAAPEAXI@Z 00000001800455b0     libcpmt:locale0.obj
 0002:000105c8       $ip2state$??_G_Locimp@locale@std@@MEAAPEAXI@Z 00000001800455c8     libcpmt:locale0.obj
 0002:000105e0       $unwind$?_Init@locale@std@@CAPEAV_Locimp@12@_N@Z 00000001800455e0     libcpmt:locale0.obj
 0002:000105f8       $stateUnwindMap$?_Init@locale@std@@CAPEAV_Locimp@12@_N@Z 00000001800455f8     libcpmt:locale0.obj
 0002:000105f8       $stateUnwindMap$?_Locimp_dtor@_Locimp@locale@std@@CAXPEAV123@@Z 00000001800455f8     libcpmt:locale0.obj
 0002:00010600       $ip2state$?_Init@locale@std@@CAPEAV_Locimp@12@_N@Z 0000000180045600     libcpmt:locale0.obj
 0002:00010618       $unwind$??__Fclassic_locale@std@@YAXXZ 0000000180045618     libcpmt:locale0.obj
 0002:00010630       $ip2state$??__Fclassic_locale@std@@YAXXZ 0000000180045630     libcpmt:locale0.obj
 0002:00010648       $unwind$_Tolower           0000000180045648     libcpmt:_tolower.obj
 0002:00010658       $unwind$_Toupper           0000000180045658     libcpmt:_toupper.obj
 0002:0001066c       $unwind$??__Finit_atexit@@YAXXZ 000000018004566c     libcpmt:iosptrs.obj
 0002:00010680       $ip2state$??__Finit_atexit@@YAXXZ 0000000180045680     libcpmt:iosptrs.obj
 0002:00010698       $unwind$__crtLCMapStringA  0000000180045698     libcpmt:StlLCMapStringA.obj
 0002:000106c0       $unwind$_mbtowc_l          00000001800456c0     libucrt:mbtowc.obj
 0002:000106c0       $unwind$__crtLCMapStringEx 00000001800456c0     libcpmt:winapinls.obj
 0002:000106c0       $unwind$__acrt_LCMapStringEx 00000001800456c0     libucrt:winapi_thunks.obj
 0002:000106d8       $unwind$TranslateName      00000001800456d8     libucrt:getqloc_downlevel.obj
 0002:000106d8       $unwind$__GSHandlerCheck_EH 00000001800456d8     LIBCMT:gshandlereh.obj
 0002:000106d8       $unwind$__vcrt_EventRegister 00000001800456d8     libvcruntime:winapi_downlevel.obj
 0002:000106d8       $unwind$GetTableIndexFromLocaleName 00000001800456d8     libcpmt:winapinls.obj
 0002:000106d8       $unwind$_initterm          00000001800456d8     libucrt:initterm.obj
 0002:000106d8       $unwind$__acrt_initialize_stdio 00000001800456d8     libucrt:_file.obj
 0002:000106d8       $unwind$__acrt_LCIDToLocaleName 00000001800456d8     libucrt:winapi_thunks.obj
 0002:000106d8       $unwind$__vcrt_EventSetInformation 00000001800456d8     libvcruntime:winapi_downlevel.obj
 0002:000106d8       $unwind$__TypeMatch        00000001800456d8     libvcruntime:frame.obj
 0002:000106d8       $unwind$__acrt_GetLocaleInfoEx 00000001800456d8     libucrt:winapi_thunks.obj
 0002:000106d8       $unwind$?xsgetn@?$basic_streambuf@DU?$char_traits@D@std@@@std@@MEAA_JPEAD_J@Z 00000001800456d8     libcpmt:cout.obj
 0002:000106f0       $xdatasym                  00000001800456f0     LIBCMT:_amdsecgs_.obj
 0002:000106f4       $unwind$__scrt_is_nonwritable_in_current_image 00000001800456f4     LIBCMT:utility.obj
 0002:00010714       $unwind$__scrt_is_nonwritable_in_current_image$filt$0 0000000180045714     LIBCMT:utility.obj
 0002:0001071c       $unwind$__scrt_initialize_onexit_tables 000000018004571c     LIBCMT:utility.obj
 0002:00010728       $unwind$?dllmain_crt_process_attach@@YAHQEAUHINSTANCE__@@QEAX@Z 0000000180045728     LIBCMT:dll_dllmain.obj
 0002:00010754       $unwind$__FrameUnwindToState$filt$0 0000000180045754     libvcruntime:frame.obj
 0002:00010754       $unwind$?fin$0@?0???$?RV<lambda_5d4c3fee44080f75d5d9762853974fe0>@@AEAV<lambda_532e024f4337e6fc7ad266c2bef9f4ed>@@V<lambda_c87bdc10097eb2402edb8ba9bdf0697b>@@@?$__crt_seh_guarded_call@_K@@QEAA_K$$QEAV<lambda_5d4c3fee44080f75d5d9762853974fe0>@@AEAV<lambda_532e024f4337e6fc7ad266c2bef9f4ed>@@$$QEAV<lambda_c87bdc10097eb2402edb8ba9bdf0697b>@@@Z@4HA 0000000180045754     libucrt:fwrite.obj
 0002:00010754       $unwind$_write$fin$0       0000000180045754     libucrt:write.obj
 0002:00010754       $unwind$?fin$0@?0???$?RV<lambda_7a5ef57ff966f610505f1d28a3d40618>@@AEAV<lambda_b721fa326cdb32351d23dfa67958c160>@@V<lambda_5e0fb27672408a07956fe59e48ccb2aa>@@@?$__crt_seh_guarded_call@H@@QEAAH$$QEAV<lambda_7a5ef57ff966f610505f1d28a3d40618>@@AEAV<lambda_b721fa326cdb32351d23dfa67958c160>@@$$QEAV<lambda_5e0fb27672408a07956fe59e48ccb2aa>@@@Z@4HA 0000000180045754     libucrt:setvbuf.obj
 0002:00010754       $unwind$?fin$0@?0???$?RV<lambda_c36588078e9f5dfd39652860aa6b3aaf>@@AEAV<lambda_ec61778202f4f5fc7e7711acc23c3bca>@@V<lambda_dc9d2797ccde5d239b4a0efae8ebd7db>@@@?$__crt_seh_guarded_call@P6AXH@Z@@QEAAP6AXH@Z$$QEAV<lambda_c36588078e9f5dfd39652860aa6b3aaf>@@AEAV<lambda_ec61778202f4f5fc7e7711acc23c3bca>@@$$QEAV<lambda_dc9d2797ccde5d239b4a0efae8ebd7db>@@@Z@4HA 0000000180045754     libucrt:signal.obj
 0002:00010754       $unwind$fflush$fin$0       0000000180045754     libucrt:fflush.obj
 0002:00010754       $unwind$?fin$0@?0???$common_lseek@_J@@YA_JH_JH@Z@4HA 0000000180045754     libucrt:lseek.obj
 0002:00010754       $unwind$?fin$0@?0???$?RV<lambda_630b2aca97f6d20d5b5ea6529ea6b6af>@@AEAV<lambda_af91936f1d075d609f72d9d8cba980af>@@V<lambda_e82fa975f615b5c7c7b0e4d178fdae67>@@@?$__crt_seh_guarded_call@H@@QEAAH$$QEAV<lambda_630b2aca97f6d20d5b5ea6529ea6b6af>@@AEAV<lambda_af91936f1d075d609f72d9d8cba980af>@@$$QEAV<lambda_e82fa975f615b5c7c7b0e4d178fdae67>@@@Z@4HA 0000000180045754     libucrt:winapi_thunks.obj
 0002:00010754       $unwind$__acrt_update_thread_locale_data$fin$0 0000000180045754     libucrt:locale_refcounting.obj
 0002:00010754       $unwind$?filt$0@?0??common_exit@@YAXHW4_crt_exit_cleanup_mode@@W4_crt_exit_return_mode@@@Z@4HA 0000000180045754     libucrt:exit.obj
 0002:00010754       $unwind$common_flush_all$fin$1 0000000180045754     libucrt:fflush.obj
 0002:00010754       $unwind$__acrt_uninitialize_locale$fin$0 0000000180045754     libucrt:wsetlocale.obj
 0002:00010754       $unwind$?fin$1@?0??common_exit@@YAXHW4_crt_exit_cleanup_mode@@W4_crt_exit_return_mode@@@Z@4HA 0000000180045754     libucrt:exit.obj
 0002:00010754       $unwind$__DestructExceptionObject$filt$0 0000000180045754     libvcruntime:frame.obj
 0002:00010754       $unwind$?fin$0@?0???$?RV<lambda_99476a1ad63dd22509b5d3e65b0ffc95>@@AEAV<lambda_ad1ced32f4ac17aa236e5ef05d6b3b7c>@@V<lambda_f7424dd8d45958661754dc4f2697e9c3>@@@?$__crt_seh_guarded_call@X@@QEAAX$$QEAV<lambda_99476a1ad63dd22509b5d3e65b0ffc95>@@AEAV<lambda_ad1ced32f4ac17aa236e5ef05d6b3b7c>@@$$QEAV<lambda_f7424dd8d45958661754dc4f2697e9c3>@@@Z@4HA 0000000180045754     libucrt:mbctype.obj
 0002:00010754       $unwind$_read$fin$0        0000000180045754     libucrt:read.obj
 0002:00010754       $unwind$?fin$0@?0???$?RV<lambda_e24bbb7b643b32fcea6fa61b31d4c984>@@AEAV<lambda_275893d493268fdec8709772e3fcec0e>@@V<lambda_9d71df4d7cf3f480f8d633942495c3b0>@@@?$__crt_seh_guarded_call@H@@QEAAH$$QEAV<lambda_e24bbb7b643b32fcea6fa61b31d4c984>@@AEAV<lambda_275893d493268fdec8709772e3fcec0e>@@$$QEAV<lambda_9d71df4d7cf3f480f8d633942495c3b0>@@@Z@4HA 0000000180045754     libucrt:onexit.obj
 0002:00010754       $unwind$?fin$0@?0??dllmain_crt_process_detach@@YAH_N@Z@4HA 0000000180045754     LIBCMT:dll_dllmain.obj
 0002:00010754       $unwind$?fin$0@?0???$?RV<lambda_fb3a7dec4e47f37f22dae91bb15c9095>@@AEAV<lambda_698284760c8add0bfb0756c19673e34b>@@V<lambda_dfb8eca1e75fef3034a8fb18dd509707>@@@?$__crt_seh_guarded_call@X@@QEAAX$$QEAV<lambda_fb3a7dec4e47f37f22dae91bb15c9095>@@AEAV<lambda_698284760c8add0bfb0756c19673e34b>@@$$QEAV<lambda_dfb8eca1e75fef3034a8fb18dd509707>@@@Z@4HA 0000000180045754     libucrt:per_thread_data.obj
 0002:00010754       $unwind$_fcloseall$fin$0   0000000180045754     libucrt:closeall.obj
 0002:00010754       $unwind$?fin$0@?0???$?RV<lambda_b8c45f8f788dd370798f47cfe8ac3a86>@@AEAV<lambda_4e60a939b0d047cfe11ddc22648dfba9>@@V<lambda_332c3edc96d0294ec56c57d38c1cdfd5>@@@?$__crt_seh_guarded_call@H@@QEAAH$$QEAV<lambda_b8c45f8f788dd370798f47cfe8ac3a86>@@AEAV<lambda_4e60a939b0d047cfe11ddc22648dfba9>@@$$QEAV<lambda_332c3edc96d0294ec56c57d38c1cdfd5>@@@Z@4HA 0000000180045754     libucrt:onexit.obj
 0002:00010754       $unwind$_ctrlfp$filt$0     0000000180045754     libucrt:fpctrl.obj
 0002:00010754       $unwind$?fin$0@?0???$?RV<lambda_bfedae4ebbf01fab1bb6dcc6a9e276e0>@@AEAV<lambda_2fe9b910cf3cbf4a0ab98a02ba45b3ec>@@V<lambda_237c231691f317818eb88cc1d5d642d6>@@@?$__crt_seh_guarded_call@H@@QEAAH$$QEAV<lambda_bfedae4ebbf01fab1bb6dcc6a9e276e0>@@AEAV<lambda_2fe9b910cf3cbf4a0ab98a02ba45b3ec>@@$$QEAV<lambda_237c231691f317818eb88cc1d5d642d6>@@@Z@4HA 0000000180045754     libucrt:close.obj
 0002:00010754       $unwind$?fin$0@?0???$?RV<lambda_46352004c1216016012b18bd6f87e700>@@AEAV<lambda_3bd07e1a1191394380780325891bf33f>@@V<lambda_334532d3f185bcaa59b5be82d7d22bff>@@@?$__crt_seh_guarded_call@X@@QEAAX$$QEAV<lambda_46352004c1216016012b18bd6f87e700>@@AEAV<lambda_3bd07e1a1191394380780325891bf33f>@@$$QEAV<lambda_334532d3f185bcaa59b5be82d7d22bff>@@@Z@4HA 0000000180045754     libucrt:per_thread_data.obj
 0002:00010754       $unwind$_IsNonwritableInCurrentImage$filt$0 0000000180045754     LIBCMT:pesect.obj
 0002:00010754       $unwind$?fin$0@?0???$?RV<lambda_5df02c53a8f32f81fd64e5bbb78039f1>@@AEAV<lambda_2af78c5f5901b1372d98f9ab3177dfa6>@@AEAV<lambda_f51fe5fd7c79a33db34fc9310f277369>@@@?$__crt_seh_guarded_call@X@@QEAAX$$QEAV<lambda_5df02c53a8f32f81fd64e5bbb78039f1>@@AEAV<lambda_2af78c5f5901b1372d98f9ab3177dfa6>@@AEAV<lambda_f51fe5fd7c79a33db34fc9310f277369>@@@Z@4HA 0000000180045754     libucrt:wsetlocale.obj
 0002:00010754       $unwind$fclose$fin$0       0000000180045754     libucrt:fclose.obj
 0002:00010754       $unwind$?fin$0@?0???$?RV<lambda_5e887d1dcbef67a5eb4283622ba103bf>@@AEAV<lambda_4466841279450cc726390878d4a41900>@@V<lambda_341c25c0346d94847f1f3c463c57e077>@@@?$__crt_seh_guarded_call@X@@QEAAX$$QEAV<lambda_5e887d1dcbef67a5eb4283622ba103bf>@@AEAV<lambda_4466841279450cc726390878d4a41900>@@$$QEAV<lambda_341c25c0346d94847f1f3c463c57e077>@@@Z@4HA 0000000180045754     libucrt:per_thread_data.obj
 0002:00010754       $unwind$__acrt_lowio_ensure_fh_exists$fin$0 0000000180045754     libucrt:osfinfo.obj
 0002:00010754       $unwind$?fin$0@?0???$?RV<lambda_d67e8342c384adda8f857579ab50b2ae>@@AEAV<lambda_30712929f77e709619002f448b6a9510>@@V<lambda_4525336fd7e478d965fb7ca7a337cad8>@@@?$__crt_seh_guarded_call@X@@QEAAX$$QEAV<lambda_d67e8342c384adda8f857579ab50b2ae>@@AEAV<lambda_30712929f77e709619002f448b6a9510>@@$$QEAV<lambda_4525336fd7e478d965fb7ca7a337cad8>@@@Z@4HA 0000000180045754     libucrt:wsetlocale.obj
 0002:00010754       $unwind$__acrt_update_thread_multibyte_data$fin$0 0000000180045754     libucrt:mbctype.obj
 0002:00010754       $unwind$__CxxCallCatchBlock$filt$0 0000000180045754     libvcruntime:frame.obj
 0002:00010754       $unwind$?fin$0@?0???$?RV<lambda_72d1df2b273a38828b1ce30cbf4cdab5>@@AEAV<lambda_876a65b173b8412d3a47c70a915b0cf4>@@V<lambda_41932305e351933ebe8f8be3ed8bb5dc>@@@?$__crt_seh_guarded_call@X@@QEAAX$$QEAV<lambda_72d1df2b273a38828b1ce30cbf4cdab5>@@AEAV<lambda_876a65b173b8412d3a47c70a915b0cf4>@@$$QEAV<lambda_41932305e351933ebe8f8be3ed8bb5dc>@@@Z@4HA 0000000180045754     libucrt:per_thread_data.obj
 0002:00010754       $unwind$?dtor$0@?0???0?$basic_ostream@DU?$char_traits@D@std@@@std@@QEAA@PEAV?$basic_streambuf@DU?$char_traits@D@std@@@1@_N@Z@4HA 0000000180045754     libcpmt:cout.obj
 0002:00010754       $unwind$?fin$0@?0??dllmain_crt_process_attach@@YAHQEAUHINSTANCE__@@QEAX@Z@4HA 0000000180045754     LIBCMT:dll_dllmain.obj
 0002:00010754       $unwind$__FrameUnwindToState$fin$1 0000000180045754     libvcruntime:frame.obj
 0002:00010754       $unwind$_query_new_handler$fin$0 0000000180045754     libucrt:new_handler.obj
 0002:00010754       $unwind$?fin$0@?0???$?RV<lambda_b521505b218e5242e90febf6bfebc422>@@AEAV<lambda_6978c1fb23f02e42e1d9e99668cc68aa>@@V<lambda_314360699dd331753a4119843814e9a7>@@@?$__crt_seh_guarded_call@H@@QEAAH$$QEAV<lambda_b521505b218e5242e90febf6bfebc422>@@AEAV<lambda_6978c1fb23f02e42e1d9e99668cc68aa>@@$$QEAV<lambda_314360699dd331753a4119843814e9a7>@@@Z@4HA 0000000180045754     libucrt:commit.obj
 0002:00010754       $unwind$common_control87$filt$0 0000000180045754     libucrt:ieee.obj
 0002:00010754       $unwind$?dtor$0@?0??_Getcat@?$codecvt@DDU_Mbstatet@@@std@@SA_KPEAPEBVfacet@locale@2@PEBV42@@Z@4HA 0000000180045754     libcpmt:cout.obj
 0002:00010754       $unwind$common_flush_all$fin$0 0000000180045754     libucrt:fflush.obj
 0002:00010754       $unwind$ungetc$fin$0       0000000180045754     libucrt:ungetc.obj
 0002:00010754       $unwind$?fin$0@?0???$?RV<lambda_aa279a7bcb127014629d5b1d62c7325d>@@AEAV<lambda_0a64b6a4deda75c01876f29c44fc5eb3>@@V<lambda_3323e69fbefe9d1a11713e670d47cdfa>@@@?$__crt_seh_guarded_call@H@@QEAAH$$QEAV<lambda_aa279a7bcb127014629d5b1d62c7325d>@@AEAV<lambda_0a64b6a4deda75c01876f29c44fc5eb3>@@$$QEAV<lambda_3323e69fbefe9d1a11713e670d47cdfa>@@@Z@4HA 0000000180045754     libucrt:output.obj
 0002:00010754       $unwind$fputc$fin$0        0000000180045754     libucrt:fputc.obj
 0002:00010754       $unwind$?fin$0@?0??common_fseek@@YAHV__crt_stdio_stream@@_JH@Z@4HA 0000000180045754     libucrt:fseek.obj
 0002:00010754       $unwind$raise$fin$0        0000000180045754     libucrt:signal.obj
 0002:00010754       $unwind$__acrt_initialize_lowio$fin$0 0000000180045754     libucrt:ioinit.obj
 0002:00010754       $unwind$?fin$0@?0???$common_ftell@_J@@YA_JV__crt_stdio_stream@@@Z@4HA 0000000180045754     libucrt:ftell.obj
 0002:00010754       $unwind$fgetc$fin$0        0000000180045754     libucrt:fgetc.obj
 0002:0001075c       $unwind$?dllmain_crt_process_detach@@YAH_N@Z 000000018004575c     LIBCMT:dll_dllmain.obj
 0002:00010784       $unwind$?dllmain_dispatch@@YAHQEAUHINSTANCE__@@KQEAX@Z 0000000180045784     LIBCMT:dll_dllmain.obj
 0002:000107ac       $unwind$setlocale$fin$0    00000001800457ac     libucrt:setlocale.obj
 0002:000107ac       $unwind$?filt$0@?0??dllmain_dispatch@@YAHQEAUHINSTANCE__@@KQEAX@Z@4HA 00000001800457ac     LIBCMT:dll_dllmain.obj
 0002:000107b4       $unwind$__GSHandlerCheckCommon 00000001800457b4     LIBCMT:_gshandler_.obj
 0002:000107c0       $xdatasym                  00000001800457c0     LIBCMT:_chkstk_.obj
 0002:000107c8       $unwind$__report_securityfailure 00000001800457c8     LIBCMT:gs_report.obj
 0002:000107d0       $unwind$capture_current_context 00000001800457d0     LIBCMT:gs_report.obj
 0002:000107dc       $unwind$capture_previous_context 00000001800457dc     LIBCMT:gs_report.obj
 0002:000107e8       $unwind$__scrt_fastfail    00000001800457e8     LIBCMT:utility_desktop.obj
 0002:000107f8       $unwind$?__scrt_throw_std_bad_alloc@@YAXXZ 00000001800457f8     LIBCMT:throw_bad_alloc.obj
 0002:000107f8       $unwind$_raise_exc         00000001800457f8     libucrt:fpexcept.obj
 0002:000107f8       $unwind$?_Xbad_alloc@std@@YAXXZ 00000001800457f8     libcpmt:xthrow.obj
 0002:000107f8       $unwind$?_Xlength_error@std@@YAXPEBD@Z 00000001800457f8     libcpmt:xthrow.obj
 0002:000107f8       $unwind$?_Xout_of_range@std@@YAXPEBD@Z 00000001800457f8     libcpmt:xthrow.obj
 0002:000107f8       $unwind$_raise_excf        00000001800457f8     libucrt:fpexcept.obj
 0002:000107f8       $unwind$?__scrt_throw_std_bad_array_new_length@@YAXXZ 00000001800457f8     LIBCMT:throw_bad_alloc.obj
 0002:000107f8       $unwind$__dcrt_lowio_initialize_console_output 00000001800457f8     libucrt:initcon.obj
 0002:00010800       $unwind$__isa_available_init 0000000180045800     LIBCMT:_cpu_disp_.obj
 0002:0001080c       $unwind$__security_init_cookie 000000018004580c     LIBCMT:gs_support.obj
 0002:00010818       $xdatasym                  0000000180045818     LIBCMT:_guard_dispatch_.obj
 0002:00010820       $xdatasym                  0000000180045820     libvcruntime:memcpy.obj
 0002:00010824       $unwind$__CxxCallCatchBlock 0000000180045824     libvcruntime:frame.obj
 0002:00010860       $unwind$__CxxCallCatchBlock$fin$1 0000000180045860     libvcruntime:frame.obj
 0002:0001086c       $unwind$__FrameUnwindToState 000000018004586c     libvcruntime:frame.obj
 0002:000108a8       $unwind$?FindHandler@@YAXPEAUEHExceptionRecord@@PEA_KPEAU_CONTEXT@@PEAU_xDISPATCHER_CONTEXT@@PEBU_s_FuncInfo@@EH1@Z 00000001800458a8     libvcruntime:frame.obj
 0002:000108c8       $unwind$?CatchIt@@YAXPEAUEHExceptionRecord@@PEA_KPEAU_CONTEXT@@PEAU_xDISPATCHER_CONTEXT@@PEBU_s_FuncInfo@@PEBU_s_HandlerType@@PEBU_s_CatchableType@@PEBU_s_TryBlockMapEntry@@H1EE@Z 00000001800458c8     libvcruntime:frame.obj
 0002:000108e0       $unwind$__BuildCatchObject 00000001800458e0     libvcruntime:frame.obj
 0002:0001090c       $unwind$?FindHandlerForForeignException@@YAXPEAUEHExceptionRecord@@PEA_KPEAU_CONTEXT@@PEAU_xDISPATCHER_CONTEXT@@PEBU_s_FuncInfo@@HH1@Z 000000018004590c     libvcruntime:frame.obj
 0002:00010924       $unwind$__DestructExceptionObject 0000000180045924     libvcruntime:frame.obj
 0002:00010948       $unwind$__BuildCatchObjectHelper 0000000180045948     libvcruntime:frame.obj
 0002:00010988       $unwind$_CxxThrowException 0000000180045988     libvcruntime:throw.obj
 0002:0001099c       $unwind$?_GetEstablisherFrame@@YAPEA_KPEA_KPEAU_xDISPATCHER_CONTEXT@@PEBU_s_FuncInfo@@0@Z 000000018004599c     libvcruntime:trnsctrl.obj
 0002:000109b4       $unwind$?__FrameUnwindToEmptyState@@YAXPEA_KPEAU_xDISPATCHER_CONTEXT@@PEBU_s_FuncInfo@@@Z 00000001800459b4     libvcruntime:trnsctrl.obj
 0002:000109c8       $unwind$_CallSETranslator  00000001800459c8     libvcruntime:trnsctrl.obj
 0002:000109ec       $unwind$_CallSETranslator$filt$0 00000001800459ec     libvcruntime:trnsctrl.obj
 0002:000109f4       $unwind$_UnwindNestedFrames 00000001800459f4     libvcruntime:trnsctrl.obj
 0002:00010a08       $unwind$__CxxFrameHandler3 0000000180045a08     libvcruntime:trnsctrl.obj
 0002:00010a18       $xdatasym                  0000000180045a18     libvcruntime:memset.obj
 0002:00010a20       $xdatasym                  0000000180045a20     libvcruntime:memcmp.obj
 0002:00010a24       $unwind$__vcrt_EventWriteTransfer 0000000180045a24     libvcruntime:winapi_downlevel.obj
 0002:00010a24       $unwind$_invalid_parameter 0000000180045a24     libucrt:invalid_parameter.obj
 0002:00010a3c       $unwind$__acrt_initialize_winapi_thunks 0000000180045a3c     libucrt:winapi_thunks.obj
 0002:00010a3c       $unwind$__vcrt_initialize_winapi_thunks 0000000180045a3c     libvcruntime:winapi_downlevel.obj
 0002:00010a44       $unwind$__InternalCxxFrameHandler 0000000180045a44     libvcruntime:frame.obj
 0002:00010a44       $unwind$__acrt_locale_initialize_numeric 0000000180045a44     libucrt:initnum.obj
 0002:00010a44       $unwind$__C_specific_handler 0000000180045a44     libvcruntime:_chandler_.obj
 0002:00010a60       $unwind$__telemetry_main_return_trigger 0000000180045a60     libvcruntime:telemetry.obj
 0002:00010a60       $unwind$__telemetry_main_invoke_trigger 0000000180045a60     libvcruntime:telemetry.obj
 0002:00010a78       $unwind$?_TlgEnableCallback@__vcrt_trace_logging_provider@@YAXPEBU_GUID@@KE_K1PEAU_EVENT_FILTER_DESCRIPTOR@@PEAX@Z 0000000180045a78     libvcruntime:telemetry.obj
 0002:00010a98       $xdatasym                  0000000180045a98     libvcruntime:handlers.obj
 0002:00010aa0       $xdatasym                  0000000180045aa0     libvcruntime:_jmpuwind_.obj
 0002:00010ab4       $unwind$_invalid_parameter_noinfo_noreturn 0000000180045ab4     libucrt:invalid_parameter.obj
 0002:00010ab4       $unwind$_log10_special     0000000180045ab4     libucrt:log_special.obj
 0002:00010ab4       $unwind$_wtol              0000000180045ab4     libucrt:atox.obj
 0002:00010ab4       $unwind$mbstowcs_s         0000000180045ab4     libucrt:mbstowcs.obj
 0002:00010ab4       $unwind$_invalid_parameter_noinfo 0000000180045ab4     libucrt:invalid_parameter.obj
 0002:00010ab4       $unwind$wctomb_s           0000000180045ab4     libucrt:wctomb.obj
 0002:00010ab4       $unwind$_itow_s            0000000180045ab4     libucrt:xtoa.obj
 0002:00010abc       $unwind$__acrt_call_reportfault 0000000180045abc     libucrt:invalid_parameter.obj
 0002:00010adc       $unwind$strcspn            0000000180045adc     libucrt:strcspn.obj
 0002:00010aec       $unwind$__stdio_common_vfprintf 0000000180045aec     libucrt:output.obj
 0002:00010af4       $unwind$?process@?$output_processor@DV?$stream_output_adapter@D@__crt_stdio_output@@V?$standard_base@DV?$stream_output_adapter@D@__crt_stdio_output@@@2@@__crt_stdio_output@@QEAAHXZ 0000000180045af4     libucrt:output.obj
 0002:00010b04       $unwind$?state_case_type@?$output_processor@DV?$string_output_adapter@D@__crt_stdio_output@@V?$format_validation_base@DV?$string_output_adapter@D@__crt_stdio_output@@@2@@__crt_stdio_output@@AEAA_NXZ 0000000180045b04     libucrt:output.obj
 0002:00010b04       $unwind$?state_case_type@?$output_processor@DV?$stream_output_adapter@D@__crt_stdio_output@@V?$standard_base@DV?$stream_output_adapter@D@__crt_stdio_output@@@2@@__crt_stdio_output@@AEAA_NXZ 0000000180045b04     libucrt:output.obj
 0002:00010b1c       $unwind$?write_stored_string_tchar@?$output_processor@DV?$string_output_adapter@D@__crt_stdio_output@@V?$format_validation_base@DV?$string_output_adapter@D@__crt_stdio_output@@@2@@__crt_stdio_output@@AEAA_ND@Z 0000000180045b1c     libucrt:output.obj
 0002:00010b1c       $unwind$?write_stored_string_tchar@?$output_processor@DV?$stream_output_adapter@D@__crt_stdio_output@@V?$standard_base@DV?$stream_output_adapter@D@__crt_stdio_output@@@2@@__crt_stdio_output@@AEAA_ND@Z 0000000180045b1c     libucrt:output.obj
 0002:00010b34       $unwind$??R<lambda_0a64b6a4deda75c01876f29c44fc5eb3>@@QEBAHXZ 0000000180045b34     libucrt:output.obj
 0002:00010b50       $unwind$??R<lambda_4e60a939b0d047cfe11ddc22648dfba9>@@QEBAHXZ 0000000180045b50     libucrt:onexit.obj
 0002:00010b50       $unwind$?_GetRangeOfTrysToCheck@@YAPEBU_s_TryBlockMapEntry@@PEA_KPEBU_s_FuncInfo@@HHPEAI2PEAU_xDISPATCHER_CONTEXT@@@Z 0000000180045b50     libvcruntime:trnsctrl.obj
 0002:00010b50       $unwind$TranslateName      0000000180045b50     libucrt:get_qualified_locale.obj
 0002:00010b50       $unwind$?write_string@?$string_output_adapter@D@__crt_stdio_output@@QEBAXQEBDHQEAH1@Z 0000000180045b50     libucrt:output.obj
 0002:00010b6c       $unwind$??$common_vsprintf@Vformat_validation_base@__crt_stdio_output@@D@@YAH_KQEAD0QEBDQEAU__crt_locale_pointers@@1@Z 0000000180045b6c     libucrt:output.obj
 0002:00010b8c       $unwind$??$write_multiple_characters@V?$stream_output_adapter@D@__crt_stdio_output@@D@__crt_stdio_output@@YAXAEBV?$stream_output_adapter@D@0@DHQEAH@Z 0000000180045b8c     libucrt:output.obj
 0002:00010ba4       $unwind$??$type_case_integer_parse_into_buffer@I@?$output_processor@DV?$stream_output_adapter@D@__crt_stdio_output@@V?$standard_base@DV?$stream_output_adapter@D@__crt_stdio_output@@@2@@__crt_stdio_output@@AEAAXII_N@Z 0000000180045ba4     libucrt:output.obj
 0002:00010ba4       $unwind$??$type_case_integer_parse_into_buffer@I@?$output_processor@DV?$string_output_adapter@D@__crt_stdio_output@@V?$format_validation_base@DV?$string_output_adapter@D@__crt_stdio_output@@@2@@__crt_stdio_output@@AEAAXII_N@Z 0000000180045ba4     libucrt:output.obj
 0002:00010ba4       $unwind$??$type_case_integer_parse_into_buffer@_K@?$output_processor@DV?$stream_output_adapter@D@__crt_stdio_output@@V?$standard_base@DV?$stream_output_adapter@D@__crt_stdio_output@@@2@@__crt_stdio_output@@AEAAX_KI_N@Z 0000000180045ba4     libucrt:output.obj
 0002:00010ba4       $unwind$??$write_multiple_characters@V?$string_output_adapter@D@__crt_stdio_output@@D@__crt_stdio_output@@YAXAEBV?$string_output_adapter@D@0@DHQEAH@Z 0000000180045ba4     libucrt:output.obj
 0002:00010ba4       $unwind$??$type_case_integer_parse_into_buffer@_K@?$output_processor@DV?$string_output_adapter@D@__crt_stdio_output@@V?$format_validation_base@DV?$string_output_adapter@D@__crt_stdio_output@@@2@@__crt_stdio_output@@AEAAX_KI_N@Z 0000000180045ba4     libucrt:output.obj
 0002:00010bac       $unwind$??$?RV<lambda_aa279a7bcb127014629d5b1d62c7325d>@@AEAV<lambda_0a64b6a4deda75c01876f29c44fc5eb3>@@V<lambda_3323e69fbefe9d1a11713e670d47cdfa>@@@?$__crt_seh_guarded_call@H@@QEAAH$$QEAV<lambda_aa279a7bcb127014629d5b1d62c7325d>@@AEAV<lambda_0a64b6a4deda75c01876f29c44fc5eb3>@@$$QEAV<lambda_3323e69fbefe9d1a11713e670d47cdfa>@@@Z 0000000180045bac     libucrt:output.obj
 0002:00010bd0       $unwind$?parse_int_from_format_string@?$output_processor@DV?$stream_output_adapter@D@__crt_stdio_output@@V?$standard_base@DV?$stream_output_adapter@D@__crt_stdio_output@@@2@@__crt_stdio_output@@AEAA_NQEAH@Z 0000000180045bd0     libucrt:output.obj
 0002:00010bd0       $unwind$?parse_int_from_format_string@?$output_processor@DV?$string_output_adapter@D@__crt_stdio_output@@V?$format_validation_base@DV?$string_output_adapter@D@__crt_stdio_output@@@2@@__crt_stdio_output@@AEAA_NQEAH@Z 0000000180045bd0     libucrt:output.obj
 0002:00010be4       $unwind$?type_case_a@?$output_processor@DV?$stream_output_adapter@D@__crt_stdio_output@@V?$standard_base@DV?$stream_output_adapter@D@__crt_stdio_output@@@2@@__crt_stdio_output@@AEAA_NXZ 0000000180045be4     libucrt:output.obj
 0002:00010be4       $unwind$?type_case_a@?$output_processor@DV?$string_output_adapter@D@__crt_stdio_output@@V?$format_validation_base@DV?$string_output_adapter@D@__crt_stdio_output@@@2@@__crt_stdio_output@@AEAA_NXZ 0000000180045be4     libucrt:output.obj
 0002:00010bf0       $unwind$frexp              0000000180045bf0     libucrt:frexp.obj
 0002:00010c04       $unwind$?common_exit@@YAXHW4_crt_exit_cleanup_mode@@W4_crt_exit_return_mode@@@Z 0000000180045c04     libucrt:exit.obj
 0002:00010c44       $unwind$roundf             0000000180045c44     libucrt:roundf.obj
 0002:00010c44       $unwind$round              0000000180045c44     libucrt:round.obj
 0002:00010c4c       $unwind$fclose             0000000180045c4c     libucrt:fclose.obj
 0002:00010c70       $unwind$fflush             0000000180045c70     libucrt:fflush.obj
 0002:00010c94       $unwind$common_flush_all   0000000180045c94     libucrt:fflush.obj
 0002:00010cd0       $unwind$fgetc              0000000180045cd0     libucrt:fgetc.obj
 0002:00010d04       $unwind$fputc              0000000180045d04     libucrt:fputc.obj
 0002:00010d38       $unwind$?common_fseek_binary_mode_read_only_fast_track_nolock@@YA_NV__crt_stdio_stream@@_JH@Z 0000000180045d38     libucrt:fseek.obj
 0002:00010d44       $unwind$_raise_exc_ex      0000000180045d44     libucrt:fpexcept.obj
 0002:00010d44       $unwind$??$common_refill_and_read_nolock@D@@YAHV__crt_stdio_stream@@@Z 0000000180045d44     libucrt:_filbuf.obj
 0002:00010d44       $unwind$?common_fseek_nolock@@YAHV__crt_stdio_stream@@_JH@Z 0000000180045d44     libucrt:fseek.obj
 0002:00010d58       $unwind$?common_fseek@@YAHV__crt_stdio_stream@@_JH@Z 0000000180045d58     libucrt:fseek.obj
 0002:00010d7c       $unwind$fwrite             0000000180045d7c     libucrt:fwrite.obj
 0002:00010d84       $unwind$?try_get_function@@YAPEAXW4function_id@?A0x61ce2399@@QEBDQEBW4module_id@2@2@Z 0000000180045d84     libvcruntime:winapi_downlevel.obj
 0002:00010d84       $unwind$_fwrite_nolock     0000000180045d84     libucrt:fwrite.obj
 0002:00010d84       $unwind$?IsInExceptionSpec@@YAEPEAUEHExceptionRecord@@PEBU_s_ESTypeList@@@Z 0000000180045d84     libvcruntime:frame.obj
 0002:00010d84       $unwind$?try_get_function@@YAPEAXW4function_id@?A0x63058377@@QEBDQEBW4module_id@2@2@Z 0000000180045d84     libucrt:winapi_thunks.obj
 0002:00010da0       $unwind$??$?RV<lambda_5d4c3fee44080f75d5d9762853974fe0>@@AEAV<lambda_532e024f4337e6fc7ad266c2bef9f4ed>@@V<lambda_c87bdc10097eb2402edb8ba9bdf0697b>@@@?$__crt_seh_guarded_call@_K@@QEAA_K$$QEAV<lambda_5d4c3fee44080f75d5d9762853974fe0>@@AEAV<lambda_532e024f4337e6fc7ad266c2bef9f4ed>@@$$QEAV<lambda_c87bdc10097eb2402edb8ba9bdf0697b>@@@Z 0000000180045da0     libucrt:fwrite.obj
 0002:00010dc4       $unwind$setvbuf            0000000180045dc4     libucrt:setvbuf.obj
 0002:00010dcc       $unwind$??$?RV<lambda_7a5ef57ff966f610505f1d28a3d40618>@@AEAV<lambda_b721fa326cdb32351d23dfa67958c160>@@V<lambda_5e0fb27672408a07956fe59e48ccb2aa>@@@?$__crt_seh_guarded_call@H@@QEAAH$$QEAV<lambda_7a5ef57ff966f610505f1d28a3d40618>@@AEAV<lambda_b721fa326cdb32351d23dfa67958c160>@@$$QEAV<lambda_5e0fb27672408a07956fe59e48ccb2aa>@@@Z 0000000180045dcc     libucrt:setvbuf.obj
 0002:00010df0       $unwind$ungetc             0000000180045df0     libucrt:ungetc.obj
 0002:00010e14       $unwind$setlocale          0000000180045e14     libucrt:setlocale.obj
 0002:00010e44       $unwind$call_wsetlocale    0000000180045e44     libucrt:setlocale.obj
 0002:00010e58       $unwind$isdigit            0000000180045e58     libucrt:_ctype.obj
 0002:00010e58       $unwind$?getSystemCP@@YAHH@Z 0000000180045e58     libucrt:mbctype.obj
 0002:00010e58       $unwind$islower            0000000180045e58     libucrt:_ctype.obj
 0002:00010e58       $unwind$?_TlgWrite@__vcrt_trace_logging_provider@@YAJPEBU_TlgProvider_t@1@PEFBXPEBU_GUID@@2IPEAU_EVENT_DATA_DESCRIPTOR@@@Z 0000000180045e58     libvcruntime:telemetry.obj
 0002:00010e58       $unwind$isupper            0000000180045e58     libucrt:_ctype.obj
 0002:00010e58       $unwind$_isleadbyte_l      0000000180045e58     libucrt:_wctype.obj
 0002:00010e60       $unwind$__acrt_locale_initialize_ctype 0000000180045e60     libucrt:initctype.obj
 0002:00010e88       $unwind$__acrt_locale_free_numeric 0000000180045e88     libucrt:initnum.obj
 0002:00010e88       $unwind$__acrt_locale_free_lc_time_if_unreferenced 0000000180045e88     libucrt:locale_refcounting.obj
 0002:00010e88       $unwind$_free_base         0000000180045e88     libucrt:free_base.obj
 0002:00010e88       $unwind$?destroy_fls@@YAXPEAX@Z 0000000180045e88     libucrt:per_thread_data.obj
 0002:00010e90       $unwind$_tolower_l         0000000180045e90     libucrt:tolower_toupper.obj
 0002:00010ea0       $unwind$wcsnlen            0000000180045ea0     libucrt:strnlen.obj
 0002:00010ea0       $unwind$strnlen            0000000180045ea0     libucrt:strnlen.obj
 0002:00010ea8       $unwind$sqrtf              0000000180045ea8     libucrt:sqrtf.obj
 0002:00010ea8       $unwind$sqrt               0000000180045ea8     libucrt:sqrt.obj
 0002:00010eb0       $unwind$_query_new_handler 0000000180045eb0     libucrt:new_handler.obj
 0002:00010ed0       $unwind$??$free_environment@_W@@YAXQEAPEA_W@Z 0000000180045ed0     libucrt:environment_initialization.obj
 0002:00010ed0       $unwind$??$free_environment@D@@YAXQEAPEAD@Z 0000000180045ed0     libucrt:environment_initialization.obj
 0002:00010edc       $unwind$??$create_environment@D@@YAQEAPEADQEAD@Z 0000000180045edc     libucrt:environment_initialization.obj
 0002:00010edc       $unwind$__lc_wcstolc       0000000180045edc     libucrt:wsetlocale.obj
 0002:00010ef4       $unwind$_register_onexit_function 0000000180045ef4     libucrt:onexit.obj
 0002:00010efc       $unwind$_execute_onexit_table 0000000180045efc     libucrt:onexit.obj
 0002:00010f04       $unwind$??$?RV<lambda_b8c45f8f788dd370798f47cfe8ac3a86>@@AEAV<lambda_4e60a939b0d047cfe11ddc22648dfba9>@@V<lambda_332c3edc96d0294ec56c57d38c1cdfd5>@@@?$__crt_seh_guarded_call@H@@QEAAH$$QEAV<lambda_b8c45f8f788dd370798f47cfe8ac3a86>@@AEAV<lambda_4e60a939b0d047cfe11ddc22648dfba9>@@$$QEAV<lambda_332c3edc96d0294ec56c57d38c1cdfd5>@@@Z 0000000180045f04     libucrt:onexit.obj
 0002:00010f28       $unwind$??$?RV<lambda_e24bbb7b643b32fcea6fa61b31d4c984>@@AEAV<lambda_275893d493268fdec8709772e3fcec0e>@@V<lambda_9d71df4d7cf3f480f8d633942495c3b0>@@@?$__crt_seh_guarded_call@H@@QEAAH$$QEAV<lambda_e24bbb7b643b32fcea6fa61b31d4c984>@@AEAV<lambda_275893d493268fdec8709772e3fcec0e>@@$$QEAV<lambda_9d71df4d7cf3f480f8d633942495c3b0>@@@Z 0000000180045f28     libucrt:onexit.obj
 0002:00010f58       $unwind$terminate          0000000180045f58     libucrt:terminate.obj
 0002:00010f78       $unwind$??$parse_integer@KV?$c_string_character_source@D@__crt_strtox@@@__crt_strtox@@YAKQEAU__crt_locale_pointers@@V?$c_string_character_source@D@0@H_N@Z 0000000180045f78     libucrt:atox.obj
 0002:00010f94       $unwind$??$parse_integer@KV?$c_string_character_source@_W@__crt_strtox@@@__crt_strtox@@YAKQEAU__crt_locale_pointers@@V?$c_string_character_source@_W@0@H_N@Z 0000000180045f94     libucrt:atox.obj
 0002:00010fb0       $unwind$?construct_ptd_array@@YAXQEAU__acrt_ptd@@@Z 0000000180045fb0     libucrt:per_thread_data.obj
 0002:00010fb8       $unwind$?destroy_ptd_array@@YAXQEAU__acrt_ptd@@@Z 0000000180045fb8     libucrt:per_thread_data.obj
 0002:00010fc0       $unwind$??$?RV<lambda_72d1df2b273a38828b1ce30cbf4cdab5>@@AEAV<lambda_876a65b173b8412d3a47c70a915b0cf4>@@V<lambda_41932305e351933ebe8f8be3ed8bb5dc>@@@?$__crt_seh_guarded_call@X@@QEAAX$$QEAV<lambda_72d1df2b273a38828b1ce30cbf4cdab5>@@AEAV<lambda_876a65b173b8412d3a47c70a915b0cf4>@@$$QEAV<lambda_41932305e351933ebe8f8be3ed8bb5dc>@@@Z 0000000180045fc0     libucrt:per_thread_data.obj
 0002:00010fe4       $unwind$??$?RV<lambda_5e887d1dcbef67a5eb4283622ba103bf>@@AEAV<lambda_4466841279450cc726390878d4a41900>@@V<lambda_341c25c0346d94847f1f3c463c57e077>@@@?$__crt_seh_guarded_call@X@@QEAAX$$QEAV<lambda_5e887d1dcbef67a5eb4283622ba103bf>@@AEAV<lambda_4466841279450cc726390878d4a41900>@@$$QEAV<lambda_341c25c0346d94847f1f3c463c57e077>@@@Z 0000000180045fe4     libucrt:per_thread_data.obj
 0002:00011008       $unwind$??$?RV<lambda_46352004c1216016012b18bd6f87e700>@@AEAV<lambda_3bd07e1a1191394380780325891bf33f>@@V<lambda_334532d3f185bcaa59b5be82d7d22bff>@@@?$__crt_seh_guarded_call@X@@QEAAX$$QEAV<lambda_46352004c1216016012b18bd6f87e700>@@AEAV<lambda_3bd07e1a1191394380780325891bf33f>@@$$QEAV<lambda_334532d3f185bcaa59b5be82d7d22bff>@@@Z 0000000180046008     libucrt:per_thread_data.obj
 0002:0001102c       $unwind$??$?RV<lambda_fb3a7dec4e47f37f22dae91bb15c9095>@@AEAV<lambda_698284760c8add0bfb0756c19673e34b>@@V<lambda_dfb8eca1e75fef3034a8fb18dd509707>@@@?$__crt_seh_guarded_call@X@@QEAAX$$QEAV<lambda_fb3a7dec4e47f37f22dae91bb15c9095>@@AEAV<lambda_698284760c8add0bfb0756c19673e34b>@@$$QEAV<lambda_dfb8eca1e75fef3034a8fb18dd509707>@@@Z 000000018004602c     libucrt:per_thread_data.obj
 0002:00011050       $unwind$__acrt_get_sigabrt_handler 0000000180046050     libucrt:signal.obj
 0002:00011058       $unwind$raise              0000000180046058     libucrt:signal.obj
 0002:00011084       $unwind$??$?RV<lambda_c36588078e9f5dfd39652860aa6b3aaf>@@AEAV<lambda_ec61778202f4f5fc7e7711acc23c3bca>@@V<lambda_dc9d2797ccde5d239b4a0efae8ebd7db>@@@?$__crt_seh_guarded_call@P6AXH@Z@@QEAAP6AXH@Z$$QEAV<lambda_c36588078e9f5dfd39652860aa6b3aaf>@@AEAV<lambda_ec61778202f4f5fc7e7711acc23c3bca>@@$$QEAV<lambda_dc9d2797ccde5d239b4a0efae8ebd7db>@@@Z 0000000180046084     libucrt:signal.obj
 0002:000110a8       $unwind$__acrt_EnumSystemLocalesEx 00000001800460a8     libucrt:winapi_thunks.obj
 0002:000110bc       $unwind$??$?RV<lambda_630b2aca97f6d20d5b5ea6529ea6b6af>@@AEAV<lambda_af91936f1d075d609f72d9d8cba980af>@@V<lambda_e82fa975f615b5c7c7b0e4d178fdae67>@@@?$__crt_seh_guarded_call@H@@QEAAH$$QEAV<lambda_630b2aca97f6d20d5b5ea6529ea6b6af>@@AEAV<lambda_af91936f1d075d609f72d9d8cba980af>@@$$QEAV<lambda_e82fa975f615b5c7c7b0e4d178fdae67>@@@Z 00000001800460bc     libucrt:winapi_thunks.obj
 0002:000110e4       $unwind$_fcloseall         00000001800460e4     libucrt:closeall.obj
 0002:00011108       $unwind$__acrt_initialize_lowio 0000000180046108     libucrt:ioinit.obj
 0002:00011128       $unwind$?initialize_inherited_file_handles_nolock@@YAXXZ 0000000180046128     libucrt:ioinit.obj
 0002:00011144       $unwind$_free_osfhnd       0000000180046144     libucrt:osfinfo.obj
 0002:00011144       $unwind$__std_exception_copy 0000000180046144     libvcruntime:std_exception.obj
 0002:00011144       $unwind$?initialize_stdio_handles_nolock@@YAXXZ 0000000180046144     libucrt:ioinit.obj
 0002:00011144       $unwind$_wcstombs_s_l      0000000180046144     libucrt:wcstombs.obj
 0002:00011158       $unwind$_wctomb_s_l        0000000180046158     libucrt:wctomb.obj
 0002:00011168       $unwind$__acrt_fp_format   0000000180046168     libucrt:cvt.obj
 0002:00011184       $unwind$?fp_format_nan_or_infinity@@YAHW4__acrt_fp_class@@_NPEAD_K1@Z 0000000180046184     libucrt:cvt.obj
 0002:00011198       $unwind$?fp_format_e_internal@@YAHQEAD_KH_NIQEAU_strflt@@2QEAU__crt_locale_pointers@@@Z 0000000180046198     libucrt:cvt.obj
 0002:000111b0       $unwind$?fp_format_a@@YAHQEBNPEAD_KQEAD2H_NIQEAU__crt_locale_pointers@@@Z 00000001800461b0     libucrt:cvt.obj
 0002:000111cc       $unwind$?fp_format_g@@YAHQEBNQEAD_K12H_NIQEAU__crt_locale_pointers@@@Z 00000001800461cc     libucrt:cvt.obj
 0002:000111e0       $unwind$__acrt_stdio_end_temporary_buffering_nolock 00000001800461e0     libucrt:_sftbuf.obj
 0002:000111e0       $unwind$__vcrt_uninitialize_winapi_thunks 00000001800461e0     libvcruntime:winapi_downlevel.obj
 0002:000111e8       $unwind$_wsetlocale        00000001800461e8     libucrt:wsetlocale.obj
 0002:000111f0       $unwind$_expandlocale      00000001800461f0     libucrt:wsetlocale.obj
 0002:00011210       $unwind$_wcscats           0000000180046210     libucrt:wsetlocale.obj
 0002:00011220       $unwind$_wcsdup            0000000180046220     libucrt:wcsdup.obj
 0002:00011220       $unwind$__acrt_DownlevelLCIDToLocaleName 0000000180046220     libucrt:lcidtoname_downlevel.obj
 0002:00011220       $unwind$__lc_lctowcs       0000000180046220     libucrt:wsetlocale.obj
 0002:00011234       $unwind$_wsetlocale_set_cat 0000000180046234     libucrt:wsetlocale.obj
 0002:00011258       $unwind$_wsetlocale_get_all 0000000180046258     libucrt:wsetlocale.obj
 0002:00011274       $unwind$_wsetlocale_nolock 0000000180046274     libucrt:wsetlocale.obj
 0002:00011298       $unwind$__acrt_uninitialize_locale 0000000180046298     libucrt:wsetlocale.obj
 0002:000112b8       $unwind$??R<lambda_2af78c5f5901b1372d98f9ab3177dfa6>@@QEBAXXZ 00000001800462b8     libucrt:wsetlocale.obj
 0002:000112c4       $unwind$??$?RV<lambda_5df02c53a8f32f81fd64e5bbb78039f1>@@AEAV<lambda_2af78c5f5901b1372d98f9ab3177dfa6>@@AEAV<lambda_f51fe5fd7c79a33db34fc9310f277369>@@@?$__crt_seh_guarded_call@X@@QEAAX$$QEAV<lambda_5df02c53a8f32f81fd64e5bbb78039f1>@@AEAV<lambda_2af78c5f5901b1372d98f9ab3177dfa6>@@AEAV<lambda_f51fe5fd7c79a33db34fc9310f277369>@@@Z 00000001800462c4     libucrt:wsetlocale.obj
 0002:000112e4       $unwind$??$?RV<lambda_d67e8342c384adda8f857579ab50b2ae>@@AEAV<lambda_30712929f77e709619002f448b6a9510>@@V<lambda_4525336fd7e478d965fb7ca7a337cad8>@@@?$__crt_seh_guarded_call@X@@QEAAX$$QEAV<lambda_d67e8342c384adda8f857579ab50b2ae>@@AEAV<lambda_30712929f77e709619002f448b6a9510>@@$$QEAV<lambda_4525336fd7e478d965fb7ca7a337cad8>@@@Z 00000001800462e4     libucrt:wsetlocale.obj
 0002:00011308       $unwind$_except1           0000000180046308     libucrt:fpexcept.obj
 0002:00011328       $unwind$_handle_exc        0000000180046328     libucrt:fpexcept.obj
 0002:00011344       $unwind$_umatherr          0000000180046344     libucrt:fpexcept.obj
 0002:0001134c       $unwind$_ctrlfp            000000018004634c     libucrt:fpctrl.obj
 0002:00011374       $unwind$_close             0000000180046374     libucrt:close.obj
 0002:00011374       $unwind$_commit            0000000180046374     libucrt:commit.obj
 0002:0001137c       $unwind$??$?RV<lambda_bfedae4ebbf01fab1bb6dcc6a9e276e0>@@AEAV<lambda_2fe9b910cf3cbf4a0ab98a02ba45b3ec>@@V<lambda_237c231691f317818eb88cc1d5d642d6>@@@?$__crt_seh_guarded_call@H@@QEAAH$$QEAV<lambda_bfedae4ebbf01fab1bb6dcc6a9e276e0>@@AEAV<lambda_2fe9b910cf3cbf4a0ab98a02ba45b3ec>@@$$QEAV<lambda_237c231691f317818eb88cc1d5d642d6>@@@Z 000000018004637c     libucrt:close.obj
 0002:000113a0       $unwind$??$?RV<lambda_b521505b218e5242e90febf6bfebc422>@@AEAV<lambda_6978c1fb23f02e42e1d9e99668cc68aa>@@V<lambda_314360699dd331753a4119843814e9a7>@@@?$__crt_seh_guarded_call@H@@QEAAH$$QEAV<lambda_b521505b218e5242e90febf6bfebc422>@@AEAV<lambda_6978c1fb23f02e42e1d9e99668cc68aa>@@$$QEAV<lambda_314360699dd331753a4119843814e9a7>@@@Z 00000001800463a0     libucrt:commit.obj
 0002:000113c4       $unwind$_write             00000001800463c4     libucrt:write.obj
 0002:000113f4       $unwind$_write_nolock      00000001800463f4     libucrt:write.obj
 0002:0001140c       $unwind$?write_double_translated_ansi_nolock@@YA?AUwrite_result@?A0x9c548279@@HQEBDI@Z 000000018004640c     libucrt:write.obj
 0002:0001142c       $unwind$?write_text_utf16le_nolock@@YA?AUwrite_result@?A0x9c548279@@HQEBDI@Z 000000018004642c     libucrt:write.obj
 0002:0001142c       $unwind$?write_text_ansi_nolock@@YA?AUwrite_result@?A0x9c548279@@HQEBDI@Z 000000018004642c     libucrt:write.obj
 0002:0001144c       $unwind$?write_text_utf8_nolock@@YA?AUwrite_result@?A0x9c548279@@HQEBDI@Z 000000018004644c     libucrt:write.obj
 0002:00011470       $unwind$?common_ftell_translated_utf8_nolock@@YA_JV__crt_stdio_stream@@_J@Z 0000000180046470     libucrt:ftell.obj
 0002:00011494       $unwind$?common_ftell_read_mode_nolock@@YA_JV__crt_stdio_stream@@_J1@Z 0000000180046494     libucrt:ftell.obj
 0002:000114b0       $unwind$??$common_ftell_nolock@_J@@YA_JV__crt_stdio_stream@@@Z 00000001800464b0     libucrt:ftell.obj
 0002:000114bc       $unwind$??$common_ftell@_J@@YA_JV__crt_stdio_stream@@@Z 00000001800464bc     libucrt:ftell.obj
 0002:000114dc       $unwind$??$write_buffer_nolock@D@@YA_NDV__crt_stdio_stream@@@Z 00000001800464dc     libucrt:_flsbuf.obj
 0002:000114ec       $unwind$??$common_lseek@_J@@YA_JH_JH@Z 00000001800464ec     libucrt:lseek.obj
 0002:0001151c       $unwind$_mbstowcs_s_l      000000018004651c     libucrt:mbstowcs.obj
 0002:00011534       $unwind$?_mbstowcs_l_helper@@YA_KPEA_WPEBD_KPEAU__crt_locale_pointers@@@Z 0000000180046534     libucrt:mbstowcs.obj
 0002:00011550       $unwind$?_wcstombs_l_helper@@YA_KPEADPEB_W_KPEAU__crt_locale_pointers@@@Z 0000000180046550     libucrt:wcstombs.obj
 0002:00011570       $unwind$_isctype_l         0000000180046570     libucrt:isctype.obj
 0002:0001158c       $unwind$__acrt_GetLocaleInfoA 000000018004658c     libucrt:getlocaleinfoa.obj
 0002:000115ac       $unwind$?InternalGetLocaleInfoA@@YAHQEAU__crt_locale_pointers@@QEB_WKQEADH@Z 00000001800465ac     libucrt:getlocaleinfoa.obj
 0002:000115d4       $unwind$__acrt_GetStringTypeA 00000001800465d4     libucrt:getstringtypea.obj
 0002:000115fc       $unwind$__acrt_LCMapStringA 00000001800465fc     libucrt:lcmapstringa.obj
 0002:0001160c       $unwind$?__acrt_LCMapStringA_stat@@YAHPEAU__crt_locale_pointers@@PEB_WKPEBDHPEADHHH@Z 000000018004660c     libucrt:lcmapstringa.obj
 0002:00011634       $unwind$_wcsicmp_l         0000000180046634     libucrt:wcsicmp.obj
 0002:00011634       $unwind$?__SehTransFilter@@YAHPEAU_EXCEPTION_POINTERS@@PEAUEHExceptionRecord@@PEA_KPEAU_CONTEXT@@PEAU_xDISPATCHER_CONTEXT@@PEBU_s_FuncInfo@@PEAH@Z 0000000180046634     libvcruntime:trnsctrl.obj
 0002:00011648       $unwind$_call_matherr      0000000180046648     libucrt:libm_error.obj
 0002:00011650       $unwind$_handle_error      0000000180046650     libucrt:libm_error.obj
 0002:00011650       $unwind$_handle_errorf     0000000180046650     libucrt:libm_error.obj
 0002:00011670       $unwind$__acrt_update_thread_multibyte_data 0000000180046670     libucrt:mbctype.obj
 0002:00011694       $unwind$_setmbcp_nolock    0000000180046694     libucrt:mbctype.obj
 0002:000116b4       $unwind$?setSBUpLow@@YAXPEAU__crt_multibyte_data@@@Z 00000001800466b4     libucrt:mbctype.obj
 0002:000116d0       $unwind$?setmbcp_internal@@YAHH_N@Z 00000001800466d0     libucrt:mbctype.obj
 0002:000116e0       $unwind$??$?RV<lambda_99476a1ad63dd22509b5d3e65b0ffc95>@@AEAV<lambda_ad1ced32f4ac17aa236e5ef05d6b3b7c>@@V<lambda_f7424dd8d45958661754dc4f2697e9c3>@@@?$__crt_seh_guarded_call@X@@QEAAX$$QEAV<lambda_99476a1ad63dd22509b5d3e65b0ffc95>@@AEAV<lambda_ad1ced32f4ac17aa236e5ef05d6b3b7c>@@$$QEAV<lambda_f7424dd8d45958661754dc4f2697e9c3>@@@Z 00000001800466e0     libucrt:mbctype.obj
 0002:00011704       $unwind$iswctype           0000000180046704     libucrt:iswctype.obj
 0002:00011704       $unwind$__acrt_is_packaged_app 0000000180046704     libucrt:winapi_thunks.obj
 0002:00011710       $unwind$__acrt_update_thread_locale_data 0000000180046710     libucrt:locale_refcounting.obj
 0002:00011734       $unwind$?GetTableIndexFromLocaleName@@YAHPEB_W@Z 0000000180046734     libucrt:lcidtoname_downlevel.obj
 0002:0001174c       $unwind$__acrt_lowio_destroy_handle_array 000000018004674c     libucrt:osfinfo.obj
 0002:0001175c       $unwind$__acrt_lowio_ensure_fh_exists 000000018004675c     libucrt:osfinfo.obj
 0002:00011788       $unwind$__acrt_fltout      0000000180046788     libucrt:cfout.obj
 0002:000117a8       $unwind$?divide@__crt_strtox@@YA_KAEAUbig_integer@1@AEBU21@@Z 00000001800467a8     libucrt:cfout.obj
 0002:000117c8       $chain$5$?divide@__crt_strtox@@YA_KAEAUbig_integer@1@AEBU21@@Z 00000001800467c8     libucrt:cfout.obj
 0002:000117dc       $chain$6$?divide@__crt_strtox@@YA_KAEAUbig_integer@1@AEBU21@@Z 00000001800467dc     libucrt:cfout.obj
 0002:000117ec       $unwind$__acrt_locale_initialize_monetary 00000001800467ec     libucrt:initmon.obj
 0002:00011808       $unwind$__acrt_locale_free_monetary 0000000180046808     libucrt:initmon.obj
 0002:00011810       $unwind$__acrt_locale_free_time 0000000180046810     libucrt:inittime.obj
 0002:00011820       $unwind$?initialize_lc_time@@YA_NQEAU__crt_lc_time_data@@QEAU__crt_locale_data@@@Z 0000000180046820     libucrt:inittime.obj
 0002:0001183c       $unwind$__acrt_get_qualified_locale 000000018004683c     libucrt:get_qualified_locale.obj
 0002:00011858       $unwind$LangCountryEnumProcEx 0000000180046858     libucrt:get_qualified_locale.obj
 0002:00011878       $unwind$LanguageEnumProcEx 0000000180046878     libucrt:get_qualified_locale.obj
 0002:00011894       $unwind$GetLocaleNameFromDefault 0000000180046894     libucrt:get_qualified_locale.obj
 0002:000118ac       $unwind$TestDefaultCountry 00000001800468ac     libucrt:get_qualified_locale.obj
 0002:000118c0       $unwind$__acrt_get_qualified_locale_downlevel 00000001800468c0     libucrt:getqloc_downlevel.obj
 0002:000118dc       $unwind$LangCountryEnumProc 00000001800468dc     libucrt:getqloc_downlevel.obj
 0002:000118fc       $unwind$LanguageEnumProc   00000001800468fc     libucrt:getqloc_downlevel.obj
 0002:00011918       $unwind$CountryEnumProc    0000000180046918     libucrt:getqloc_downlevel.obj
 0002:00011938       $xdatasym                  0000000180046938     libucrt:fpsr.obj
 0002:00011940       $unwind$__report_gsfailure 0000000180046940     LIBCMT:gs_report.obj
 0002:00011940       $unwind$_putwch_nolock     0000000180046940     libucrt:putwch.obj
 0002:00011948       $unwind$_read              0000000180046948     libucrt:read.obj
 0002:00011974       $unwind$_read_nolock       0000000180046974     libucrt:read.obj
 0002:0001198c       $unwind$?translate_ansi_or_utf8_nolock@@YAHHQEAD_KQEA_W1@Z 000000018004698c     libucrt:read.obj
 0002:000119a4       $unwind$??$translate_text_mode_nolock@_W@@YAHHQEA_W_K@Z 00000001800469a4     libucrt:read.obj
 0002:000119bc       $unwind$_towlower_l        00000001800469bc     libucrt:towlower.obj
 0002:000119c8       $xdatasym                  00000001800469c8     libucrt:log10.obj
 0002:000119d4       $unwind$?fp_format_f_internal@@YAHQEAD_KHQEAU_strflt@@_NQEAU__crt_locale_pointers@@@Z 00000001800469d4     libucrt:cvt.obj
 0002:000119d4       $unwind$__dcrt_get_narrow_environment_from_os 00000001800469d4     libucrt:get_environment_from_os.obj
 0002:000119d4       $unwind$_wcsnicmp_l        00000001800469d4     libucrt:wcsnicmp.obj
 0002:000119ec       $unwind$common_control87   00000001800469ec     libucrt:ieee.obj
 0002:00011a1c       $unwind$__acrt_LCMapStringW 0000000180046a1c     libucrt:lcmapstringw.obj
 0002:00011a1c       $unwind$?fp_format_e@@YAHQEBNQEAD_K12H_NIQEAU__crt_locale_pointers@@@Z 0000000180046a1c     libucrt:cvt.obj
 0002:00011a30       $unwind$__acrt_initialize_fma3 0000000180046a30     libucrt:fma3_available.obj
 0002:00011a38       $unwind$_log_special_common 0000000180046a38     libucrt:log_special.obj
 0002:00011a44       $unwind$?DloadObtainSection@@YAPEAXPEAK0@Z 0000000180046a44     DelayImp:delayhlp.obj
 0002:00011a54       $unwind$?DloadMakePermanentImageCommit@@YAXPEAX_K@Z 0000000180046a54     DelayImp:delayhlp.obj
 0002:00011a60       $unwind$?DloadProtectSection@@YAXKPEAK@Z 0000000180046a60     DelayImp:delayhlp.obj
 0002:00011a70       $unwind$__delayLoadHelper2 0000000180046a70     DelayImp:delayhlp.obj
 0002:00011a88       $unwind$_IsNonwritableInCurrentImage 0000000180046a88     LIBCMT:pesect.obj
 0002:00011aac       $unwind$wcschr             0000000180046aac     libvcruntime:wcschr.obj
 0002:00011aac       $unwind$strrchr            0000000180046aac     libvcruntime:strrchr.obj
 0002:00011ab4       $unwind$atanf              0000000180046ab4     libucrt:atanf.obj
 0002:00011ac0       $xdatasym                  0000000180046ac0     libucrt:cos.obj
 0002:00011ac8       $xdatasym                  0000000180046ac8     libucrt:sin.obj
 0002:00011ad0       $xdatasym                  0000000180046ad0     libucrt:remainder_piby2_forasm.obj
 0002:00011ae0       $xdatasym                  0000000180046ae0     libucrt:remainder_piby2_forfma3.obj
 0002:00011aec       $unwind$_sincos_special    0000000180046aec     libucrt:sincos_special.obj
 0002:00012250       .edata                     0000000180047250     MSC_drone.exp
 0002:00012278       rgpv                       0000000180047278     MSC_drone.exp
 0002:0001227c       rgszName                   000000018004727c     MSC_drone.exp
 0002:00012280       rgwOrd                     0000000180047280     MSC_drone.exp
 0002:00012282       szName                     0000000180047282     MSC_drone.exp
 0002:00012291       $N00001                    0000000180047291     MSC_drone.exp
 0002:0001284c       .idata$6                   000000018004784c     kernel32:KERNEL32.dll
 0002:00013280       .idata$6                   0000000180048280     opencv_core2411:opencv_core2411.dll
 0002:000133ae       .idata$6                   00000001800483ae     opencv_highgui2411:opencv_highgui2411.dll
 0002:000136b0       .idata$6                   00000001800486b0     opencv_imgproc2411:opencv_imgproc2411.dll
 0002:00013c7c       .idata$6                   0000000180048c7c     advapi32:ADVAPI32.dll
 0003:00000000       ?init@std@@3JA             0000000180049000     libcpmt:xlock.obj
 0003:00000010       ?atcount_cdecl@@3_KA       0000000180049010     libcpmt:iosptrs.obj
 0003:000001f0       ?_Tlg_Microsoft_CRTProviderProv@@3U_TlgProvider_t@__vcrt_trace_logging_provider@@A 00000001800491f0     libvcruntime:telemetry.obj
 0003:00000240       ?__vcrt_flsindex@@3KA      0000000180049240     libvcruntime:per_thread_data.obj
 0003:00000418       errno_no_memory            0000000180049418     libucrt:errno.obj
 0003:0000041c       doserrno_no_memory         000000018004941c     libucrt:errno.obj
 0003:00000430       __acrt_flsindex            0000000180049430     libucrt:per_thread_data.obj
 0003:00000480       _ctype_loc_style           0000000180049480     libucrt:wsetlocale.obj
 0003:00000600       ?dazSupported@?1??_ctrlfp@@9@9 0000000180049600     libucrt:fpctrl.obj
 0003:00000610       tzstd_program              0000000180049610     libucrt:timeset.obj
 0003:00000650       tzdst_program              0000000180049650     libucrt:timeset.obj
 0003:00000690       tzname_states              0000000180049690     libucrt:timeset.obj
 0003:000008d0       __rgctypeflag              00000001800498d0     libucrt:mbctype.obj
 0003:000008e0       __rgcode_page_info         00000001800498e0     libucrt:mbctype.obj
 0003:00000ce0       ?dazSupported@?1??common_control87@@9@9 0000000180049ce0     libucrt:ieee.obj
 0003:00000d20       _module                    0000000180049d20     jsmsc.obj
 0003:00001630       ?initlocks@std@@3V_Init_locks@1@A 000000018004a630     libcpmt:xlock.obj
 0003:00001640       ?mtx@std@@3PAU_RTL_CRITICAL_SECTION@@A 000000018004a640     libcpmt:xlock.obj
 0003:00001780       ?initlocks@@3V_Init_locks@std@@A 000000018004a780     libcpmt:cout.obj
